
m365.elf:     file format elf32-littlearm

Sections:
Idx Name          Size      VMA       LMA       File off  Algn
  0 .isr_vector   0000010c  08000000  08000000  00010000  2**0
                  CONTENTS, ALLOC, LOAD, READONLY, DATA
  1 .text         00007b54  08000110  08000110  00010110  2**4
                  CONTENTS, ALLOC, LOAD, READONLY, CODE
  2 .rodata       00000380  08007c64  08007c64  00017c64  2**2
                  CONTENTS, ALLOC, LOAD, READONLY, DATA
  3 .ARM.extab    00000000  08007fe4  08007fe4  0002057c  2**0
                  CONTENTS
  4 .ARM          00000000  08007fe4  08007fe4  0002057c  2**0
                  CONTENTS
  5 .preinit_array 00000000  08007fe4  08007fe4  0002057c  2**0
                  CONTENTS, ALLOC, LOAD, DATA
  6 .init_array   00000004  08007fe4  08007fe4  00017fe4  2**2
                  CONTENTS, ALLOC, LOAD, DATA
  7 .fini_array   00000004  08007fe8  08007fe8  00017fe8  2**2
                  CONTENTS, ALLOC, LOAD, DATA
  8 .data         0000057c  20000000  08007fec  00020000  2**2
                  CONTENTS, ALLOC, LOAD, DATA
  9 .bss          00001d38  2000057c  08008568  0002057c  2**2
                  ALLOC
 10 ._user_heap_stack 00000604  200022b4  08008568  000222b4  2**0
                  ALLOC
 11 .ARM.attributes 00000029  00000000  00000000  0002057c  2**0
                  CONTENTS, READONLY
 12 .comment      000000fa  00000000  00000000  000205a5  2**0
                  CONTENTS, READONLY
 13 .debug_frame  00000074  00000000  00000000  000206a0  2**2
                  CONTENTS, READONLY, DEBUGGING

Disassembly of section .text:

08000110 <__do_global_dtors_aux>:
 8000110:	b510      	push	{r4, lr}
 8000112:	4c05      	ldr	r4, [pc, #20]	; (8000128 <__do_global_dtors_aux+0x18>)
 8000114:	7823      	ldrb	r3, [r4, #0]
 8000116:	b933      	cbnz	r3, 8000126 <__do_global_dtors_aux+0x16>
 8000118:	4b04      	ldr	r3, [pc, #16]	; (800012c <__do_global_dtors_aux+0x1c>)
 800011a:	b113      	cbz	r3, 8000122 <__do_global_dtors_aux+0x12>
 800011c:	4804      	ldr	r0, [pc, #16]	; (8000130 <__do_global_dtors_aux+0x20>)
 800011e:	f3af 8000 	nop.w
 8000122:	2301      	movs	r3, #1
 8000124:	7023      	strb	r3, [r4, #0]
 8000126:	bd10      	pop	{r4, pc}
 8000128:	2000057c 	.word	0x2000057c
 800012c:	00000000 	.word	0x00000000
 8000130:	08007c4c 	.word	0x08007c4c

08000134 <frame_dummy>:
 8000134:	b508      	push	{r3, lr}
 8000136:	4b03      	ldr	r3, [pc, #12]	; (8000144 <frame_dummy+0x10>)
 8000138:	b11b      	cbz	r3, 8000142 <frame_dummy+0xe>
 800013a:	4903      	ldr	r1, [pc, #12]	; (8000148 <frame_dummy+0x14>)
 800013c:	4803      	ldr	r0, [pc, #12]	; (800014c <frame_dummy+0x18>)
 800013e:	f3af 8000 	nop.w
 8000142:	bd08      	pop	{r3, pc}
 8000144:	00000000 	.word	0x00000000
 8000148:	20000580 	.word	0x20000580
 800014c:	08007c4c 	.word	0x08007c4c

08000150 <Reset_Handler>:
 8000150:	2100      	movs	r1, #0
 8000152:	e003      	b.n	800015c <LoopCopyDataInit>

08000154 <CopyDataInit>:
 8000154:	4b0b      	ldr	r3, [pc, #44]	; (8000184 <LoopFillZerobss+0x14>)
 8000156:	585b      	ldr	r3, [r3, r1]
 8000158:	5043      	str	r3, [r0, r1]
 800015a:	3104      	adds	r1, #4

0800015c <LoopCopyDataInit>:
 800015c:	480a      	ldr	r0, [pc, #40]	; (8000188 <LoopFillZerobss+0x18>)
 800015e:	4b0b      	ldr	r3, [pc, #44]	; (800018c <LoopFillZerobss+0x1c>)
 8000160:	1842      	adds	r2, r0, r1
 8000162:	429a      	cmp	r2, r3
 8000164:	d3f6      	bcc.n	8000154 <CopyDataInit>
 8000166:	4a0a      	ldr	r2, [pc, #40]	; (8000190 <LoopFillZerobss+0x20>)
 8000168:	e002      	b.n	8000170 <LoopFillZerobss>

0800016a <FillZerobss>:
 800016a:	2300      	movs	r3, #0
 800016c:	f842 3b04 	str.w	r3, [r2], #4

08000170 <LoopFillZerobss>:
 8000170:	4b08      	ldr	r3, [pc, #32]	; (8000194 <LoopFillZerobss+0x24>)
 8000172:	429a      	cmp	r2, r3
 8000174:	d3f9      	bcc.n	800016a <FillZerobss>
 8000176:	f002 faf9 	bl	800276c <SystemInit>
 800017a:	f007 fd2f 	bl	8007bdc <__libc_init_array>
 800017e:	f000 f863 	bl	8000248 <main>
 8000182:	4770      	bx	lr
 8000184:	08007fec 	.word	0x08007fec
 8000188:	20000000 	.word	0x20000000
 800018c:	2000057c 	.word	0x2000057c
 8000190:	2000057c 	.word	0x2000057c
 8000194:	200022b4 	.word	0x200022b4

08000198 <BusFault_Handler>:
 8000198:	e7fe      	b.n	8000198 <BusFault_Handler>
	...

0800019c <StartLEDTask>:
 800019c:	b508      	push	{r3, lr}
 800019e:	4c09      	ldr	r4, [pc, #36]	; (80001c4 <StartLEDTask+0x28>)
 80001a0:	2200      	movs	r2, #0
 80001a2:	2102      	movs	r1, #2
 80001a4:	4620      	mov	r0, r4
 80001a6:	f002 fee9 	bl	8002f7c <HAL_GPIO_WritePin>
 80001aa:	20c8      	movs	r0, #200	; 0xc8
 80001ac:	f004 f89e 	bl	80042ec <osDelay>
 80001b0:	4620      	mov	r0, r4
 80001b2:	2201      	movs	r2, #1
 80001b4:	2102      	movs	r1, #2
 80001b6:	f002 fee1 	bl	8002f7c <HAL_GPIO_WritePin>
 80001ba:	20c8      	movs	r0, #200	; 0xc8
 80001bc:	f004 f896 	bl	80042ec <osDelay>
 80001c0:	e7ee      	b.n	80001a0 <StartLEDTask+0x4>
 80001c2:	bf00      	nop
 80001c4:	40011400 	.word	0x40011400

080001c8 <SystemClock_Config>:
 80001c8:	b530      	push	{r4, r5, lr}
 80001ca:	b095      	sub	sp, #84	; 0x54
 80001cc:	2220      	movs	r2, #32
 80001ce:	2100      	movs	r1, #0
 80001d0:	a80b      	add	r0, sp, #44	; 0x2c
 80001d2:	f007 fd32 	bl	8007c3a <memset>
 80001d6:	2001      	movs	r0, #1
 80001d8:	2300      	movs	r3, #0
 80001da:	2402      	movs	r4, #2
 80001dc:	2110      	movs	r1, #16
 80001de:	f44f 1260 	mov.w	r2, #3670016	; 0x380000
 80001e2:	900e      	str	r0, [sp, #56]	; 0x38
 80001e4:	a80a      	add	r0, sp, #40	; 0x28
 80001e6:	9305      	str	r3, [sp, #20]
 80001e8:	9301      	str	r3, [sp, #4]
 80001ea:	e9cd 3306 	strd	r3, r3, [sp, #24]
 80001ee:	e9cd 3308 	strd	r3, r3, [sp, #32]
 80001f2:	e9cd 3302 	strd	r3, r3, [sp, #8]
 80001f6:	9304      	str	r3, [sp, #16]
 80001f8:	940a      	str	r4, [sp, #40]	; 0x28
 80001fa:	9411      	str	r4, [sp, #68]	; 0x44
 80001fc:	910f      	str	r1, [sp, #60]	; 0x3c
 80001fe:	9213      	str	r2, [sp, #76]	; 0x4c
 8000200:	f002 fec0 	bl	8002f84 <HAL_RCC_OscConfig>
 8000204:	b108      	cbz	r0, 800020a <SystemClock_Config+0x42>
 8000206:	b672      	cpsid	i
 8000208:	e7fe      	b.n	8000208 <SystemClock_Config+0x40>
 800020a:	4603      	mov	r3, r0
 800020c:	250f      	movs	r5, #15
 800020e:	f44f 6280 	mov.w	r2, #1024	; 0x400
 8000212:	a805      	add	r0, sp, #20
 8000214:	4621      	mov	r1, r4
 8000216:	e9cd 4306 	strd	r4, r3, [sp, #24]
 800021a:	9309      	str	r3, [sp, #36]	; 0x24
 800021c:	9505      	str	r5, [sp, #20]
 800021e:	9208      	str	r2, [sp, #32]
 8000220:	f003 f8a8 	bl	8003374 <HAL_RCC_ClockConfig>
 8000224:	b108      	cbz	r0, 800022a <SystemClock_Config+0x62>
 8000226:	b672      	cpsid	i
 8000228:	e7fe      	b.n	8000228 <SystemClock_Config+0x60>
 800022a:	f44f 4300 	mov.w	r3, #32768	; 0x8000
 800022e:	a801      	add	r0, sp, #4
 8000230:	9401      	str	r4, [sp, #4]
 8000232:	9303      	str	r3, [sp, #12]
 8000234:	f003 f9b6 	bl	80035a4 <HAL_RCCEx_PeriphCLKConfig>
 8000238:	b108      	cbz	r0, 800023e <SystemClock_Config+0x76>
 800023a:	b672      	cpsid	i
 800023c:	e7fe      	b.n	800023c <SystemClock_Config+0x74>
 800023e:	f003 f965 	bl	800350c <HAL_RCC_EnableCSS>
 8000242:	b015      	add	sp, #84	; 0x54
 8000244:	bd30      	pop	{r4, r5, pc}
 8000246:	bf00      	nop

08000248 <main>:
 8000248:	2600      	movs	r6, #0
 800024a:	e92d 4880 	stmdb	sp!, {r7, fp, lr}
 800024e:	2402      	movs	r4, #2
 8000250:	2501      	movs	r5, #1
 8000252:	b09b      	sub	sp, #108	; 0x6c
 8000254:	f002 fa8c 	bl	8002770 <HAL_Init>
 8000258:	f7ff ffb6 	bl	80001c8 <SystemClock_Config>
 800025c:	e9cd 6612 	strd	r6, r6, [sp, #72]	; 0x48
 8000260:	e9cd 6614 	strd	r6, r6, [sp, #80]	; 0x50
 8000264:	4fa8      	ldr	r7, [pc, #672]	; (8000508 <main+0x2c0>)
 8000266:	4632      	mov	r2, r6
 8000268:	69bb      	ldr	r3, [r7, #24]
 800026a:	4621      	mov	r1, r4
 800026c:	f043 0320 	orr.w	r3, r3, #32
 8000270:	61bb      	str	r3, [r7, #24]
 8000272:	69bb      	ldr	r3, [r7, #24]
 8000274:	48a5      	ldr	r0, [pc, #660]	; (800050c <main+0x2c4>)
 8000276:	f003 0320 	and.w	r3, r3, #32
 800027a:	9301      	str	r3, [sp, #4]
 800027c:	9b01      	ldr	r3, [sp, #4]
 800027e:	69bb      	ldr	r3, [r7, #24]
 8000280:	f44f 7a80 	mov.w	sl, #256	; 0x100
 8000284:	f043 0304 	orr.w	r3, r3, #4
 8000288:	61bb      	str	r3, [r7, #24]
 800028a:	69bb      	ldr	r3, [r7, #24]
 800028c:	f44f 2960 	mov.w	r9, #917504	; 0xe0000
 8000290:	f003 0304 	and.w	r3, r3, #4
 8000294:	9302      	str	r3, [sp, #8]
 8000296:	9b02      	ldr	r3, [sp, #8]
 8000298:	69bb      	ldr	r3, [r7, #24]
 800029a:	f8df 8284 	ldr.w	r8, [pc, #644]	; 8000520 <main+0x2d8>
 800029e:	f043 0308 	orr.w	r3, r3, #8
 80002a2:	61bb      	str	r3, [r7, #24]
 80002a4:	69bb      	ldr	r3, [r7, #24]
 80002a6:	f003 0308 	and.w	r3, r3, #8
 80002aa:	9303      	str	r3, [sp, #12]
 80002ac:	9b03      	ldr	r3, [sp, #12]
 80002ae:	f002 fe65 	bl	8002f7c <HAL_GPIO_WritePin>
 80002b2:	a912      	add	r1, sp, #72	; 0x48
 80002b4:	4895      	ldr	r0, [pc, #596]	; (800050c <main+0x2c4>)
 80002b6:	9614      	str	r6, [sp, #80]	; 0x50
 80002b8:	9412      	str	r4, [sp, #72]	; 0x48
 80002ba:	9415      	str	r4, [sp, #84]	; 0x54
 80002bc:	9513      	str	r5, [sp, #76]	; 0x4c
 80002be:	f002 fd63 	bl	8002d88 <HAL_GPIO_Init>
 80002c2:	f44f 6300 	mov.w	r3, #2048	; 0x800
 80002c6:	4992      	ldr	r1, [pc, #584]	; (8000510 <main+0x2c8>)
 80002c8:	4640      	mov	r0, r8
 80002ca:	684a      	ldr	r2, [r1, #4]
 80002cc:	f888 600c 	strb.w	r6, [r8, #12]
 80002d0:	f042 62e0 	orr.w	r2, r2, #117440512	; 0x7000000
 80002d4:	f442 4200 	orr.w	r2, r2, #32768	; 0x8000
 80002d8:	604a      	str	r2, [r1, #4]
 80002da:	697a      	ldr	r2, [r7, #20]
 80002dc:	f888 6014 	strb.w	r6, [r8, #20]
 80002e0:	432a      	orrs	r2, r5
 80002e2:	617a      	str	r2, [r7, #20]
 80002e4:	697a      	ldr	r2, [r7, #20]
 80002e6:	f501 5110 	add.w	r1, r1, #9216	; 0x2400
 80002ea:	402a      	ands	r2, r5
 80002ec:	9200      	str	r2, [sp, #0]
 80002ee:	9a00      	ldr	r2, [sp, #0]
 80002f0:	e9cd 6612 	strd	r6, r6, [sp, #72]	; 0x48
 80002f4:	e9cd 6614 	strd	r6, r6, [sp, #80]	; 0x50
 80002f8:	e9cd 6616 	strd	r6, r6, [sp, #88]	; 0x58
 80002fc:	9618      	str	r6, [sp, #96]	; 0x60
 80002fe:	e9cd 660b 	strd	r6, r6, [sp, #44]	; 0x2c
 8000302:	960d      	str	r6, [sp, #52]	; 0x34
 8000304:	f8c8 4010 	str.w	r4, [r8, #16]
 8000308:	f8c8 1000 	str.w	r1, [r8]
 800030c:	f8c8 a008 	str.w	sl, [r8, #8]
 8000310:	f8c8 901c 	str.w	r9, [r8, #28]
 8000314:	f8c8 3004 	str.w	r3, [r8, #4]
 8000318:	f002 fa4e 	bl	80027b8 <HAL_ADC_Init>
 800031c:	b108      	cbz	r0, 8000322 <main+0xda>
 800031e:	b672      	cpsid	i
 8000320:	e7fe      	b.n	8000320 <main+0xd8>
 8000322:	4602      	mov	r2, r0
 8000324:	2301      	movs	r3, #1
 8000326:	f88d 205d 	strb.w	r2, [sp, #93]	; 0x5d
 800032a:	2203      	movs	r2, #3
 800032c:	2603      	movs	r6, #3
 800032e:	e9cd 2312 	strd	r2, r3, [sp, #72]	; 0x48
 8000332:	f44f 5780 	mov.w	r7, #4096	; 0x1000
 8000336:	2200      	movs	r2, #0
 8000338:	2300      	movs	r3, #0
 800033a:	a912      	add	r1, sp, #72	; 0x48
 800033c:	4640      	mov	r0, r8
 800033e:	f88d 505c 	strb.w	r5, [sp, #92]	; 0x5c
 8000342:	9616      	str	r6, [sp, #88]	; 0x58
 8000344:	9718      	str	r7, [sp, #96]	; 0x60
 8000346:	e9cd 2314 	strd	r2, r3, [sp, #80]	; 0x50
 800034a:	f002 fb85 	bl	8002a58 <HAL_ADCEx_InjectedConfigChannel>
 800034e:	b108      	cbz	r0, 8000354 <main+0x10c>
 8000350:	b672      	cpsid	i
 8000352:	e7fe      	b.n	8000352 <main+0x10a>
 8000354:	f04f 0b04 	mov.w	fp, #4
 8000358:	a912      	add	r1, sp, #72	; 0x48
 800035a:	4640      	mov	r0, r8
 800035c:	e9cd b412 	strd	fp, r4, [sp, #72]	; 0x48
 8000360:	f002 fb7a 	bl	8002a58 <HAL_ADCEx_InjectedConfigChannel>
 8000364:	b108      	cbz	r0, 800036a <main+0x122>
 8000366:	b672      	cpsid	i
 8000368:	e7fe      	b.n	8000368 <main+0x120>
 800036a:	2305      	movs	r3, #5
 800036c:	a912      	add	r1, sp, #72	; 0x48
 800036e:	4640      	mov	r0, r8
 8000370:	9613      	str	r6, [sp, #76]	; 0x4c
 8000372:	9312      	str	r3, [sp, #72]	; 0x48
 8000374:	f002 fb70 	bl	8002a58 <HAL_ADCEx_InjectedConfigChannel>
 8000378:	4602      	mov	r2, r0
 800037a:	b108      	cbz	r0, 8000380 <main+0x138>
 800037c:	b672      	cpsid	i
 800037e:	e7fe      	b.n	800037e <main+0x136>
 8000380:	a90b      	add	r1, sp, #44	; 0x2c
 8000382:	4640      	mov	r0, r8
 8000384:	920d      	str	r2, [sp, #52]	; 0x34
 8000386:	e9cd 450b 	strd	r4, r5, [sp, #44]	; 0x2c
 800038a:	f002 fad5 	bl	8002938 <HAL_ADC_ConfigChannel>
 800038e:	4602      	mov	r2, r0
 8000390:	b108      	cbz	r0, 8000396 <main+0x14e>
 8000392:	b672      	cpsid	i
 8000394:	e7fe      	b.n	8000394 <main+0x14c>
 8000396:	4640      	mov	r0, r8
 8000398:	a90b      	add	r1, sp, #44	; 0x2c
 800039a:	e9cd 240b 	strd	r2, r4, [sp, #44]	; 0x2c
 800039e:	f002 facb 	bl	8002938 <HAL_ADC_ConfigChannel>
 80003a2:	4602      	mov	r2, r0
 80003a4:	b108      	cbz	r0, 80003aa <main+0x162>
 80003a6:	b672      	cpsid	i
 80003a8:	e7fe      	b.n	80003a8 <main+0x160>
 80003aa:	f44f 6300 	mov.w	r3, #2048	; 0x800
 80003ae:	f8df 8174 	ldr.w	r8, [pc, #372]	; 8000524 <main+0x2dc>
 80003b2:	4958      	ldr	r1, [pc, #352]	; (8000514 <main+0x2cc>)
 80003b4:	e9cd 0012 	strd	r0, r0, [sp, #72]	; 0x48
 80003b8:	e9cd 0014 	strd	r0, r0, [sp, #80]	; 0x50
 80003bc:	e9cd 0016 	strd	r0, r0, [sp, #88]	; 0x58
 80003c0:	9018      	str	r0, [sp, #96]	; 0x60
 80003c2:	4640      	mov	r0, r8
 80003c4:	f888 200c 	strb.w	r2, [r8, #12]
 80003c8:	f888 2014 	strb.w	r2, [r8, #20]
 80003cc:	f8c8 a008 	str.w	sl, [r8, #8]
 80003d0:	f8c8 901c 	str.w	r9, [r8, #28]
 80003d4:	f8c8 3004 	str.w	r3, [r8, #4]
 80003d8:	f8c8 5010 	str.w	r5, [r8, #16]
 80003dc:	f8c8 1000 	str.w	r1, [r8]
 80003e0:	f002 f9ea 	bl	80027b8 <HAL_ADC_Init>
 80003e4:	4602      	mov	r2, r0
 80003e6:	b108      	cbz	r0, 80003ec <main+0x1a4>
 80003e8:	b672      	cpsid	i
 80003ea:	e7fe      	b.n	80003ea <main+0x1a2>
 80003ec:	2301      	movs	r3, #1
 80003ee:	f88d 205d 	strb.w	r2, [sp, #93]	; 0x5d
 80003f2:	2203      	movs	r2, #3
 80003f4:	e9cd 2312 	strd	r2, r3, [sp, #72]	; 0x48
 80003f8:	2200      	movs	r2, #0
 80003fa:	2300      	movs	r3, #0
 80003fc:	a912      	add	r1, sp, #72	; 0x48
 80003fe:	4640      	mov	r0, r8
 8000400:	9616      	str	r6, [sp, #88]	; 0x58
 8000402:	9718      	str	r7, [sp, #96]	; 0x60
 8000404:	f88d 505c 	strb.w	r5, [sp, #92]	; 0x5c
 8000408:	e9cd 2314 	strd	r2, r3, [sp, #80]	; 0x50
 800040c:	f002 fb24 	bl	8002a58 <HAL_ADCEx_InjectedConfigChannel>
 8000410:	b108      	cbz	r0, 8000416 <main+0x1ce>
 8000412:	b672      	cpsid	i
 8000414:	e7fe      	b.n	8000414 <main+0x1cc>
 8000416:	a912      	add	r1, sp, #72	; 0x48
 8000418:	4640      	mov	r0, r8
 800041a:	f8cd b048 	str.w	fp, [sp, #72]	; 0x48
 800041e:	9413      	str	r4, [sp, #76]	; 0x4c
 8000420:	f002 fb1a 	bl	8002a58 <HAL_ADCEx_InjectedConfigChannel>
 8000424:	b108      	cbz	r0, 800042a <main+0x1e2>
 8000426:	b672      	cpsid	i
 8000428:	e7fe      	b.n	8000428 <main+0x1e0>
 800042a:	2305      	movs	r3, #5
 800042c:	4640      	mov	r0, r8
 800042e:	a912      	add	r1, sp, #72	; 0x48
 8000430:	e9cd 3612 	strd	r3, r6, [sp, #72]	; 0x48
 8000434:	f002 fb10 	bl	8002a58 <HAL_ADCEx_InjectedConfigChannel>
 8000438:	b108      	cbz	r0, 800043e <main+0x1f6>
 800043a:	b672      	cpsid	i
 800043c:	e7fe      	b.n	800043c <main+0x1f4>
 800043e:	2500      	movs	r5, #0
 8000440:	2720      	movs	r7, #32
 8000442:	4629      	mov	r1, r5
 8000444:	463a      	mov	r2, r7
 8000446:	a812      	add	r0, sp, #72	; 0x48
 8000448:	9506      	str	r5, [sp, #24]
 800044a:	9504      	str	r5, [sp, #16]
 800044c:	e9cd 550b 	strd	r5, r5, [sp, #44]	; 0x2c
 8000450:	e9cd 550d 	strd	r5, r5, [sp, #52]	; 0x34
 8000454:	e9cd 550f 	strd	r5, r5, [sp, #60]	; 0x3c
 8000458:	9511      	str	r5, [sp, #68]	; 0x44
 800045a:	e9cd 5507 	strd	r5, r5, [sp, #28]
 800045e:	e9cd 5509 	strd	r5, r5, [sp, #36]	; 0x24
 8000462:	9505      	str	r5, [sp, #20]
 8000464:	f44f 7680 	mov.w	r6, #256	; 0x100
 8000468:	f007 fbe7 	bl	8007c3a <memset>
 800046c:	f44f 62fa 	mov.w	r2, #2000	; 0x7d0
 8000470:	2301      	movs	r3, #1
 8000472:	4c29      	ldr	r4, [pc, #164]	; (8000518 <main+0x2d0>)
 8000474:	4929      	ldr	r1, [pc, #164]	; (800051c <main+0x2d4>)
 8000476:	4620      	mov	r0, r4
 8000478:	e9c4 5701 	strd	r5, r7, [r4, #4]
 800047c:	61a5      	str	r5, [r4, #24]
 800047e:	6021      	str	r1, [r4, #0]
 8000480:	60e2      	str	r2, [r4, #12]
 8000482:	e9c4 6304 	strd	r6, r3, [r4, #16]
 8000486:	f003 f90f 	bl	80036a8 <HAL_TIM_Base_Init>
 800048a:	b108      	cbz	r0, 8000490 <main+0x248>
 800048c:	b672      	cpsid	i
 800048e:	e7fe      	b.n	800048e <main+0x246>
 8000490:	4620      	mov	r0, r4
 8000492:	f003 f997 	bl	80037c4 <HAL_TIM_PWM_Init>
 8000496:	b108      	cbz	r0, 800049c <main+0x254>
 8000498:	b672      	cpsid	i
 800049a:	e7fe      	b.n	800049a <main+0x252>
 800049c:	2310      	movs	r3, #16
 800049e:	2206      	movs	r2, #6
 80004a0:	a906      	add	r1, sp, #24
 80004a2:	4620      	mov	r0, r4
 80004a4:	9307      	str	r3, [sp, #28]
 80004a6:	9206      	str	r2, [sp, #24]
 80004a8:	f003 fb96 	bl	8003bd8 <HAL_TIM_SlaveConfigSynchro>
 80004ac:	4603      	mov	r3, r0
 80004ae:	b108      	cbz	r0, 80004b4 <main+0x26c>
 80004b0:	b672      	cpsid	i
 80004b2:	e7fe      	b.n	80004b2 <main+0x26a>
 80004b4:	a904      	add	r1, sp, #16
 80004b6:	4620      	mov	r0, r4
 80004b8:	e9cd 3304 	strd	r3, r3, [sp, #16]
 80004bc:	f003 fdb4 	bl	8004028 <HAL_TIMEx_MasterConfigSynchronization>
 80004c0:	b108      	cbz	r0, 80004c6 <main+0x27e>
 80004c2:	b672      	cpsid	i
 80004c4:	e7fe      	b.n	80004c4 <main+0x27c>
 80004c6:	2360      	movs	r3, #96	; 0x60
 80004c8:	4602      	mov	r2, r0
 80004ca:	e9cd 000c 	strd	r0, r0, [sp, #48]	; 0x30
 80004ce:	e9cd 000e 	strd	r0, r0, [sp, #56]	; 0x38
 80004d2:	e9cd 0010 	strd	r0, r0, [sp, #64]	; 0x40
 80004d6:	a90b      	add	r1, sp, #44	; 0x2c
 80004d8:	4620      	mov	r0, r4
 80004da:	930b      	str	r3, [sp, #44]	; 0x2c
 80004dc:	f003 f9d2 	bl	8003884 <HAL_TIM_PWM_ConfigChannel>
 80004e0:	b108      	cbz	r0, 80004e6 <main+0x29e>
 80004e2:	b672      	cpsid	i
 80004e4:	e7fe      	b.n	80004e4 <main+0x29c>
 80004e6:	2204      	movs	r2, #4
 80004e8:	a90b      	add	r1, sp, #44	; 0x2c
 80004ea:	4620      	mov	r0, r4
 80004ec:	f003 f9ca 	bl	8003884 <HAL_TIM_PWM_ConfigChannel>
 80004f0:	b108      	cbz	r0, 80004f6 <main+0x2ae>
 80004f2:	b672      	cpsid	i
 80004f4:	e7fe      	b.n	80004f4 <main+0x2ac>
 80004f6:	2208      	movs	r2, #8
 80004f8:	a90b      	add	r1, sp, #44	; 0x2c
 80004fa:	4620      	mov	r0, r4
 80004fc:	f003 f9c2 	bl	8003884 <HAL_TIM_PWM_ConfigChannel>
 8000500:	b190      	cbz	r0, 8000528 <main+0x2e0>
 8000502:	b672      	cpsid	i
 8000504:	e7fe      	b.n	8000504 <main+0x2bc>
 8000506:	bf00      	nop
 8000508:	40021000 	.word	0x40021000
 800050c:	40011400 	.word	0x40011400
 8000510:	40010000 	.word	0x40010000
 8000514:	40012800 	.word	0x40012800
 8000518:	20002000 	.word	0x20002000
 800051c:	40012c00 	.word	0x40012c00
 8000520:	20001f88 	.word	0x20001f88
 8000524:	20001f0c 	.word	0x20001f0c
 8000528:	2070      	movs	r0, #112	; 0x70
 800052a:	f240 73cf 	movw	r3, #1999	; 0x7cf
 800052e:	900b      	str	r0, [sp, #44]	; 0x2c
 8000530:	220c      	movs	r2, #12
 8000532:	a90b      	add	r1, sp, #44	; 0x2c
 8000534:	4620      	mov	r0, r4
 8000536:	930c      	str	r3, [sp, #48]	; 0x30
 8000538:	f003 f9a4 	bl	8003884 <HAL_TIM_PWM_ConfigChannel>
 800053c:	b108      	cbz	r0, 8000542 <main+0x2fa>
 800053e:	b672      	cpsid	i
 8000540:	e7fe      	b.n	8000540 <main+0x2f8>
 8000542:	f44f 6100 	mov.w	r1, #2048	; 0x800
 8000546:	f44f 6280 	mov.w	r2, #1024	; 0x400
 800054a:	2319      	movs	r3, #25
 800054c:	e9cd 0016 	strd	r0, r0, [sp, #88]	; 0x58
 8000550:	9019      	str	r0, [sp, #100]	; 0x64
 8000552:	9112      	str	r1, [sp, #72]	; 0x48
 8000554:	4620      	mov	r0, r4
 8000556:	a912      	add	r1, sp, #72	; 0x48
 8000558:	9614      	str	r6, [sp, #80]	; 0x50
 800055a:	9213      	str	r2, [sp, #76]	; 0x4c
 800055c:	9315      	str	r3, [sp, #84]	; 0x54
 800055e:	f003 fd97 	bl	8004090 <HAL_TIMEx_ConfigBreakDeadTime>
 8000562:	4605      	mov	r5, r0
 8000564:	b108      	cbz	r0, 800056a <main+0x322>
 8000566:	b672      	cpsid	i
 8000568:	e7fe      	b.n	8000568 <main+0x320>
 800056a:	4620      	mov	r0, r4
 800056c:	f001 fc5e 	bl	8001e2c <HAL_TIM_MspPostInit>
 8000570:	f64f 71ff 	movw	r1, #65535	; 0xffff
 8000574:	4b4d      	ldr	r3, [pc, #308]	; (80006ac <main+0x464>)
 8000576:	4a4e      	ldr	r2, [pc, #312]	; (80006b0 <main+0x468>)
 8000578:	4618      	mov	r0, r3
 800057a:	e9cd 550b 	strd	r5, r5, [sp, #44]	; 0x2c
 800057e:	e9cd 550d 	strd	r5, r5, [sp, #52]	; 0x34
 8000582:	e9cd 5512 	strd	r5, r5, [sp, #72]	; 0x48
 8000586:	e9cd 5514 	strd	r5, r5, [sp, #80]	; 0x50
 800058a:	e9cd 5506 	strd	r5, r5, [sp, #24]
 800058e:	60d9      	str	r1, [r3, #12]
 8000590:	e9c3 5501 	strd	r5, r5, [r3, #4]
 8000594:	611d      	str	r5, [r3, #16]
 8000596:	619d      	str	r5, [r3, #24]
 8000598:	601a      	str	r2, [r3, #0]
 800059a:	f003 f885 	bl	80036a8 <HAL_TIM_Base_Init>
 800059e:	b108      	cbz	r0, 80005a4 <main+0x35c>
 80005a0:	b672      	cpsid	i
 80005a2:	e7fe      	b.n	80005a2 <main+0x35a>
 80005a4:	f44f 5380 	mov.w	r3, #4096	; 0x1000
 80005a8:	a90b      	add	r1, sp, #44	; 0x2c
 80005aa:	4840      	ldr	r0, [pc, #256]	; (80006ac <main+0x464>)
 80005ac:	930b      	str	r3, [sp, #44]	; 0x2c
 80005ae:	f003 fa6d 	bl	8003a8c <HAL_TIM_ConfigClockSource>
 80005b2:	4603      	mov	r3, r0
 80005b4:	b108      	cbz	r0, 80005ba <main+0x372>
 80005b6:	b672      	cpsid	i
 80005b8:	e7fe      	b.n	80005b8 <main+0x370>
 80005ba:	220a      	movs	r2, #10
 80005bc:	a912      	add	r1, sp, #72	; 0x48
 80005be:	483b      	ldr	r0, [pc, #236]	; (80006ac <main+0x464>)
 80005c0:	e9cd 3312 	strd	r3, r3, [sp, #72]	; 0x48
 80005c4:	e9cd 2314 	strd	r2, r3, [sp, #80]	; 0x50
 80005c8:	f003 fcca 	bl	8003f60 <HAL_TIMEx_HallSensor_Init>
 80005cc:	4603      	mov	r3, r0
 80005ce:	b108      	cbz	r0, 80005d4 <main+0x38c>
 80005d0:	b672      	cpsid	i
 80005d2:	e7fe      	b.n	80005d2 <main+0x38a>
 80005d4:	2250      	movs	r2, #80	; 0x50
 80005d6:	a906      	add	r1, sp, #24
 80005d8:	4834      	ldr	r0, [pc, #208]	; (80006ac <main+0x464>)
 80005da:	e9cd 2306 	strd	r2, r3, [sp, #24]
 80005de:	f003 fd23 	bl	8004028 <HAL_TIMEx_MasterConfigSynchronization>
 80005e2:	4602      	mov	r2, r0
 80005e4:	b108      	cbz	r0, 80005ea <main+0x3a2>
 80005e6:	b672      	cpsid	i
 80005e8:	e7fe      	b.n	80005e8 <main+0x3a0>
 80005ea:	210c      	movs	r1, #12
 80005ec:	f44f 35e1 	mov.w	r5, #115200	; 0x1c200
 80005f0:	4b30      	ldr	r3, [pc, #192]	; (80006b4 <main+0x46c>)
 80005f2:	4c31      	ldr	r4, [pc, #196]	; (80006b8 <main+0x470>)
 80005f4:	4618      	mov	r0, r3
 80005f6:	601c      	str	r4, [r3, #0]
 80005f8:	e9c3 5201 	strd	r5, r2, [r3, #4]
 80005fc:	e9c3 2203 	strd	r2, r2, [r3, #12]
 8000600:	e9c3 2206 	strd	r2, r2, [r3, #24]
 8000604:	6159      	str	r1, [r3, #20]
 8000606:	f003 fd71 	bl	80040ec <HAL_UART_Init>
 800060a:	4604      	mov	r4, r0
 800060c:	b108      	cbz	r0, 8000612 <main+0x3ca>
 800060e:	b672      	cpsid	i
 8000610:	e7fe      	b.n	8000610 <main+0x3c8>
 8000612:	f001 f8ff 	bl	8001814 <MX_MotorControl_Init>
 8000616:	4622      	mov	r2, r4
 8000618:	2102      	movs	r1, #2
 800061a:	2012      	movs	r0, #18
 800061c:	f002 fb24 	bl	8002c68 <HAL_NVIC_SetPriority>
 8000620:	2012      	movs	r0, #18
 8000622:	f002 fb57 	bl	8002cd4 <HAL_NVIC_EnableIRQ>
 8000626:	4622      	mov	r2, r4
 8000628:	4621      	mov	r1, r4
 800062a:	2019      	movs	r0, #25
 800062c:	f002 fb1c 	bl	8002c68 <HAL_NVIC_SetPriority>
 8000630:	2019      	movs	r0, #25
 8000632:	f002 fb4f 	bl	8002cd4 <HAL_NVIC_EnableIRQ>
 8000636:	4622      	mov	r2, r4
 8000638:	2104      	movs	r1, #4
 800063a:	2018      	movs	r0, #24
 800063c:	f002 fb14 	bl	8002c68 <HAL_NVIC_SetPriority>
 8000640:	2018      	movs	r0, #24
 8000642:	f002 fb47 	bl	8002cd4 <HAL_NVIC_EnableIRQ>
 8000646:	4622      	mov	r2, r4
 8000648:	4621      	mov	r1, r4
 800064a:	200b      	movs	r0, #11
 800064c:	f002 fb0c 	bl	8002c68 <HAL_NVIC_SetPriority>
 8000650:	200b      	movs	r0, #11
 8000652:	f002 fb3f 	bl	8002cd4 <HAL_NVIC_EnableIRQ>
 8000656:	4622      	mov	r2, r4
 8000658:	2103      	movs	r1, #3
 800065a:	201d      	movs	r0, #29
 800065c:	f002 fb04 	bl	8002c68 <HAL_NVIC_SetPriority>
 8000660:	201d      	movs	r0, #29
 8000662:	f002 fb37 	bl	8002cd4 <HAL_NVIC_EnableIRQ>
 8000666:	4622      	mov	r2, r4
 8000668:	2103      	movs	r1, #3
 800066a:	2027      	movs	r0, #39	; 0x27
 800066c:	f002 fafc 	bl	8002c68 <HAL_NVIC_SetPriority>
 8000670:	2027      	movs	r0, #39	; 0x27
 8000672:	f002 fb2f 	bl	8002cd4 <HAL_NVIC_EnableIRQ>
 8000676:	f003 fda3 	bl	80041c0 <osKernelInitialize>
 800067a:	4a10      	ldr	r2, [pc, #64]	; (80006bc <main+0x474>)
 800067c:	4621      	mov	r1, r4
 800067e:	4810      	ldr	r0, [pc, #64]	; (80006c0 <main+0x478>)
 8000680:	f003 fdda 	bl	8004238 <osThreadNew>
 8000684:	4b0f      	ldr	r3, [pc, #60]	; (80006c4 <main+0x47c>)
 8000686:	4a10      	ldr	r2, [pc, #64]	; (80006c8 <main+0x480>)
 8000688:	6018      	str	r0, [r3, #0]
 800068a:	4621      	mov	r1, r4
 800068c:	480f      	ldr	r0, [pc, #60]	; (80006cc <main+0x484>)
 800068e:	f003 fdd3 	bl	8004238 <osThreadNew>
 8000692:	4b0f      	ldr	r3, [pc, #60]	; (80006d0 <main+0x488>)
 8000694:	4621      	mov	r1, r4
 8000696:	6018      	str	r0, [r3, #0]
 8000698:	4a0e      	ldr	r2, [pc, #56]	; (80006d4 <main+0x48c>)
 800069a:	480f      	ldr	r0, [pc, #60]	; (80006d8 <main+0x490>)
 800069c:	f003 fdcc 	bl	8004238 <osThreadNew>
 80006a0:	4b0e      	ldr	r3, [pc, #56]	; (80006dc <main+0x494>)
 80006a2:	6018      	str	r0, [r3, #0]
 80006a4:	f003 fda6 	bl	80041f4 <osKernelStart>
 80006a8:	e7fe      	b.n	80006a8 <main+0x460>
 80006aa:	bf00      	nop
 80006ac:	20001f3c 	.word	0x20001f3c
 80006b0:	40000400 	.word	0x40000400
 80006b4:	20001ecc 	.word	0x20001ecc
 80006b8:	40004800 	.word	0x40004800
 80006bc:	08007c98 	.word	0x08007c98
 80006c0:	080010b5 	.word	0x080010b5
 80006c4:	20001fb8 	.word	0x20001fb8
 80006c8:	08007cbc 	.word	0x08007cbc
 80006cc:	080010c5 	.word	0x080010c5
 80006d0:	20001f84 	.word	0x20001f84
 80006d4:	08007c74 	.word	0x08007c74
 80006d8:	0800019d 	.word	0x0800019d
 80006dc:	20002048 	.word	0x20002048

080006e0 <HAL_TIM_PeriodElapsedCallback>:
 80006e0:	6802      	ldr	r2, [r0, #0]
 80006e2:	4b03      	ldr	r3, [pc, #12]	; (80006f0 <HAL_TIM_PeriodElapsedCallback+0x10>)
 80006e4:	429a      	cmp	r2, r3
 80006e6:	d000      	beq.n	80006ea <HAL_TIM_PeriodElapsedCallback+0xa>
 80006e8:	4770      	bx	lr
 80006ea:	f002 b853 	b.w	8002794 <HAL_IncTick>
 80006ee:	bf00      	nop
 80006f0:	40000800 	.word	0x40000800

080006f4 <Error_Handler>:
 80006f4:	b672      	cpsid	i
 80006f6:	e7fe      	b.n	80006f6 <Error_Handler+0x2>

080006f8 <MCI_Init>:
 80006f8:	b410      	push	{r4}
 80006fa:	2400      	movs	r4, #0
 80006fc:	e9c0 1200 	strd	r1, r2, [r0]
 8000700:	7304      	strb	r4, [r0, #12]
 8000702:	f8c0 400e 	str.w	r4, [r0, #14]
 8000706:	82c4      	strh	r4, [r0, #22]
 8000708:	7604      	strb	r4, [r0, #24]
 800070a:	6083      	str	r3, [r0, #8]
 800070c:	bc10      	pop	{r4}
 800070e:	4770      	bx	lr

08000710 <MCI_ExecSpeedRamp>:
 8000710:	2301      	movs	r3, #1
 8000712:	81c1      	strh	r1, [r0, #14]
 8000714:	82c2      	strh	r2, [r0, #22]
 8000716:	7303      	strb	r3, [r0, #12]
 8000718:	7603      	strb	r3, [r0, #24]
 800071a:	7643      	strb	r3, [r0, #25]
 800071c:	4770      	bx	lr
 800071e:	bf00      	nop

08000720 <MCI_ExecTorqueRamp>:
 8000720:	b430      	push	{r4, r5}
 8000722:	2300      	movs	r3, #0
 8000724:	2502      	movs	r5, #2
 8000726:	2401      	movs	r4, #1
 8000728:	7305      	strb	r5, [r0, #12]
 800072a:	7604      	strb	r4, [r0, #24]
 800072c:	8201      	strh	r1, [r0, #16]
 800072e:	82c2      	strh	r2, [r0, #22]
 8000730:	7643      	strb	r3, [r0, #25]
 8000732:	bc30      	pop	{r4, r5}
 8000734:	4770      	bx	lr
 8000736:	bf00      	nop

08000738 <MCI_SetCurrentReferences>:
 8000738:	b410      	push	{r4}
 800073a:	2201      	movs	r2, #1
 800073c:	2403      	movs	r4, #3
 800073e:	2300      	movs	r3, #0
 8000740:	b083      	sub	sp, #12
 8000742:	f8c0 1012 	str.w	r1, [r0, #18]
 8000746:	7304      	strb	r4, [r0, #12]
 8000748:	7602      	strb	r2, [r0, #24]
 800074a:	7643      	strb	r3, [r0, #25]
 800074c:	b003      	add	sp, #12
 800074e:	bc10      	pop	{r4}
 8000750:	4770      	bx	lr
 8000752:	bf00      	nop

08000754 <MCI_StartMotor>:
 8000754:	b510      	push	{r4, lr}
 8000756:	2103      	movs	r1, #3
 8000758:	4604      	mov	r4, r0
 800075a:	6800      	ldr	r0, [r0, #0]
 800075c:	f007 f83e 	bl	80077dc <STM_NextState>
 8000760:	b108      	cbz	r0, 8000766 <MCI_StartMotor+0x12>
 8000762:	2301      	movs	r3, #1
 8000764:	7623      	strb	r3, [r4, #24]
 8000766:	bd10      	pop	{r4, pc}

08000768 <MCI_StopMotor>:
 8000768:	6800      	ldr	r0, [r0, #0]
 800076a:	2107      	movs	r1, #7
 800076c:	f007 b836 	b.w	80077dc <STM_NextState>

08000770 <MCI_FaultAcknowledged>:
 8000770:	6800      	ldr	r0, [r0, #0]
 8000772:	f007 b8a9 	b.w	80078c8 <STM_FaultAcknowledged>
 8000776:	bf00      	nop

08000778 <MCI_EncoderAlign>:
 8000778:	6800      	ldr	r0, [r0, #0]
 800077a:	2101      	movs	r1, #1
 800077c:	f007 b82e 	b.w	80077dc <STM_NextState>

08000780 <MCI_ExecBufferedCommands>:
 8000780:	b110      	cbz	r0, 8000788 <MCI_ExecBufferedCommands+0x8>
 8000782:	7e03      	ldrb	r3, [r0, #24]
 8000784:	2b01      	cmp	r3, #1
 8000786:	d000      	beq.n	800078a <MCI_ExecBufferedCommands+0xa>
 8000788:	4770      	bx	lr
 800078a:	7b01      	ldrb	r1, [r0, #12]
 800078c:	b510      	push	{r4, lr}
 800078e:	2902      	cmp	r1, #2
 8000790:	4604      	mov	r4, r0
 8000792:	d01f      	beq.n	80007d4 <MCI_ExecBufferedCommands+0x54>
 8000794:	2903      	cmp	r1, #3
 8000796:	d004      	beq.n	80007a2 <MCI_ExecBufferedCommands+0x22>
 8000798:	2901      	cmp	r1, #1
 800079a:	d00b      	beq.n	80007b4 <MCI_ExecBufferedCommands+0x34>
 800079c:	2303      	movs	r3, #3
 800079e:	7623      	strb	r3, [r4, #24]
 80007a0:	bd10      	pop	{r4, pc}
 80007a2:	6882      	ldr	r2, [r0, #8]
 80007a4:	f8d0 1012 	ldr.w	r1, [r0, #18]
 80007a8:	f882 3024 	strb.w	r3, [r2, #36]	; 0x24
 80007ac:	6111      	str	r1, [r2, #16]
 80007ae:	2302      	movs	r3, #2
 80007b0:	7623      	strb	r3, [r4, #24]
 80007b2:	bd10      	pop	{r4, pc}
 80007b4:	2200      	movs	r2, #0
 80007b6:	6883      	ldr	r3, [r0, #8]
 80007b8:	6840      	ldr	r0, [r0, #4]
 80007ba:	f883 2024 	strb.w	r2, [r3, #36]	; 0x24
 80007be:	f006 ff49 	bl	8007654 <STC_SetControlMode>
 80007c2:	8ae2      	ldrh	r2, [r4, #22]
 80007c4:	f9b4 100e 	ldrsh.w	r1, [r4, #14]
 80007c8:	6860      	ldr	r0, [r4, #4]
 80007ca:	f006 ff47 	bl	800765c <STC_ExecRamp>
 80007ce:	2800      	cmp	r0, #0
 80007d0:	d0e4      	beq.n	800079c <MCI_ExecBufferedCommands+0x1c>
 80007d2:	e7ec      	b.n	80007ae <MCI_ExecBufferedCommands+0x2e>
 80007d4:	2300      	movs	r3, #0
 80007d6:	6882      	ldr	r2, [r0, #8]
 80007d8:	4619      	mov	r1, r3
 80007da:	f882 3024 	strb.w	r3, [r2, #36]	; 0x24
 80007de:	6840      	ldr	r0, [r0, #4]
 80007e0:	f006 ff38 	bl	8007654 <STC_SetControlMode>
 80007e4:	8ae2      	ldrh	r2, [r4, #22]
 80007e6:	f9b4 1010 	ldrsh.w	r1, [r4, #16]
 80007ea:	6860      	ldr	r0, [r4, #4]
 80007ec:	f006 ff36 	bl	800765c <STC_ExecRamp>
 80007f0:	2800      	cmp	r0, #0
 80007f2:	d0d3      	beq.n	800079c <MCI_ExecBufferedCommands+0x1c>
 80007f4:	e7db      	b.n	80007ae <MCI_ExecBufferedCommands+0x2e>
 80007f6:	bf00      	nop

080007f8 <MCI_GetSTMState>:
 80007f8:	6800      	ldr	r0, [r0, #0]
 80007fa:	f007 b863 	b.w	80078c4 <STM_GetState>
 80007fe:	bf00      	nop

08000800 <MCI_GetControlMode>:
 8000800:	7e40      	ldrb	r0, [r0, #25]
 8000802:	4770      	bx	lr

08000804 <MCI_GetLastRampFinalSpeed>:
 8000804:	7b03      	ldrb	r3, [r0, #12]
 8000806:	2b01      	cmp	r3, #1
 8000808:	bf0c      	ite	eq
 800080a:	f9b0 000e 	ldrsheq.w	r0, [r0, #14]
 800080e:	2000      	movne	r0, #0
 8000810:	4770      	bx	lr
 8000812:	bf00      	nop

08000814 <MCI_StopRamp>:
 8000814:	6840      	ldr	r0, [r0, #4]
 8000816:	f006 bf6b 	b.w	80076f0 <STC_StopRamp>
 800081a:	bf00      	nop

0800081c <MCI_GetAvrgMecSpeedUnit>:
 800081c:	b508      	push	{r3, lr}
 800081e:	6840      	ldr	r0, [r0, #4]
 8000820:	f006 fefe 	bl	8007620 <STC_GetSpeedSensor>
 8000824:	e8bd 4008 	ldmia.w	sp!, {r3, lr}
 8000828:	f006 bea4 	b.w	8007574 <SPD_GetAvrgMecSpeedUnit>

0800082c <MCI_GetMecSpeedRefUnit>:
 800082c:	6840      	ldr	r0, [r0, #4]
 800082e:	f006 bf01 	b.w	8007634 <STC_GetMecSpeedRefUnit>
 8000832:	bf00      	nop

08000834 <MCI_GetIab>:
 8000834:	6883      	ldr	r3, [r0, #8]
 8000836:	b082      	sub	sp, #8
 8000838:	6818      	ldr	r0, [r3, #0]
 800083a:	b283      	uxth	r3, r0
 800083c:	f363 000f 	bfi	r0, r3, #0, #16
 8000840:	b002      	add	sp, #8
 8000842:	4770      	bx	lr

08000844 <MCI_GetIalphabeta>:
 8000844:	6883      	ldr	r3, [r0, #8]
 8000846:	b082      	sub	sp, #8
 8000848:	6858      	ldr	r0, [r3, #4]
 800084a:	b283      	uxth	r3, r0
 800084c:	f363 000f 	bfi	r0, r3, #0, #16
 8000850:	b002      	add	sp, #8
 8000852:	4770      	bx	lr

08000854 <MCI_GetIqd>:
 8000854:	6883      	ldr	r3, [r0, #8]
 8000856:	b082      	sub	sp, #8
 8000858:	68d8      	ldr	r0, [r3, #12]
 800085a:	b283      	uxth	r3, r0
 800085c:	f363 000f 	bfi	r0, r3, #0, #16
 8000860:	b002      	add	sp, #8
 8000862:	4770      	bx	lr

08000864 <MCI_GetIqdref>:
 8000864:	6883      	ldr	r3, [r0, #8]
 8000866:	b082      	sub	sp, #8
 8000868:	6918      	ldr	r0, [r3, #16]
 800086a:	b283      	uxth	r3, r0
 800086c:	f363 000f 	bfi	r0, r3, #0, #16
 8000870:	b002      	add	sp, #8
 8000872:	4770      	bx	lr

08000874 <MCI_GetVqd>:
 8000874:	6883      	ldr	r3, [r0, #8]
 8000876:	b082      	sub	sp, #8
 8000878:	f8d3 0016 	ldr.w	r0, [r3, #22]
 800087c:	b283      	uxth	r3, r0
 800087e:	f363 000f 	bfi	r0, r3, #0, #16
 8000882:	b002      	add	sp, #8
 8000884:	4770      	bx	lr
 8000886:	bf00      	nop

08000888 <MCI_GetValphabeta>:
 8000888:	6883      	ldr	r3, [r0, #8]
 800088a:	b082      	sub	sp, #8
 800088c:	f8d3 001a 	ldr.w	r0, [r3, #26]
 8000890:	b283      	uxth	r3, r0
 8000892:	f363 000f 	bfi	r0, r3, #0, #16
 8000896:	b002      	add	sp, #8
 8000898:	4770      	bx	lr
 800089a:	bf00      	nop

0800089c <MCI_GetTeref>:
 800089c:	6883      	ldr	r3, [r0, #8]
 800089e:	f9b3 001e 	ldrsh.w	r0, [r3, #30]
 80008a2:	4770      	bx	lr

080008a4 <MCI_SetIdref>:
 80008a4:	6883      	ldr	r3, [r0, #8]
 80008a6:	8259      	strh	r1, [r3, #18]
 80008a8:	8299      	strh	r1, [r3, #20]
 80008aa:	4770      	bx	lr

080008ac <MCI_Clear_Iqdref>:
 80008ac:	4603      	mov	r3, r0
 80008ae:	b510      	push	{r4, lr}
 80008b0:	e9d3 0401 	ldrd	r0, r4, [r3, #4]
 80008b4:	f006 ff5a 	bl	800776c <STC_GetDefaultIqdref>
 80008b8:	f3c0 430f 	ubfx	r3, r0, #16, #16
 80008bc:	8220      	strh	r0, [r4, #16]
 80008be:	8263      	strh	r3, [r4, #18]
 80008c0:	bd10      	pop	{r4, pc}
 80008c2:	bf00      	nop

080008c4 <MCM_Clarke>:
 80008c4:	f644 13e6 	movw	r3, #18918	; 0x49e6
 80008c8:	b202      	sxth	r2, r0
 80008ca:	1401      	asrs	r1, r0, #16
 80008cc:	fb03 f002 	mul.w	r0, r3, r2
 80008d0:	fb03 f301 	mul.w	r3, r3, r1
 80008d4:	4240      	negs	r0, r0
 80008d6:	eba0 0043 	sub.w	r0, r0, r3, lsl #1
 80008da:	13c0      	asrs	r0, r0, #15
 80008dc:	f5b0 4f00 	cmp.w	r0, #32768	; 0x8000
 80008e0:	b084      	sub	sp, #16
 80008e2:	da04      	bge.n	80008ee <MCM_Clarke+0x2a>
 80008e4:	f510 4f00 	cmn.w	r0, #32768	; 0x8000
 80008e8:	da0c      	bge.n	8000904 <MCM_Clarke+0x40>
 80008ea:	4b08      	ldr	r3, [pc, #32]	; (800090c <MCM_Clarke+0x48>)
 80008ec:	e001      	b.n	80008f2 <MCM_Clarke+0x2e>
 80008ee:	f647 73ff 	movw	r3, #32767	; 0x7fff
 80008f2:	2000      	movs	r0, #0
 80008f4:	b292      	uxth	r2, r2
 80008f6:	b29b      	uxth	r3, r3
 80008f8:	f362 000f 	bfi	r0, r2, #0, #16
 80008fc:	f363 401f 	bfi	r0, r3, #16, #16
 8000900:	b004      	add	sp, #16
 8000902:	4770      	bx	lr
 8000904:	b203      	sxth	r3, r0
 8000906:	d1f4      	bne.n	80008f2 <MCM_Clarke+0x2e>
 8000908:	e7ef      	b.n	80008ea <MCM_Clarke+0x26>
 800090a:	bf00      	nop
 800090c:	ffff8001 	.word	0xffff8001

08000910 <MCM_Trig_Functions>:
 8000910:	f500 4000 	add.w	r0, r0, #32768	; 0x8000
 8000914:	f3c0 1089 	ubfx	r0, r0, #6, #10
 8000918:	f400 7140 	and.w	r1, r0, #768	; 0x300
 800091c:	f5b1 7f80 	cmp.w	r1, #256	; 0x100
 8000920:	b082      	sub	sp, #8
 8000922:	d031      	beq.n	8000988 <MCM_Trig_Functions+0x78>
 8000924:	d921      	bls.n	800096a <MCM_Trig_Functions+0x5a>
 8000926:	f5b1 7f00 	cmp.w	r1, #512	; 0x200
 800092a:	d015      	beq.n	8000958 <MCM_Trig_Functions+0x48>
 800092c:	f5b1 7f40 	cmp.w	r1, #768	; 0x300
 8000930:	d109      	bne.n	8000946 <MCM_Trig_Functions+0x36>
 8000932:	b2c0      	uxtb	r0, r0
 8000934:	43c3      	mvns	r3, r0
 8000936:	491a      	ldr	r1, [pc, #104]	; (80009a0 <MCM_Trig_Functions+0x90>)
 8000938:	b2db      	uxtb	r3, r3
 800093a:	f831 2010 	ldrh.w	r2, [r1, r0, lsl #1]
 800093e:	f931 3013 	ldrsh.w	r3, [r1, r3, lsl #1]
 8000942:	4252      	negs	r2, r2
 8000944:	b212      	sxth	r2, r2
 8000946:	2000      	movs	r0, #0
 8000948:	b292      	uxth	r2, r2
 800094a:	b29b      	uxth	r3, r3
 800094c:	f362 000f 	bfi	r0, r2, #0, #16
 8000950:	f363 401f 	bfi	r0, r3, #16, #16
 8000954:	b002      	add	sp, #8
 8000956:	4770      	bx	lr
 8000958:	b2c0      	uxtb	r0, r0
 800095a:	43c3      	mvns	r3, r0
 800095c:	4910      	ldr	r1, [pc, #64]	; (80009a0 <MCM_Trig_Functions+0x90>)
 800095e:	b2db      	uxtb	r3, r3
 8000960:	f931 2013 	ldrsh.w	r2, [r1, r3, lsl #1]
 8000964:	f931 3010 	ldrsh.w	r3, [r1, r0, lsl #1]
 8000968:	e7ed      	b.n	8000946 <MCM_Trig_Functions+0x36>
 800096a:	2900      	cmp	r1, #0
 800096c:	d1eb      	bne.n	8000946 <MCM_Trig_Functions+0x36>
 800096e:	b2c0      	uxtb	r0, r0
 8000970:	43c3      	mvns	r3, r0
 8000972:	490b      	ldr	r1, [pc, #44]	; (80009a0 <MCM_Trig_Functions+0x90>)
 8000974:	b2db      	uxtb	r3, r3
 8000976:	f831 2013 	ldrh.w	r2, [r1, r3, lsl #1]
 800097a:	f831 3010 	ldrh.w	r3, [r1, r0, lsl #1]
 800097e:	4252      	negs	r2, r2
 8000980:	425b      	negs	r3, r3
 8000982:	b212      	sxth	r2, r2
 8000984:	b21b      	sxth	r3, r3
 8000986:	e7de      	b.n	8000946 <MCM_Trig_Functions+0x36>
 8000988:	b2c0      	uxtb	r0, r0
 800098a:	43c3      	mvns	r3, r0
 800098c:	4a04      	ldr	r2, [pc, #16]	; (80009a0 <MCM_Trig_Functions+0x90>)
 800098e:	b2db      	uxtb	r3, r3
 8000990:	f832 3013 	ldrh.w	r3, [r2, r3, lsl #1]
 8000994:	f932 2010 	ldrsh.w	r2, [r2, r0, lsl #1]
 8000998:	425b      	negs	r3, r3
 800099a:	b21b      	sxth	r3, r3
 800099c:	e7d3      	b.n	8000946 <MCM_Trig_Functions+0x36>
 800099e:	bf00      	nop
 80009a0:	08007cfc 	.word	0x08007cfc

080009a4 <MCM_Park>:
 80009a4:	b530      	push	{r4, r5, lr}
 80009a6:	b085      	sub	sp, #20
 80009a8:	9001      	str	r0, [sp, #4]
 80009aa:	b204      	sxth	r4, r0
 80009ac:	1405      	asrs	r5, r0, #16
 80009ae:	4608      	mov	r0, r1
 80009b0:	f7ff ffae 	bl	8000910 <MCM_Trig_Functions>
 80009b4:	b202      	sxth	r2, r0
 80009b6:	fb02 f304 	mul.w	r3, r2, r4
 80009ba:	1400      	asrs	r0, r0, #16
 80009bc:	fb00 3315 	mls	r3, r0, r5, r3
 80009c0:	13db      	asrs	r3, r3, #15
 80009c2:	f5b3 4f00 	cmp.w	r3, #32768	; 0x8000
 80009c6:	da04      	bge.n	80009d2 <MCM_Park+0x2e>
 80009c8:	f513 4f00 	cmn.w	r3, #32768	; 0x8000
 80009cc:	da1e      	bge.n	8000a0c <MCM_Park+0x68>
 80009ce:	4b11      	ldr	r3, [pc, #68]	; (8000a14 <MCM_Park+0x70>)
 80009d0:	e001      	b.n	80009d6 <MCM_Park+0x32>
 80009d2:	f647 73ff 	movw	r3, #32767	; 0x7fff
 80009d6:	fb05 f502 	mul.w	r5, r5, r2
 80009da:	fb00 5404 	mla	r4, r0, r4, r5
 80009de:	13e4      	asrs	r4, r4, #15
 80009e0:	f5b4 4f00 	cmp.w	r4, #32768	; 0x8000
 80009e4:	da04      	bge.n	80009f0 <MCM_Park+0x4c>
 80009e6:	f514 4f00 	cmn.w	r4, #32768	; 0x8000
 80009ea:	da0c      	bge.n	8000a06 <MCM_Park+0x62>
 80009ec:	4c09      	ldr	r4, [pc, #36]	; (8000a14 <MCM_Park+0x70>)
 80009ee:	e001      	b.n	80009f4 <MCM_Park+0x50>
 80009f0:	f647 74ff 	movw	r4, #32767	; 0x7fff
 80009f4:	2000      	movs	r0, #0
 80009f6:	b29b      	uxth	r3, r3
 80009f8:	b2a4      	uxth	r4, r4
 80009fa:	f363 000f 	bfi	r0, r3, #0, #16
 80009fe:	f364 401f 	bfi	r0, r4, #16, #16
 8000a02:	b005      	add	sp, #20
 8000a04:	bd30      	pop	{r4, r5, pc}
 8000a06:	b224      	sxth	r4, r4
 8000a08:	d1f4      	bne.n	80009f4 <MCM_Park+0x50>
 8000a0a:	e7ef      	b.n	80009ec <MCM_Park+0x48>
 8000a0c:	b21b      	sxth	r3, r3
 8000a0e:	d1e2      	bne.n	80009d6 <MCM_Park+0x32>
 8000a10:	e7dd      	b.n	80009ce <MCM_Park+0x2a>
 8000a12:	bf00      	nop
 8000a14:	ffff8001 	.word	0xffff8001

08000a18 <MCM_Rev_Park>:
 8000a18:	b530      	push	{r4, r5, lr}
 8000a1a:	b085      	sub	sp, #20
 8000a1c:	9001      	str	r0, [sp, #4]
 8000a1e:	b204      	sxth	r4, r0
 8000a20:	1405      	asrs	r5, r0, #16
 8000a22:	4608      	mov	r0, r1
 8000a24:	f7ff ff74 	bl	8000910 <MCM_Trig_Functions>
 8000a28:	4603      	mov	r3, r0
 8000a2a:	2000      	movs	r0, #0
 8000a2c:	141a      	asrs	r2, r3, #16
 8000a2e:	fb02 f105 	mul.w	r1, r2, r5
 8000a32:	b21b      	sxth	r3, r3
 8000a34:	fb05 f503 	mul.w	r5, r5, r3
 8000a38:	fb03 1304 	mla	r3, r3, r4, r1
 8000a3c:	fb02 5414 	mls	r4, r2, r4, r5
 8000a40:	f3c3 33cf 	ubfx	r3, r3, #15, #16
 8000a44:	f3c4 34cf 	ubfx	r4, r4, #15, #16
 8000a48:	f363 000f 	bfi	r0, r3, #0, #16
 8000a4c:	f364 401f 	bfi	r0, r4, #16, #16
 8000a50:	b005      	add	sp, #20
 8000a52:	bd30      	pop	{r4, r5, pc}

08000a54 <FOC_Clear>:
 8000a54:	2226      	movs	r2, #38	; 0x26
 8000a56:	b5f8      	push	{r3, r4, r5, r6, r7, lr}
 8000a58:	2400      	movs	r4, #0
 8000a5a:	4605      	mov	r5, r0
 8000a5c:	fb02 f200 	mul.w	r2, r2, r0
 8000a60:	4b13      	ldr	r3, [pc, #76]	; (8000ab0 <FOC_Clear+0x5c>)
 8000a62:	f102 010c 	add.w	r1, r2, #12
 8000a66:	18d6      	adds	r6, r2, r3
 8000a68:	f102 0716 	add.w	r7, r2, #22
 8000a6c:	4811      	ldr	r0, [pc, #68]	; (8000ab4 <FOC_Clear+0x60>)
 8000a6e:	50d4      	str	r4, [r2, r3]
 8000a70:	6074      	str	r4, [r6, #4]
 8000a72:	18fa      	adds	r2, r7, r3
 8000a74:	50cc      	str	r4, [r1, r3]
 8000a76:	4419      	add	r1, r3
 8000a78:	604c      	str	r4, [r1, #4]
 8000a7a:	f850 0025 	ldr.w	r0, [r0, r5, lsl #2]
 8000a7e:	83f4      	strh	r4, [r6, #30]
 8000a80:	4621      	mov	r1, r4
 8000a82:	50fc      	str	r4, [r7, r3]
 8000a84:	6054      	str	r4, [r2, #4]
 8000a86:	8434      	strh	r4, [r6, #32]
 8000a88:	f005 ffbe 	bl	8006a08 <PID_SetIntegralTerm>
 8000a8c:	4b0a      	ldr	r3, [pc, #40]	; (8000ab8 <FOC_Clear+0x64>)
 8000a8e:	4621      	mov	r1, r4
 8000a90:	f853 0025 	ldr.w	r0, [r3, r5, lsl #2]
 8000a94:	f005 ffb8 	bl	8006a08 <PID_SetIntegralTerm>
 8000a98:	4b08      	ldr	r3, [pc, #32]	; (8000abc <FOC_Clear+0x68>)
 8000a9a:	f853 0025 	ldr.w	r0, [r3, r5, lsl #2]
 8000a9e:	f006 fdc1 	bl	8007624 <STC_Clear>
 8000aa2:	4b07      	ldr	r3, [pc, #28]	; (8000ac0 <FOC_Clear+0x6c>)
 8000aa4:	f853 0025 	ldr.w	r0, [r3, r5, lsl #2]
 8000aa8:	e8bd 40f8 	ldmia.w	sp!, {r3, r4, r5, r6, r7, lr}
 8000aac:	f006 b990 	b.w	8006dd0 <PWMC_SwitchOffPWM>
 8000ab0:	2000207c 	.word	0x2000207c
 8000ab4:	20002070 	.word	0x20002070
 8000ab8:	2000212c 	.word	0x2000212c
 8000abc:	20002130 	.word	0x20002130
 8000ac0:	20002068 	.word	0x20002068

08000ac4 <MCboot>:
 8000ac4:	e92d 4ff0 	stmdb	sp!, {r4, r5, r6, r7, r8, r9, sl, fp, lr}
 8000ac8:	2400      	movs	r4, #0
 8000aca:	b087      	sub	sp, #28
 8000acc:	9002      	str	r0, [sp, #8]
 8000ace:	485d      	ldr	r0, [pc, #372]	; (8000c44 <MCboot+0x180>)
 8000ad0:	9103      	str	r1, [sp, #12]
 8000ad2:	f006 fe61 	bl	8007798 <STM_Init>
 8000ad6:	4b5c      	ldr	r3, [pc, #368]	; (8000c48 <MCboot+0x184>)
 8000ad8:	4a5c      	ldr	r2, [pc, #368]	; (8000c4c <MCboot+0x188>)
 8000ada:	495d      	ldr	r1, [pc, #372]	; (8000c50 <MCboot+0x18c>)
 8000adc:	4e5d      	ldr	r6, [pc, #372]	; (8000c54 <MCboot+0x190>)
 8000ade:	4d5e      	ldr	r5, [pc, #376]	; (8000c58 <MCboot+0x194>)
 8000ae0:	4f5e      	ldr	r7, [pc, #376]	; (8000c5c <MCboot+0x198>)
 8000ae2:	4618      	mov	r0, r3
 8000ae4:	6011      	str	r1, [r2, #0]
 8000ae6:	603b      	str	r3, [r7, #0]
 8000ae8:	702c      	strb	r4, [r5, #0]
 8000aea:	f006 faf7 	bl	80070dc <R3_2_Init>
 8000aee:	f006 f813 	bl	8006b18 <startTimers>
 8000af2:	4630      	mov	r0, r6
 8000af4:	f005 ff74 	bl	80069e0 <PID_HandleInit>
 8000af8:	4d59      	ldr	r5, [pc, #356]	; (8000c60 <MCboot+0x19c>)
 8000afa:	4b5a      	ldr	r3, [pc, #360]	; (8000c64 <MCboot+0x1a0>)
 8000afc:	f8df 9194 	ldr.w	r9, [pc, #404]	; 8000c94 <MCboot+0x1d0>
 8000b00:	f8df b194 	ldr.w	fp, [pc, #404]	; 8000c98 <MCboot+0x1d4>
 8000b04:	4858      	ldr	r0, [pc, #352]	; (8000c68 <MCboot+0x1a4>)
 8000b06:	602b      	str	r3, [r5, #0]
 8000b08:	f8c9 6000 	str.w	r6, [r9]
 8000b0c:	f005 fade 	bl	80060cc <HALL_Init>
 8000b10:	4e56      	ldr	r6, [pc, #344]	; (8000c6c <MCboot+0x1a8>)
 8000b12:	f8d9 1000 	ldr.w	r1, [r9]
 8000b16:	4a54      	ldr	r2, [pc, #336]	; (8000c68 <MCboot+0x1a4>)
 8000b18:	6828      	ldr	r0, [r5, #0]
 8000b1a:	f006 fd6d 	bl	80075f8 <STC_Init>
 8000b1e:	4658      	mov	r0, fp
 8000b20:	f005 ff5e 	bl	80069e0 <PID_HandleInit>
 8000b24:	4630      	mov	r0, r6
 8000b26:	f005 ff5b 	bl	80069e0 <PID_HandleInit>
 8000b2a:	4b51      	ldr	r3, [pc, #324]	; (8000c70 <MCboot+0x1ac>)
 8000b2c:	4951      	ldr	r1, [pc, #324]	; (8000c74 <MCboot+0x1b0>)
 8000b2e:	f8df 816c 	ldr.w	r8, [pc, #364]	; 8000c9c <MCboot+0x1d8>
 8000b32:	4a51      	ldr	r2, [pc, #324]	; (8000c78 <MCboot+0x1b4>)
 8000b34:	4618      	mov	r0, r3
 8000b36:	600e      	str	r6, [r1, #0]
 8000b38:	f8c2 b000 	str.w	fp, [r2]
 8000b3c:	f8c8 3000 	str.w	r3, [r8]
 8000b40:	f006 fcbe 	bl	80074c0 <RVBS_Init>
 8000b44:	4b4d      	ldr	r3, [pc, #308]	; (8000c7c <MCboot+0x1b8>)
 8000b46:	f8d8 2000 	ldr.w	r2, [r8]
 8000b4a:	f8df a154 	ldr.w	sl, [pc, #340]	; 8000ca0 <MCboot+0x1dc>
 8000b4e:	4e4c      	ldr	r6, [pc, #304]	; (8000c80 <MCboot+0x1bc>)
 8000b50:	f8c3 2110 	str.w	r2, [r3, #272]	; 0x110
 8000b54:	4a4b      	ldr	r2, [pc, #300]	; (8000c84 <MCboot+0x1c0>)
 8000b56:	4650      	mov	r0, sl
 8000b58:	4617      	mov	r7, r2
 8000b5a:	6013      	str	r3, [r2, #0]
 8000b5c:	f8c3 610c 	str.w	r6, [r3, #268]	; 0x10c
 8000b60:	f005 fef6 	bl	8006950 <NTC_Init>
 8000b64:	4b48      	ldr	r3, [pc, #288]	; (8000c88 <MCboot+0x1c4>)
 8000b66:	4a49      	ldr	r2, [pc, #292]	; (8000c8c <MCboot+0x1c8>)
 8000b68:	f8df b138 	ldr.w	fp, [pc, #312]	; 8000ca4 <MCboot+0x1e0>
 8000b6c:	4618      	mov	r0, r3
 8000b6e:	6013      	str	r3, [r2, #0]
 8000b70:	f8cb a000 	str.w	sl, [fp]
 8000b74:	f006 fcf2 	bl	800755c <REMNG_Init>
 8000b78:	4620      	mov	r0, r4
 8000b7a:	f7ff ff6b 	bl	8000a54 <FOC_Clear>
 8000b7e:	f04f 0c01 	mov.w	ip, #1
 8000b82:	6828      	ldr	r0, [r5, #0]
 8000b84:	f886 c024 	strb.w	ip, [r6, #36]	; 0x24
 8000b88:	f006 fdf0 	bl	800776c <STC_GetDefaultIqdref>
 8000b8c:	4603      	mov	r3, r0
 8000b8e:	f3c3 420f 	ubfx	r2, r3, #16, #16
 8000b92:	8233      	strh	r3, [r6, #16]
 8000b94:	8272      	strh	r2, [r6, #18]
 8000b96:	6828      	ldr	r0, [r5, #0]
 8000b98:	f006 fde8 	bl	800776c <STC_GetDefaultIqdref>
 8000b9c:	f8df c108 	ldr.w	ip, [pc, #264]	; 8000ca8 <MCboot+0x1e4>
 8000ba0:	f8df a108 	ldr.w	sl, [pc, #264]	; 8000cac <MCboot+0x1e8>
 8000ba4:	f3c0 400f 	ubfx	r0, r0, #16, #16
 8000ba8:	4633      	mov	r3, r6
 8000baa:	682a      	ldr	r2, [r5, #0]
 8000bac:	4925      	ldr	r1, [pc, #148]	; (8000c44 <MCboot+0x180>)
 8000bae:	82b0      	strh	r0, [r6, #20]
 8000bb0:	4660      	mov	r0, ip
 8000bb2:	f8ca c000 	str.w	ip, [sl]
 8000bb6:	f7ff fd9f 	bl	80006f8 <MCI_Init>
 8000bba:	6828      	ldr	r0, [r5, #0]
 8000bbc:	f8da 6000 	ldr.w	r6, [sl]
 8000bc0:	f006 fdca 	bl	8007758 <STC_GetMecSpeedRefUnitDefault>
 8000bc4:	4622      	mov	r2, r4
 8000bc6:	4601      	mov	r1, r0
 8000bc8:	4630      	mov	r0, r6
 8000bca:	f7ff fda1 	bl	8000710 <MCI_ExecSpeedRamp>
 8000bce:	f8d8 e000 	ldr.w	lr, [r8]
 8000bd2:	f8d7 8000 	ldr.w	r8, [r7]
 8000bd6:	9f02      	ldr	r7, [sp, #8]
 8000bd8:	f8d9 c000 	ldr.w	ip, [r9]
 8000bdc:	46b9      	mov	r9, r7
 8000bde:	f8da 0000 	ldr.w	r0, [sl]
 8000be2:	4e25      	ldr	r6, [pc, #148]	; (8000c78 <MCboot+0x1b4>)
 8000be4:	9001      	str	r0, [sp, #4]
 8000be6:	4b2a      	ldr	r3, [pc, #168]	; (8000c90 <MCboot+0x1cc>)
 8000be8:	6836      	ldr	r6, [r6, #0]
 8000bea:	9f01      	ldr	r7, [sp, #4]
 8000bec:	4921      	ldr	r1, [pc, #132]	; (8000c74 <MCboot+0x1b0>)
 8000bee:	4a1b      	ldr	r2, [pc, #108]	; (8000c5c <MCboot+0x198>)
 8000bf0:	6808      	ldr	r0, [r1, #0]
 8000bf2:	6811      	ldr	r1, [r2, #0]
 8000bf4:	682a      	ldr	r2, [r5, #0]
 8000bf6:	f8db 5000 	ldr.w	r5, [fp]
 8000bfa:	f8c9 7000 	str.w	r7, [r9]
 8000bfe:	e9c3 c600 	strd	ip, r6, [r3]
 8000c02:	f04f 0c01 	mov.w	ip, #1
 8000c06:	625a      	str	r2, [r3, #36]	; 0x24
 8000c08:	4a17      	ldr	r2, [pc, #92]	; (8000c68 <MCboot+0x1a4>)
 8000c0a:	6098      	str	r0, [r3, #8]
 8000c0c:	e9c3 2406 	strd	r2, r4, [r3, #24]
 8000c10:	4a0c      	ldr	r2, [pc, #48]	; (8000c44 <MCboot+0x180>)
 8000c12:	6119      	str	r1, [r3, #16]
 8000c14:	e9c3 5e0b 	strd	r5, lr, [r3, #44]	; 0x2c
 8000c18:	f8c3 803c 	str.w	r8, [r3, #60]	; 0x3c
 8000c1c:	60dc      	str	r4, [r3, #12]
 8000c1e:	615c      	str	r4, [r3, #20]
 8000c20:	621c      	str	r4, [r3, #32]
 8000c22:	629a      	str	r2, [r3, #40]	; 0x28
 8000c24:	e9c3 440d 	strd	r4, r4, [r3, #52]	; 0x34
 8000c28:	e9c3 4410 	strd	r4, r4, [r3, #64]	; 0x40
 8000c2c:	e9c3 4412 	strd	r4, r4, [r3, #72]	; 0x48
 8000c30:	9a03      	ldr	r2, [sp, #12]
 8000c32:	651c      	str	r4, [r3, #80]	; 0x50
 8000c34:	6013      	str	r3, [r2, #0]
 8000c36:	4b08      	ldr	r3, [pc, #32]	; (8000c58 <MCboot+0x194>)
 8000c38:	f883 c000 	strb.w	ip, [r3]
 8000c3c:	b007      	add	sp, #28
 8000c3e:	e8bd 8ff0 	ldmia.w	sp!, {r4, r5, r6, r7, r8, r9, sl, fp, pc}
 8000c42:	bf00      	nop
 8000c44:	2000211c 	.word	0x2000211c
 8000c48:	20000314 	.word	0x20000314
 8000c4c:	200020f8 	.word	0x200020f8
 8000c50:	20000000 	.word	0x20000000
 8000c54:	200001d4 	.word	0x200001d4
 8000c58:	200005b0 	.word	0x200005b0
 8000c5c:	20002068 	.word	0x20002068
 8000c60:	20002130 	.word	0x20002130
 8000c64:	200003cc 	.word	0x200003cc
 8000c68:	200000b4 	.word	0x200000b4
 8000c6c:	2000017c 	.word	0x2000017c
 8000c70:	200003a4 	.word	0x200003a4
 8000c74:	2000212c 	.word	0x2000212c
 8000c78:	20002070 	.word	0x20002070
 8000c7c:	20000200 	.word	0x20000200
 8000c80:	2000207c 	.word	0x2000207c
 8000c84:	20002128 	.word	0x20002128
 8000c88:	2000038c 	.word	0x2000038c
 8000c8c:	20002124 	.word	0x20002124
 8000c90:	200020a4 	.word	0x200020a4
 8000c94:	2000206c 	.word	0x2000206c
 8000c98:	200001a8 	.word	0x200001a8
 8000c9c:	200020fc 	.word	0x200020fc
 8000ca0:	20000400 	.word	0x20000400
 8000ca4:	20002064 	.word	0x20002064
 8000ca8:	20002100 	.word	0x20002100
 8000cac:	20002074 	.word	0x20002074

08000cb0 <FOC_InitAdditionalMethods>:
 8000cb0:	4770      	bx	lr
 8000cb2:	bf00      	nop

08000cb4 <FOC_CalcCurrRef>:
 8000cb4:	b510      	push	{r4, lr}
 8000cb6:	2426      	movs	r4, #38	; 0x26
 8000cb8:	4b07      	ldr	r3, [pc, #28]	; (8000cd8 <FOC_CalcCurrRef+0x24>)
 8000cba:	fb04 3400 	mla	r4, r4, r0, r3
 8000cbe:	f894 3024 	ldrb.w	r3, [r4, #36]	; 0x24
 8000cc2:	b103      	cbz	r3, 8000cc6 <FOC_CalcCurrRef+0x12>
 8000cc4:	bd10      	pop	{r4, pc}
 8000cc6:	4b05      	ldr	r3, [pc, #20]	; (8000cdc <FOC_CalcCurrRef+0x28>)
 8000cc8:	f853 0020 	ldr.w	r0, [r3, r0, lsl #2]
 8000ccc:	f006 fd14 	bl	80076f8 <STC_CalcTorqueReference>
 8000cd0:	83e0      	strh	r0, [r4, #30]
 8000cd2:	8220      	strh	r0, [r4, #16]
 8000cd4:	bd10      	pop	{r4, pc}
 8000cd6:	bf00      	nop
 8000cd8:	2000207c 	.word	0x2000207c
 8000cdc:	20002130 	.word	0x20002130

08000ce0 <TSK_SetChargeBootCapDelayM1>:
 8000ce0:	4b01      	ldr	r3, [pc, #4]	; (8000ce8 <TSK_SetChargeBootCapDelayM1+0x8>)
 8000ce2:	8018      	strh	r0, [r3, #0]
 8000ce4:	4770      	bx	lr
 8000ce6:	bf00      	nop
 8000ce8:	200005b2 	.word	0x200005b2

08000cec <TSK_ChargeBootCapDelayHasElapsedM1>:
 8000cec:	4b03      	ldr	r3, [pc, #12]	; (8000cfc <TSK_ChargeBootCapDelayHasElapsedM1+0x10>)
 8000cee:	8818      	ldrh	r0, [r3, #0]
 8000cf0:	b280      	uxth	r0, r0
 8000cf2:	fab0 f080 	clz	r0, r0
 8000cf6:	0940      	lsrs	r0, r0, #5
 8000cf8:	4770      	bx	lr
 8000cfa:	bf00      	nop
 8000cfc:	200005b2 	.word	0x200005b2

08000d00 <TSK_SetStopPermanencyTimeM1>:
 8000d00:	4b01      	ldr	r3, [pc, #4]	; (8000d08 <TSK_SetStopPermanencyTimeM1+0x8>)
 8000d02:	8018      	strh	r0, [r3, #0]
 8000d04:	4770      	bx	lr
 8000d06:	bf00      	nop
 8000d08:	200005b6 	.word	0x200005b6

08000d0c <TSK_StopPermanencyTimeHasElapsedM1>:
 8000d0c:	4b03      	ldr	r3, [pc, #12]	; (8000d1c <TSK_StopPermanencyTimeHasElapsedM1+0x10>)
 8000d0e:	8818      	ldrh	r0, [r3, #0]
 8000d10:	b280      	uxth	r0, r0
 8000d12:	fab0 f080 	clz	r0, r0
 8000d16:	0940      	lsrs	r0, r0, #5
 8000d18:	4770      	bx	lr
 8000d1a:	bf00      	nop
 8000d1c:	200005b6 	.word	0x200005b6

08000d20 <TSK_MediumFrequencyTaskM1>:
 8000d20:	2300      	movs	r3, #0
 8000d22:	b530      	push	{r4, r5, lr}
 8000d24:	b083      	sub	sp, #12
 8000d26:	a902      	add	r1, sp, #8
 8000d28:	f821 3d02 	strh.w	r3, [r1, #-2]!
 8000d2c:	484b      	ldr	r0, [pc, #300]	; (8000e5c <TSK_MediumFrequencyTaskM1+0x13c>)
 8000d2e:	f005 fb25 	bl	800637c <HALL_CalcAvrgMecSpeedUnit>
 8000d32:	4c4b      	ldr	r4, [pc, #300]	; (8000e60 <TSK_MediumFrequencyTaskM1+0x140>)
 8000d34:	4605      	mov	r5, r0
 8000d36:	6820      	ldr	r0, [r4, #0]
 8000d38:	f005 feb6 	bl	8006aa8 <PQD_CalcElMotorPower>
 8000d3c:	4849      	ldr	r0, [pc, #292]	; (8000e64 <TSK_MediumFrequencyTaskM1+0x144>)
 8000d3e:	f006 fdc1 	bl	80078c4 <STM_GetState>
 8000d42:	3803      	subs	r0, #3
 8000d44:	280f      	cmp	r0, #15
 8000d46:	d80d      	bhi.n	8000d64 <TSK_MediumFrequencyTaskM1+0x44>
 8000d48:	e8df f000 	tbb	[pc, r0]
 8000d4c:	43302b1f 	.word	0x43302b1f
 8000d50:	0c086552 	.word	0x0c086552
 8000d54:	0c0c0c0c 	.word	0x0c0c0c0c
 8000d58:	0e7c6e0c 	.word	0x0e7c6e0c
 8000d5c:	2100      	movs	r1, #0
 8000d5e:	4841      	ldr	r0, [pc, #260]	; (8000e64 <TSK_MediumFrequencyTaskM1+0x144>)
 8000d60:	f006 fd3c 	bl	80077dc <STM_NextState>
 8000d64:	b003      	add	sp, #12
 8000d66:	bd30      	pop	{r4, r5, pc}
 8000d68:	483c      	ldr	r0, [pc, #240]	; (8000e5c <TSK_MediumFrequencyTaskM1+0x13c>)
 8000d6a:	f005 fa3b 	bl	80061e4 <HALL_Clear>
 8000d6e:	2104      	movs	r1, #4
 8000d70:	483c      	ldr	r0, [pc, #240]	; (8000e64 <TSK_MediumFrequencyTaskM1+0x144>)
 8000d72:	f006 fd33 	bl	80077dc <STM_NextState>
 8000d76:	2800      	cmp	r0, #0
 8000d78:	d0f4      	beq.n	8000d64 <TSK_MediumFrequencyTaskM1+0x44>
 8000d7a:	2000      	movs	r0, #0
 8000d7c:	f7ff fe6a 	bl	8000a54 <FOC_Clear>
 8000d80:	4b39      	ldr	r3, [pc, #228]	; (8000e68 <TSK_MediumFrequencyTaskM1+0x148>)
 8000d82:	6818      	ldr	r0, [r3, #0]
 8000d84:	f006 fa1e 	bl	80071c4 <R3_2_SwitchOnPWM>
 8000d88:	e7ec      	b.n	8000d64 <TSK_MediumFrequencyTaskM1+0x44>
 8000d8a:	4b37      	ldr	r3, [pc, #220]	; (8000e68 <TSK_MediumFrequencyTaskM1+0x148>)
 8000d8c:	6818      	ldr	r0, [r3, #0]
 8000d8e:	f006 f9eb 	bl	8007168 <R3_2_TurnOnLowSides>
 8000d92:	2014      	movs	r0, #20
 8000d94:	f7ff ffa4 	bl	8000ce0 <TSK_SetChargeBootCapDelayM1>
 8000d98:	2110      	movs	r1, #16
 8000d9a:	4832      	ldr	r0, [pc, #200]	; (8000e64 <TSK_MediumFrequencyTaskM1+0x144>)
 8000d9c:	f006 fd1e 	bl	80077dc <STM_NextState>
 8000da0:	e7e0      	b.n	8000d64 <TSK_MediumFrequencyTaskM1+0x44>
 8000da2:	2105      	movs	r1, #5
 8000da4:	482f      	ldr	r0, [pc, #188]	; (8000e64 <TSK_MediumFrequencyTaskM1+0x144>)
 8000da6:	f006 fd19 	bl	80077dc <STM_NextState>
 8000daa:	e7db      	b.n	8000d64 <TSK_MediumFrequencyTaskM1+0x44>
 8000dac:	2000      	movs	r0, #0
 8000dae:	f7ff ff7f 	bl	8000cb0 <FOC_InitAdditionalMethods>
 8000db2:	2000      	movs	r0, #0
 8000db4:	f7ff ff7e 	bl	8000cb4 <FOC_CalcCurrRef>
 8000db8:	2106      	movs	r1, #6
 8000dba:	482a      	ldr	r0, [pc, #168]	; (8000e64 <TSK_MediumFrequencyTaskM1+0x144>)
 8000dbc:	f006 fd0e 	bl	80077dc <STM_NextState>
 8000dc0:	4b2a      	ldr	r3, [pc, #168]	; (8000e6c <TSK_MediumFrequencyTaskM1+0x14c>)
 8000dc2:	6818      	ldr	r0, [r3, #0]
 8000dc4:	f006 fce0 	bl	8007788 <STC_ForceSpeedReferenceToCurrentSpeed>
 8000dc8:	4b29      	ldr	r3, [pc, #164]	; (8000e70 <TSK_MediumFrequencyTaskM1+0x150>)
 8000dca:	6818      	ldr	r0, [r3, #0]
 8000dcc:	f7ff fcd8 	bl	8000780 <MCI_ExecBufferedCommands>
 8000dd0:	e7c8      	b.n	8000d64 <TSK_MediumFrequencyTaskM1+0x44>
 8000dd2:	4b27      	ldr	r3, [pc, #156]	; (8000e70 <TSK_MediumFrequencyTaskM1+0x150>)
 8000dd4:	6818      	ldr	r0, [r3, #0]
 8000dd6:	f7ff fcd3 	bl	8000780 <MCI_ExecBufferedCommands>
 8000dda:	2000      	movs	r0, #0
 8000ddc:	f7ff ff6a 	bl	8000cb4 <FOC_CalcCurrRef>
 8000de0:	2d00      	cmp	r5, #0
 8000de2:	d1bf      	bne.n	8000d64 <TSK_MediumFrequencyTaskM1+0x44>
 8000de4:	462a      	mov	r2, r5
 8000de6:	2120      	movs	r1, #32
 8000de8:	481e      	ldr	r0, [pc, #120]	; (8000e64 <TSK_MediumFrequencyTaskM1+0x144>)
 8000dea:	f006 fcdb 	bl	80077a4 <STM_FaultProcessing>
 8000dee:	e7b9      	b.n	8000d64 <TSK_MediumFrequencyTaskM1+0x44>
 8000df0:	4b1d      	ldr	r3, [pc, #116]	; (8000e68 <TSK_MediumFrequencyTaskM1+0x148>)
 8000df2:	6818      	ldr	r0, [r3, #0]
 8000df4:	f006 fa2e 	bl	8007254 <R3_2_SwitchOffPWM>
 8000df8:	2000      	movs	r0, #0
 8000dfa:	f7ff fe2b 	bl	8000a54 <FOC_Clear>
 8000dfe:	6820      	ldr	r0, [r4, #0]
 8000e00:	f005 fd66 	bl	80068d0 <MPM_Clear>
 8000e04:	f44f 7048 	mov.w	r0, #800	; 0x320
 8000e08:	f7ff ff7a 	bl	8000d00 <TSK_SetStopPermanencyTimeM1>
 8000e0c:	2108      	movs	r1, #8
 8000e0e:	4815      	ldr	r0, [pc, #84]	; (8000e64 <TSK_MediumFrequencyTaskM1+0x144>)
 8000e10:	f006 fce4 	bl	80077dc <STM_NextState>
 8000e14:	e7a6      	b.n	8000d64 <TSK_MediumFrequencyTaskM1+0x44>
 8000e16:	f7ff ff79 	bl	8000d0c <TSK_StopPermanencyTimeHasElapsedM1>
 8000e1a:	2800      	cmp	r0, #0
 8000e1c:	d0a2      	beq.n	8000d64 <TSK_MediumFrequencyTaskM1+0x44>
 8000e1e:	2109      	movs	r1, #9
 8000e20:	4810      	ldr	r0, [pc, #64]	; (8000e64 <TSK_MediumFrequencyTaskM1+0x144>)
 8000e22:	f006 fcdb 	bl	80077dc <STM_NextState>
 8000e26:	e79d      	b.n	8000d64 <TSK_MediumFrequencyTaskM1+0x44>
 8000e28:	f7ff ff60 	bl	8000cec <TSK_ChargeBootCapDelayHasElapsedM1>
 8000e2c:	2800      	cmp	r0, #0
 8000e2e:	d099      	beq.n	8000d64 <TSK_MediumFrequencyTaskM1+0x44>
 8000e30:	4b0d      	ldr	r3, [pc, #52]	; (8000e68 <TSK_MediumFrequencyTaskM1+0x148>)
 8000e32:	2100      	movs	r1, #0
 8000e34:	6818      	ldr	r0, [r3, #0]
 8000e36:	f005 ffcd 	bl	8006dd4 <PWMC_CurrentReadingCalibr>
 8000e3a:	2111      	movs	r1, #17
 8000e3c:	4809      	ldr	r0, [pc, #36]	; (8000e64 <TSK_MediumFrequencyTaskM1+0x144>)
 8000e3e:	f006 fccd 	bl	80077dc <STM_NextState>
 8000e42:	e78f      	b.n	8000d64 <TSK_MediumFrequencyTaskM1+0x44>
 8000e44:	4b08      	ldr	r3, [pc, #32]	; (8000e68 <TSK_MediumFrequencyTaskM1+0x148>)
 8000e46:	2101      	movs	r1, #1
 8000e48:	6818      	ldr	r0, [r3, #0]
 8000e4a:	f005 ffc3 	bl	8006dd4 <PWMC_CurrentReadingCalibr>
 8000e4e:	2800      	cmp	r0, #0
 8000e50:	d088      	beq.n	8000d64 <TSK_MediumFrequencyTaskM1+0x44>
 8000e52:	2112      	movs	r1, #18
 8000e54:	4803      	ldr	r0, [pc, #12]	; (8000e64 <TSK_MediumFrequencyTaskM1+0x144>)
 8000e56:	f006 fcc1 	bl	80077dc <STM_NextState>
 8000e5a:	e783      	b.n	8000d64 <TSK_MediumFrequencyTaskM1+0x44>
 8000e5c:	200000b4 	.word	0x200000b4
 8000e60:	20002128 	.word	0x20002128
 8000e64:	2000211c 	.word	0x2000211c
 8000e68:	20002068 	.word	0x20002068
 8000e6c:	20002130 	.word	0x20002130
 8000e70:	20002074 	.word	0x20002074

08000e74 <MC_Scheduler>:
 8000e74:	b538      	push	{r3, r4, r5, lr}
 8000e76:	4b12      	ldr	r3, [pc, #72]	; (8000ec0 <MC_Scheduler+0x4c>)
 8000e78:	781c      	ldrb	r4, [r3, #0]
 8000e7a:	2c01      	cmp	r4, #1
 8000e7c:	d000      	beq.n	8000e80 <MC_Scheduler+0xc>
 8000e7e:	bd38      	pop	{r3, r4, r5, pc}
 8000e80:	4d10      	ldr	r5, [pc, #64]	; (8000ec4 <MC_Scheduler+0x50>)
 8000e82:	882b      	ldrh	r3, [r5, #0]
 8000e84:	b29b      	uxth	r3, r3
 8000e86:	b1b3      	cbz	r3, 8000eb6 <MC_Scheduler+0x42>
 8000e88:	882b      	ldrh	r3, [r5, #0]
 8000e8a:	3b01      	subs	r3, #1
 8000e8c:	b29b      	uxth	r3, r3
 8000e8e:	802b      	strh	r3, [r5, #0]
 8000e90:	4a0d      	ldr	r2, [pc, #52]	; (8000ec8 <MC_Scheduler+0x54>)
 8000e92:	8813      	ldrh	r3, [r2, #0]
 8000e94:	b29b      	uxth	r3, r3
 8000e96:	b94b      	cbnz	r3, 8000eac <MC_Scheduler+0x38>
 8000e98:	4a0c      	ldr	r2, [pc, #48]	; (8000ecc <MC_Scheduler+0x58>)
 8000e9a:	8813      	ldrh	r3, [r2, #0]
 8000e9c:	b29b      	uxth	r3, r3
 8000e9e:	2b00      	cmp	r3, #0
 8000ea0:	d0ed      	beq.n	8000e7e <MC_Scheduler+0xa>
 8000ea2:	8813      	ldrh	r3, [r2, #0]
 8000ea4:	3b01      	subs	r3, #1
 8000ea6:	b29b      	uxth	r3, r3
 8000ea8:	8013      	strh	r3, [r2, #0]
 8000eaa:	bd38      	pop	{r3, r4, r5, pc}
 8000eac:	8813      	ldrh	r3, [r2, #0]
 8000eae:	3b01      	subs	r3, #1
 8000eb0:	b29b      	uxth	r3, r3
 8000eb2:	8013      	strh	r3, [r2, #0]
 8000eb4:	e7f0      	b.n	8000e98 <MC_Scheduler+0x24>
 8000eb6:	f7ff ff33 	bl	8000d20 <TSK_MediumFrequencyTaskM1>
 8000eba:	802c      	strh	r4, [r5, #0]
 8000ebc:	e7e8      	b.n	8000e90 <MC_Scheduler+0x1c>
 8000ebe:	bf00      	nop
 8000ec0:	200005b0 	.word	0x200005b0
 8000ec4:	200005b4 	.word	0x200005b4
 8000ec8:	200005b2 	.word	0x200005b2
 8000ecc:	200005b6 	.word	0x200005b6

08000ed0 <MC_RunMotorControlTasks>:
 8000ed0:	b508      	push	{r3, lr}
 8000ed2:	4b05      	ldr	r3, [pc, #20]	; (8000ee8 <MC_RunMotorControlTasks+0x18>)
 8000ed4:	781b      	ldrb	r3, [r3, #0]
 8000ed6:	b903      	cbnz	r3, 8000eda <MC_RunMotorControlTasks+0xa>
 8000ed8:	bd08      	pop	{r3, pc}
 8000eda:	f7ff ffcb 	bl	8000e74 <MC_Scheduler>
 8000ede:	e8bd 4008 	ldmia.w	sp!, {r3, lr}
 8000ee2:	f001 b89d 	b.w	8002020 <UI_Scheduler>
 8000ee6:	bf00      	nop
 8000ee8:	200005b0 	.word	0x200005b0

08000eec <TSK_HighFrequencyTask>:
 8000eec:	e92d 41f0 	stmdb	sp!, {r4, r5, r6, r7, r8, lr}
 8000ef0:	4832      	ldr	r0, [pc, #200]	; (8000fbc <TSK_HighFrequencyTask+0xd0>)
 8000ef2:	b086      	sub	sp, #24
 8000ef4:	f005 fa22 	bl	800633c <HALL_CalcElAngle>
 8000ef8:	4b31      	ldr	r3, [pc, #196]	; (8000fc0 <TSK_HighFrequencyTask+0xd4>)
 8000efa:	4f32      	ldr	r7, [pc, #200]	; (8000fc4 <TSK_HighFrequencyTask+0xd8>)
 8000efc:	6818      	ldr	r0, [r3, #0]
 8000efe:	f006 fb8f 	bl	8007620 <STC_GetSpeedSensor>
 8000f02:	4605      	mov	r5, r0
 8000f04:	f006 fb32 	bl	800756c <SPD_GetElAngle>
 8000f08:	a903      	add	r1, sp, #12
 8000f0a:	4606      	mov	r6, r0
 8000f0c:	6838      	ldr	r0, [r7, #0]
 8000f0e:	f005 fe57 	bl	8006bc0 <PWMC_GetPhaseCurrents>
 8000f12:	9803      	ldr	r0, [sp, #12]
 8000f14:	f7ff fcd6 	bl	80008c4 <MCM_Clarke>
 8000f18:	4631      	mov	r1, r6
 8000f1a:	9004      	str	r0, [sp, #16]
 8000f1c:	f7ff fd42 	bl	80009a4 <MCM_Park>
 8000f20:	4603      	mov	r3, r0
 8000f22:	4c29      	ldr	r4, [pc, #164]	; (8000fc8 <TSK_HighFrequencyTask+0xdc>)
 8000f24:	4a29      	ldr	r2, [pc, #164]	; (8000fcc <TSK_HighFrequencyTask+0xe0>)
 8000f26:	f9b4 0010 	ldrsh.w	r0, [r4, #16]
 8000f2a:	b219      	sxth	r1, r3
 8000f2c:	1a41      	subs	r1, r0, r1
 8000f2e:	6810      	ldr	r0, [r2, #0]
 8000f30:	9301      	str	r3, [sp, #4]
 8000f32:	f005 fd75 	bl	8006a20 <PI_Controller>
 8000f36:	f9bd 2006 	ldrsh.w	r2, [sp, #6]
 8000f3a:	4b25      	ldr	r3, [pc, #148]	; (8000fd0 <TSK_HighFrequencyTask+0xe4>)
 8000f3c:	f9b4 1012 	ldrsh.w	r1, [r4, #18]
 8000f40:	4680      	mov	r8, r0
 8000f42:	1a89      	subs	r1, r1, r2
 8000f44:	6818      	ldr	r0, [r3, #0]
 8000f46:	f005 fd6b 	bl	8006a20 <PI_Controller>
 8000f4a:	4b22      	ldr	r3, [pc, #136]	; (8000fd4 <TSK_HighFrequencyTask+0xe8>)
 8000f4c:	f8ad 8008 	strh.w	r8, [sp, #8]
 8000f50:	681b      	ldr	r3, [r3, #0]
 8000f52:	f8ad 000a 	strh.w	r0, [sp, #10]
 8000f56:	9902      	ldr	r1, [sp, #8]
 8000f58:	4618      	mov	r0, r3
 8000f5a:	f005 f859 	bl	8006010 <Circle_Limitation>
 8000f5e:	4603      	mov	r3, r0
 8000f60:	4628      	mov	r0, r5
 8000f62:	fa0f f883 	sxth.w	r8, r3
 8000f66:	141d      	asrs	r5, r3, #16
 8000f68:	9302      	str	r3, [sp, #8]
 8000f6a:	f006 fb07 	bl	800757c <SPD_GetInstElSpeedDpp>
 8000f6e:	4631      	mov	r1, r6
 8000f70:	9802      	ldr	r0, [sp, #8]
 8000f72:	f7ff fd51 	bl	8000a18 <MCM_Rev_Park>
 8000f76:	4603      	mov	r3, r0
 8000f78:	6838      	ldr	r0, [r7, #0]
 8000f7a:	4619      	mov	r1, r3
 8000f7c:	9305      	str	r3, [sp, #20]
 8000f7e:	f005 fe21 	bl	8006bc4 <PWMC_SetPhaseVoltage>
 8000f82:	4601      	mov	r1, r0
 8000f84:	9803      	ldr	r0, [sp, #12]
 8000f86:	2901      	cmp	r1, #1
 8000f88:	6020      	str	r0, [r4, #0]
 8000f8a:	9804      	ldr	r0, [sp, #16]
 8000f8c:	f8a4 8016 	strh.w	r8, [r4, #22]
 8000f90:	6060      	str	r0, [r4, #4]
 8000f92:	9801      	ldr	r0, [sp, #4]
 8000f94:	8325      	strh	r5, [r4, #24]
 8000f96:	60e0      	str	r0, [r4, #12]
 8000f98:	9805      	ldr	r0, [sp, #20]
 8000f9a:	8426      	strh	r6, [r4, #32]
 8000f9c:	f8c4 001a 	str.w	r0, [r4, #26]
 8000fa0:	d003      	beq.n	8000faa <TSK_HighFrequencyTask+0xbe>
 8000fa2:	2000      	movs	r0, #0
 8000fa4:	b006      	add	sp, #24
 8000fa6:	e8bd 81f0 	ldmia.w	sp!, {r4, r5, r6, r7, r8, pc}
 8000faa:	2200      	movs	r2, #0
 8000fac:	480a      	ldr	r0, [pc, #40]	; (8000fd8 <TSK_HighFrequencyTask+0xec>)
 8000fae:	f006 fbf9 	bl	80077a4 <STM_FaultProcessing>
 8000fb2:	2000      	movs	r0, #0
 8000fb4:	b006      	add	sp, #24
 8000fb6:	e8bd 81f0 	ldmia.w	sp!, {r4, r5, r6, r7, r8, pc}
 8000fba:	bf00      	nop
 8000fbc:	200000b4 	.word	0x200000b4
 8000fc0:	20002130 	.word	0x20002130
 8000fc4:	20002068 	.word	0x20002068
 8000fc8:	2000207c 	.word	0x2000207c
 8000fcc:	20002070 	.word	0x20002070
 8000fd0:	2000212c 	.word	0x2000212c
 8000fd4:	200020f8 	.word	0x200020f8
 8000fd8:	2000211c 	.word	0x2000211c

08000fdc <TSK_SafetyTask_PWMOFF>:
 8000fdc:	b5f8      	push	{r3, r4, r5, r6, r7, lr}
 8000fde:	4b20      	ldr	r3, [pc, #128]	; (8001060 <TSK_SafetyTask_PWMOFF+0x84>)
 8000fe0:	4605      	mov	r5, r0
 8000fe2:	f853 0020 	ldr.w	r0, [r3, r0, lsl #2]
 8000fe6:	f005 fcc5 	bl	8006974 <NTC_CalcAvTemp>
 8000fea:	4f1e      	ldr	r7, [pc, #120]	; (8001064 <TSK_SafetyTask_PWMOFF+0x88>)
 8000fec:	4604      	mov	r4, r0
 8000fee:	f857 0025 	ldr.w	r0, [r7, r5, lsl #2]
 8000ff2:	f005 ff19 	bl	8006e28 <PWMC_CheckOverCurrent>
 8000ff6:	f004 040e 	and.w	r4, r4, #14
 8000ffa:	4304      	orrs	r4, r0
 8000ffc:	b2a4      	uxth	r4, r4
 8000ffe:	b335      	cbz	r5, 800104e <TSK_SafetyTask_PWMOFF+0x72>
 8001000:	43e2      	mvns	r2, r4
 8001002:	4e19      	ldr	r6, [pc, #100]	; (8001068 <TSK_SafetyTask_PWMOFF+0x8c>)
 8001004:	eb05 0345 	add.w	r3, r5, r5, lsl #1
 8001008:	eb06 0643 	add.w	r6, r6, r3, lsl #1
 800100c:	b292      	uxth	r2, r2
 800100e:	4621      	mov	r1, r4
 8001010:	4630      	mov	r0, r6
 8001012:	f006 fbc7 	bl	80077a4 <STM_FaultProcessing>
 8001016:	4630      	mov	r0, r6
 8001018:	f006 fc54 	bl	80078c4 <STM_GetState>
 800101c:	280a      	cmp	r0, #10
 800101e:	d008      	beq.n	8001032 <TSK_SafetyTask_PWMOFF+0x56>
 8001020:	280b      	cmp	r0, #11
 8001022:	d105      	bne.n	8001030 <TSK_SafetyTask_PWMOFF+0x54>
 8001024:	f857 0025 	ldr.w	r0, [r7, r5, lsl #2]
 8001028:	e8bd 40f8 	ldmia.w	sp!, {r3, r4, r5, r6, r7, lr}
 800102c:	f005 bed0 	b.w	8006dd0 <PWMC_SwitchOffPWM>
 8001030:	bdf8      	pop	{r3, r4, r5, r6, r7, pc}
 8001032:	f857 0025 	ldr.w	r0, [r7, r5, lsl #2]
 8001036:	f005 fecb 	bl	8006dd0 <PWMC_SwitchOffPWM>
 800103a:	4628      	mov	r0, r5
 800103c:	f7ff fd0a 	bl	8000a54 <FOC_Clear>
 8001040:	4b0a      	ldr	r3, [pc, #40]	; (800106c <TSK_SafetyTask_PWMOFF+0x90>)
 8001042:	f853 0025 	ldr.w	r0, [r3, r5, lsl #2]
 8001046:	e8bd 40f8 	ldmia.w	sp!, {r3, r4, r5, r6, r7, lr}
 800104a:	f005 bc41 	b.w	80068d0 <MPM_Clear>
 800104e:	4b08      	ldr	r3, [pc, #32]	; (8001070 <TSK_SafetyTask_PWMOFF+0x94>)
 8001050:	6818      	ldr	r0, [r3, #0]
 8001052:	f006 fa4d 	bl	80074f0 <RVBS_CalcAvVbus>
 8001056:	f000 000e 	and.w	r0, r0, #14
 800105a:	4304      	orrs	r4, r0
 800105c:	e7d0      	b.n	8001000 <TSK_SafetyTask_PWMOFF+0x24>
 800105e:	bf00      	nop
 8001060:	20002064 	.word	0x20002064
 8001064:	20002068 	.word	0x20002068
 8001068:	2000211c 	.word	0x2000211c
 800106c:	20002128 	.word	0x20002128
 8001070:	200020fc 	.word	0x200020fc

08001074 <TSK_SafetyTask>:
 8001074:	b508      	push	{r3, lr}
 8001076:	4b06      	ldr	r3, [pc, #24]	; (8001090 <TSK_SafetyTask+0x1c>)
 8001078:	781b      	ldrb	r3, [r3, #0]
 800107a:	2b01      	cmp	r3, #1
 800107c:	d000      	beq.n	8001080 <TSK_SafetyTask+0xc>
 800107e:	bd08      	pop	{r3, pc}
 8001080:	2000      	movs	r0, #0
 8001082:	f7ff ffab 	bl	8000fdc <TSK_SafetyTask_PWMOFF>
 8001086:	e8bd 4008 	ldmia.w	sp!, {r3, lr}
 800108a:	f000 bcdf 	b.w	8001a4c <RCM_ExecUserConv>
 800108e:	bf00      	nop
 8001090:	200005b0 	.word	0x200005b0

08001094 <TSK_HardwareFaultTask>:
 8001094:	b508      	push	{r3, lr}
 8001096:	4b05      	ldr	r3, [pc, #20]	; (80010ac <TSK_HardwareFaultTask+0x18>)
 8001098:	6818      	ldr	r0, [r3, #0]
 800109a:	f006 f8db 	bl	8007254 <R3_2_SwitchOffPWM>
 800109e:	e8bd 4008 	ldmia.w	sp!, {r3, lr}
 80010a2:	2200      	movs	r2, #0
 80010a4:	2180      	movs	r1, #128	; 0x80
 80010a6:	4802      	ldr	r0, [pc, #8]	; (80010b0 <TSK_HardwareFaultTask+0x1c>)
 80010a8:	f006 bb7c 	b.w	80077a4 <STM_FaultProcessing>
 80010ac:	20002068 	.word	0x20002068
 80010b0:	2000211c 	.word	0x2000211c

080010b4 <startMediumFrequencyTask>:
 80010b4:	b508      	push	{r3, lr}
 80010b6:	2001      	movs	r0, #1
 80010b8:	f004 fbea 	bl	8005890 <vTaskDelay>
 80010bc:	f7ff ff08 	bl	8000ed0 <MC_RunMotorControlTasks>
 80010c0:	e7f9      	b.n	80010b6 <startMediumFrequencyTask+0x2>
 80010c2:	bf00      	nop

080010c4 <StartSafetyTask>:
 80010c4:	b508      	push	{r3, lr}
 80010c6:	2001      	movs	r0, #1
 80010c8:	f004 fbe2 	bl	8005890 <vTaskDelay>
 80010cc:	f7ff ffd2 	bl	8001074 <TSK_SafetyTask>
 80010d0:	e7f9      	b.n	80010c6 <StartSafetyTask+0x2>
 80010d2:	bf00      	nop

080010d4 <mc_lock_pins>:
 80010d4:	f44f 3180 	mov.w	r1, #65536	; 0x10000
 80010d8:	2000      	movs	r0, #0
 80010da:	e92d 43f0 	stmdb	sp!, {r4, r5, r6, r7, r8, r9, lr}
 80010de:	f04f 1401 	mov.w	r4, #65537	; 0x10001
 80010e2:	f04f 0801 	mov.w	r8, #1
 80010e6:	f04f 0e02 	mov.w	lr, #2
 80010ea:	f04f 0c40 	mov.w	ip, #64	; 0x40
 80010ee:	2704      	movs	r7, #4
 80010f0:	4a33      	ldr	r2, [pc, #204]	; (80011c0 <mc_lock_pins+0xec>)
 80010f2:	2680      	movs	r6, #128	; 0x80
 80010f4:	6191      	str	r1, [r2, #24]
 80010f6:	6190      	str	r0, [r2, #24]
 80010f8:	6191      	str	r1, [r2, #24]
 80010fa:	6993      	ldr	r3, [r2, #24]
 80010fc:	b08f      	sub	sp, #60	; 0x3c
 80010fe:	930d      	str	r3, [sp, #52]	; 0x34
 8001100:	9b0d      	ldr	r3, [sp, #52]	; 0x34
 8001102:	2520      	movs	r5, #32
 8001104:	6191      	str	r1, [r2, #24]
 8001106:	6190      	str	r0, [r2, #24]
 8001108:	6191      	str	r1, [r2, #24]
 800110a:	6993      	ldr	r3, [r2, #24]
 800110c:	930c      	str	r3, [sp, #48]	; 0x30
 800110e:	9b0c      	ldr	r3, [sp, #48]	; 0x30
 8001110:	6191      	str	r1, [r2, #24]
 8001112:	6190      	str	r0, [r2, #24]
 8001114:	6191      	str	r1, [r2, #24]
 8001116:	6993      	ldr	r3, [r2, #24]
 8001118:	930b      	str	r3, [sp, #44]	; 0x2c
 800111a:	4b2a      	ldr	r3, [pc, #168]	; (80011c4 <mc_lock_pins+0xf0>)
 800111c:	f8dd 902c 	ldr.w	r9, [sp, #44]	; 0x2c
 8001120:	619c      	str	r4, [r3, #24]
 8001122:	f8c3 8018 	str.w	r8, [r3, #24]
 8001126:	619c      	str	r4, [r3, #24]
 8001128:	699c      	ldr	r4, [r3, #24]
 800112a:	940a      	str	r4, [sp, #40]	; 0x28
 800112c:	4c26      	ldr	r4, [pc, #152]	; (80011c8 <mc_lock_pins+0xf4>)
 800112e:	f8dd 8028 	ldr.w	r8, [sp, #40]	; 0x28
 8001132:	619c      	str	r4, [r3, #24]
 8001134:	f8c3 e018 	str.w	lr, [r3, #24]
 8001138:	619c      	str	r4, [r3, #24]
 800113a:	699c      	ldr	r4, [r3, #24]
 800113c:	9409      	str	r4, [sp, #36]	; 0x24
 800113e:	4c23      	ldr	r4, [pc, #140]	; (80011cc <mc_lock_pins+0xf8>)
 8001140:	f8dd e024 	ldr.w	lr, [sp, #36]	; 0x24
 8001144:	6194      	str	r4, [r2, #24]
 8001146:	f8c2 c018 	str.w	ip, [r2, #24]
 800114a:	6194      	str	r4, [r2, #24]
 800114c:	6994      	ldr	r4, [r2, #24]
 800114e:	9408      	str	r4, [sp, #32]
 8001150:	4c1f      	ldr	r4, [pc, #124]	; (80011d0 <mc_lock_pins+0xfc>)
 8001152:	f8dd c020 	ldr.w	ip, [sp, #32]
 8001156:	619c      	str	r4, [r3, #24]
 8001158:	619f      	str	r7, [r3, #24]
 800115a:	619c      	str	r4, [r3, #24]
 800115c:	699f      	ldr	r7, [r3, #24]
 800115e:	347c      	adds	r4, #124	; 0x7c
 8001160:	9707      	str	r7, [sp, #28]
 8001162:	9f07      	ldr	r7, [sp, #28]
 8001164:	6194      	str	r4, [r2, #24]
 8001166:	6196      	str	r6, [r2, #24]
 8001168:	6194      	str	r4, [r2, #24]
 800116a:	6996      	ldr	r6, [r2, #24]
 800116c:	3c60      	subs	r4, #96	; 0x60
 800116e:	9606      	str	r6, [sp, #24]
 8001170:	9e06      	ldr	r6, [sp, #24]
 8001172:	6194      	str	r4, [r2, #24]
 8001174:	6195      	str	r5, [r2, #24]
 8001176:	6194      	str	r4, [r2, #24]
 8001178:	6992      	ldr	r2, [r2, #24]
 800117a:	9205      	str	r2, [sp, #20]
 800117c:	9a05      	ldr	r2, [sp, #20]
 800117e:	6199      	str	r1, [r3, #24]
 8001180:	6198      	str	r0, [r3, #24]
 8001182:	6199      	str	r1, [r3, #24]
 8001184:	699a      	ldr	r2, [r3, #24]
 8001186:	9204      	str	r2, [sp, #16]
 8001188:	9a04      	ldr	r2, [sp, #16]
 800118a:	6199      	str	r1, [r3, #24]
 800118c:	6198      	str	r0, [r3, #24]
 800118e:	6199      	str	r1, [r3, #24]
 8001190:	699a      	ldr	r2, [r3, #24]
 8001192:	9203      	str	r2, [sp, #12]
 8001194:	9a03      	ldr	r2, [sp, #12]
 8001196:	6199      	str	r1, [r3, #24]
 8001198:	6198      	str	r0, [r3, #24]
 800119a:	6199      	str	r1, [r3, #24]
 800119c:	699a      	ldr	r2, [r3, #24]
 800119e:	9202      	str	r2, [sp, #8]
 80011a0:	9a02      	ldr	r2, [sp, #8]
 80011a2:	6199      	str	r1, [r3, #24]
 80011a4:	6198      	str	r0, [r3, #24]
 80011a6:	6199      	str	r1, [r3, #24]
 80011a8:	699a      	ldr	r2, [r3, #24]
 80011aa:	9201      	str	r2, [sp, #4]
 80011ac:	9a01      	ldr	r2, [sp, #4]
 80011ae:	6199      	str	r1, [r3, #24]
 80011b0:	6198      	str	r0, [r3, #24]
 80011b2:	6199      	str	r1, [r3, #24]
 80011b4:	699b      	ldr	r3, [r3, #24]
 80011b6:	9300      	str	r3, [sp, #0]
 80011b8:	9b00      	ldr	r3, [sp, #0]
 80011ba:	b00f      	add	sp, #60	; 0x3c
 80011bc:	e8bd 83f0 	ldmia.w	sp!, {r4, r5, r6, r7, r8, r9, pc}
 80011c0:	40010c00 	.word	0x40010c00
 80011c4:	40010800 	.word	0x40010800
 80011c8:	00010002 	.word	0x00010002
 80011cc:	00010040 	.word	0x00010040
 80011d0:	00010004 	.word	0x00010004

080011d4 <MCP_ReceivedFrame>:
 80011d4:	b5f0      	push	{r4, r5, r6, r7, lr}
 80011d6:	460c      	mov	r4, r1
 80011d8:	2100      	movs	r1, #0
 80011da:	b08d      	sub	sp, #52	; 0x34
 80011dc:	4616      	mov	r6, r2
 80011de:	0962      	lsrs	r2, r4, #5
 80011e0:	461f      	mov	r7, r3
 80011e2:	f88d 1009 	strb.w	r1, [sp, #9]
 80011e6:	4605      	mov	r5, r0
 80011e8:	d122      	bne.n	8001230 <MCP_ReceivedFrame+0x5c>
 80011ea:	2c12      	cmp	r4, #18
 80011ec:	d814      	bhi.n	8001218 <MCP_ReceivedFrame+0x44>
 80011ee:	e8df f014 	tbh	[pc, r4, lsl #1]
 80011f2:	0016      	.short	0x0016
 80011f4:	00de004c 	.word	0x00de004c
 80011f8:	00130170 	.word	0x00130170
 80011fc:	017a0013 	.word	0x017a0013
 8001200:	01b601a1 	.word	0x01b601a1
 8001204:	020b01e9 	.word	0x020b01e9
 8001208:	0233021c 	.word	0x0233021c
 800120c:	00130257 	.word	0x00130257
 8001210:	00130013 	.word	0x00130013
 8001214:	00160013 	.word	0x00160013
 8001218:	2301      	movs	r3, #1
 800121a:	f88d 300e 	strb.w	r3, [sp, #14]
 800121e:	e9d5 0406 	ldrd	r0, r4, [r5, #24]
 8001222:	2301      	movs	r3, #1
 8001224:	f10d 020e 	add.w	r2, sp, #14
 8001228:	21ff      	movs	r1, #255	; 0xff
 800122a:	47a0      	blx	r4
 800122c:	b00d      	add	sp, #52	; 0x34
 800122e:	bdf0      	pop	{r4, r5, r6, r7, pc}
 8001230:	3a01      	subs	r2, #1
 8001232:	f000 ff35 	bl	80020a0 <UI_SetReg>
 8001236:	b1c8      	cbz	r0, 800126c <MCP_ReceivedFrame+0x98>
 8001238:	f004 041f 	and.w	r4, r4, #31
 800123c:	2c12      	cmp	r4, #18
 800123e:	f200 829e 	bhi.w	800177e <MCP_ReceivedFrame+0x5aa>
 8001242:	e8df f014 	tbh	[pc, r4, lsl #1]
 8001246:	01bc      	.short	0x01bc
 8001248:	00b40022 	.word	0x00b40022
 800124c:	029c0146 	.word	0x029c0146
 8001250:	0150029c 	.word	0x0150029c
 8001254:	018c0177 	.word	0x018c0177
 8001258:	01e101bf 	.word	0x01e101bf
 800125c:	020901f2 	.word	0x020901f2
 8001260:	029c022d 	.word	0x029c022d
 8001264:	029c029c 	.word	0x029c029c
 8001268:	01bc029c 	.word	0x01bc029c
 800126c:	230b      	movs	r3, #11
 800126e:	f89d 0009 	ldrb.w	r0, [sp, #9]
 8001272:	f88d 300e 	strb.w	r3, [sp, #14]
 8001276:	2800      	cmp	r0, #0
 8001278:	d0d1      	beq.n	800121e <MCP_ReceivedFrame+0x4a>
 800127a:	2300      	movs	r3, #0
 800127c:	69ec      	ldr	r4, [r5, #28]
 800127e:	461a      	mov	r2, r3
 8001280:	69a8      	ldr	r0, [r5, #24]
 8001282:	21f0      	movs	r1, #240	; 0xf0
 8001284:	47a0      	blx	r4
 8001286:	b00d      	add	sp, #52	; 0x34
 8001288:	bdf0      	pop	{r4, r5, r6, r7, pc}
 800128a:	2305      	movs	r3, #5
 800128c:	7831      	ldrb	r1, [r6, #0]
 800128e:	f88d 300e 	strb.w	r3, [sp, #14]
 8001292:	2988      	cmp	r1, #136	; 0x88
 8001294:	f200 8279 	bhi.w	800178a <MCP_ReceivedFrame+0x5b6>
 8001298:	e8df f011 	tbh	[pc, r1, lsl #1]
 800129c:	02770269 	.word	0x02770269
 80012a0:	02620277 	.word	0x02620277
 80012a4:	02580277 	.word	0x02580277
 80012a8:	02580258 	.word	0x02580258
 80012ac:	02580258 	.word	0x02580258
 80012b0:	02580258 	.word	0x02580258
 80012b4:	02580258 	.word	0x02580258
 80012b8:	02580258 	.word	0x02580258
 80012bc:	02480248 	.word	0x02480248
 80012c0:	02770277 	.word	0x02770277
 80012c4:	02580258 	.word	0x02580258
 80012c8:	02580258 	.word	0x02580258
 80012cc:	02770258 	.word	0x02770258
 80012d0:	02770277 	.word	0x02770277
 80012d4:	01fe01fe 	.word	0x01fe01fe
 80012d8:	02770277 	.word	0x02770277
 80012dc:	02770277 	.word	0x02770277
 80012e0:	02770277 	.word	0x02770277
 80012e4:	02770277 	.word	0x02770277
 80012e8:	02770277 	.word	0x02770277
 80012ec:	02770277 	.word	0x02770277
 80012f0:	02770277 	.word	0x02770277
 80012f4:	02770277 	.word	0x02770277
 80012f8:	02770277 	.word	0x02770277
 80012fc:	02770277 	.word	0x02770277
 8001300:	02770277 	.word	0x02770277
 8001304:	02770277 	.word	0x02770277
 8001308:	02770277 	.word	0x02770277
 800130c:	02770277 	.word	0x02770277
 8001310:	02770277 	.word	0x02770277
 8001314:	02770277 	.word	0x02770277
 8001318:	02770277 	.word	0x02770277
 800131c:	02580277 	.word	0x02580277
 8001320:	02770277 	.word	0x02770277
 8001324:	02770277 	.word	0x02770277
 8001328:	02480248 	.word	0x02480248
 800132c:	02770248 	.word	0x02770248
 8001330:	02770277 	.word	0x02770277
 8001334:	02770277 	.word	0x02770277
 8001338:	02580277 	.word	0x02580277
 800133c:	02770277 	.word	0x02770277
 8001340:	02580277 	.word	0x02580277
 8001344:	02580258 	.word	0x02580258
 8001348:	02580258 	.word	0x02580258
 800134c:	02580258 	.word	0x02580258
 8001350:	02480277 	.word	0x02480277
 8001354:	02770277 	.word	0x02770277
 8001358:	02770277 	.word	0x02770277
 800135c:	02580277 	.word	0x02580277
 8001360:	02770277 	.word	0x02770277
 8001364:	02580258 	.word	0x02580258
 8001368:	02770277 	.word	0x02770277
 800136c:	02770277 	.word	0x02770277
 8001370:	02770277 	.word	0x02770277
 8001374:	02770277 	.word	0x02770277
 8001378:	02770277 	.word	0x02770277
 800137c:	02770277 	.word	0x02770277
 8001380:	02770277 	.word	0x02770277
 8001384:	02480262 	.word	0x02480262
 8001388:	02480248 	.word	0x02480248
 800138c:	02480248 	.word	0x02480248
 8001390:	02770277 	.word	0x02770277
 8001394:	02480277 	.word	0x02480277
 8001398:	02770248 	.word	0x02770248
 800139c:	02770277 	.word	0x02770277
 80013a0:	02770277 	.word	0x02770277
 80013a4:	02770277 	.word	0x02770277
 80013a8:	02580258 	.word	0x02580258
 80013ac:	0258      	.short	0x0258
 80013ae:	2303      	movs	r3, #3
 80013b0:	7831      	ldrb	r1, [r6, #0]
 80013b2:	f88d 300e 	strb.w	r3, [sp, #14]
 80013b6:	2988      	cmp	r1, #136	; 0x88
 80013b8:	f200 8101 	bhi.w	80015be <MCP_ReceivedFrame+0x3ea>
 80013bc:	e8df f011 	tbh	[pc, r1, lsl #1]
 80013c0:	01800192 	.word	0x01800192
 80013c4:	01920192 	.word	0x01920192
 80013c8:	01a40180 	.word	0x01a40180
 80013cc:	01a401a4 	.word	0x01a401a4
 80013d0:	01a401a4 	.word	0x01a401a4
 80013d4:	01a401a4 	.word	0x01a401a4
 80013d8:	01a401a4 	.word	0x01a401a4
 80013dc:	01a401a4 	.word	0x01a401a4
 80013e0:	01a401a4 	.word	0x01a401a4
 80013e4:	01a401a4 	.word	0x01a401a4
 80013e8:	01a401a4 	.word	0x01a401a4
 80013ec:	01a401a4 	.word	0x01a401a4
 80013f0:	01a401a4 	.word	0x01a401a4
 80013f4:	01a401a4 	.word	0x01a401a4
 80013f8:	00ff00ff 	.word	0x00ff00ff
 80013fc:	01a40180 	.word	0x01a40180
 8001400:	01a401a4 	.word	0x01a401a4
 8001404:	00ff0192 	.word	0x00ff0192
 8001408:	00ff00ff 	.word	0x00ff00ff
 800140c:	00ff00ff 	.word	0x00ff00ff
 8001410:	00ff00ff 	.word	0x00ff00ff
 8001414:	00ff00ff 	.word	0x00ff00ff
 8001418:	00ff00ff 	.word	0x00ff00ff
 800141c:	00ff00ff 	.word	0x00ff00ff
 8001420:	00ff00ff 	.word	0x00ff00ff
 8001424:	00ff00ff 	.word	0x00ff00ff
 8001428:	00ff00ff 	.word	0x00ff00ff
 800142c:	00ff00ff 	.word	0x00ff00ff
 8001430:	00ff00ff 	.word	0x00ff00ff
 8001434:	00ff00ff 	.word	0x00ff00ff
 8001438:	00ff00ff 	.word	0x00ff00ff
 800143c:	00ff00ff 	.word	0x00ff00ff
 8001440:	01a400ff 	.word	0x01a400ff
 8001444:	00ff00ff 	.word	0x00ff00ff
 8001448:	00ff00ff 	.word	0x00ff00ff
 800144c:	01800180 	.word	0x01800180
 8001450:	01a40180 	.word	0x01a40180
 8001454:	01a401a4 	.word	0x01a401a4
 8001458:	019201a4 	.word	0x019201a4
 800145c:	01a40180 	.word	0x01a40180
 8001460:	01a401a4 	.word	0x01a401a4
 8001464:	01a401a4 	.word	0x01a401a4
 8001468:	01a401a4 	.word	0x01a401a4
 800146c:	01a401a4 	.word	0x01a401a4
 8001470:	01a401a4 	.word	0x01a401a4
 8001474:	01800192 	.word	0x01800192
 8001478:	01a400ff 	.word	0x01a400ff
 800147c:	01a401a4 	.word	0x01a401a4
 8001480:	01a401a4 	.word	0x01a401a4
 8001484:	00ff00ff 	.word	0x00ff00ff
 8001488:	01a401a4 	.word	0x01a401a4
 800148c:	01920192 	.word	0x01920192
 8001490:	01800180 	.word	0x01800180
 8001494:	01800180 	.word	0x01800180
 8001498:	01920180 	.word	0x01920180
 800149c:	01a401a4 	.word	0x01a401a4
 80014a0:	00ff0180 	.word	0x00ff0180
 80014a4:	01a401a4 	.word	0x01a401a4
 80014a8:	01800192 	.word	0x01800192
 80014ac:	01800180 	.word	0x01800180
 80014b0:	01800180 	.word	0x01800180
 80014b4:	01800180 	.word	0x01800180
 80014b8:	01800180 	.word	0x01800180
 80014bc:	01800180 	.word	0x01800180
 80014c0:	00ff0192 	.word	0x00ff0192
 80014c4:	01800192 	.word	0x01800192
 80014c8:	01800180 	.word	0x01800180
 80014cc:	01a401a4 	.word	0x01a401a4
 80014d0:	01a4      	.short	0x01a4
 80014d2:	2307      	movs	r3, #7
 80014d4:	7831      	ldrb	r1, [r6, #0]
 80014d6:	4628      	mov	r0, r5
 80014d8:	f88d 300e 	strb.w	r3, [sp, #14]
 80014dc:	f001 f8a6 	bl	800262c <UI_ExecCmd>
 80014e0:	f88d 0009 	strb.w	r0, [sp, #9]
 80014e4:	e6c7      	b.n	8001276 <MCP_ReceivedFrame+0xa2>
 80014e6:	ac04      	add	r4, sp, #16
 80014e8:	2100      	movs	r1, #0
 80014ea:	4620      	mov	r0, r4
 80014ec:	2220      	movs	r2, #32
 80014ee:	f006 fba4 	bl	8007c3a <memset>
 80014f2:	f8d5 60a8 	ldr.w	r6, [r5, #168]	; 0xa8
 80014f6:	f10d 0012 	add.w	r0, sp, #18
 80014fa:	1e71      	subs	r1, r6, #1
 80014fc:	2300      	movs	r3, #0
 80014fe:	e005      	b.n	800150c <MCP_ReceivedFrame+0x338>
 8001500:	3301      	adds	r3, #1
 8001502:	2b1d      	cmp	r3, #29
 8001504:	f800 2f01 	strb.w	r2, [r0, #1]!
 8001508:	f000 8145 	beq.w	8001796 <MCP_ReceivedFrame+0x5c2>
 800150c:	f811 2f01 	ldrb.w	r2, [r1, #1]!
 8001510:	2a09      	cmp	r2, #9
 8001512:	d1f5      	bne.n	8001500 <MCP_ReceivedFrame+0x32c>
 8001514:	1d5a      	adds	r2, r3, #5
 8001516:	1dd8      	adds	r0, r3, #7
 8001518:	3309      	adds	r3, #9
 800151a:	5cb1      	ldrb	r1, [r6, r2]
 800151c:	4622      	mov	r2, r4
 800151e:	f88d 1010 	strb.w	r1, [sp, #16]
 8001522:	5c31      	ldrb	r1, [r6, r0]
 8001524:	69ec      	ldr	r4, [r5, #28]
 8001526:	f88d 1011 	strb.w	r1, [sp, #17]
 800152a:	5cf1      	ldrb	r1, [r6, r3]
 800152c:	2320      	movs	r3, #32
 800152e:	f88d 1012 	strb.w	r1, [sp, #18]
 8001532:	e0ae      	b.n	8001692 <MCP_ReceivedFrame+0x4be>
 8001534:	7871      	ldrb	r1, [r6, #1]
 8001536:	7833      	ldrb	r3, [r6, #0]
 8001538:	7970      	ldrb	r0, [r6, #5]
 800153a:	78b4      	ldrb	r4, [r6, #2]
 800153c:	7932      	ldrb	r2, [r6, #4]
 800153e:	eb03 2301 	add.w	r3, r3, r1, lsl #8
 8001542:	78f1      	ldrb	r1, [r6, #3]
 8001544:	eb03 4304 	add.w	r3, r3, r4, lsl #16
 8001548:	eb02 2200 	add.w	r2, r2, r0, lsl #8
 800154c:	eb03 6101 	add.w	r1, r3, r1, lsl #24
 8001550:	b292      	uxth	r2, r2
 8001552:	4628      	mov	r0, r5
 8001554:	f001 f8a6 	bl	80026a4 <UI_ExecSpeedRamp>
 8001558:	f88d 0009 	strb.w	r0, [sp, #9]
 800155c:	e68b      	b.n	8001276 <MCP_ReceivedFrame+0xa2>
 800155e:	f10d 030e 	add.w	r3, sp, #14
 8001562:	7831      	ldrb	r1, [r6, #0]
 8001564:	f10d 020a 	add.w	r2, sp, #10
 8001568:	9300      	str	r3, [sp, #0]
 800156a:	4628      	mov	r0, r5
 800156c:	ab03      	add	r3, sp, #12
 800156e:	f001 f8b5 	bl	80026dc <UI_GetRevupData>
 8001572:	2200      	movs	r2, #0
 8001574:	f9bd 300c 	ldrsh.w	r3, [sp, #12]
 8001578:	f9bd 000e 	ldrsh.w	r0, [sp, #14]
 800157c:	eb03 0343 	add.w	r3, r3, r3, lsl #1
 8001580:	005b      	lsls	r3, r3, #1
 8001582:	1219      	asrs	r1, r3, #8
 8001584:	f363 0207 	bfi	r2, r3, #0, #8
 8001588:	141c      	asrs	r4, r3, #16
 800158a:	f361 220f 	bfi	r2, r1, #8, #8
 800158e:	f8bd 100a 	ldrh.w	r1, [sp, #10]
 8001592:	f364 4217 	bfi	r2, r4, #16, #8
 8001596:	161b      	asrs	r3, r3, #24
 8001598:	f363 621f 	bfi	r2, r3, #24, #8
 800159c:	1204      	asrs	r4, r0, #8
 800159e:	0a0b      	lsrs	r3, r1, #8
 80015a0:	9204      	str	r2, [sp, #16]
 80015a2:	f88d 0014 	strb.w	r0, [sp, #20]
 80015a6:	f88d 4015 	strb.w	r4, [sp, #21]
 80015aa:	f88d 1016 	strb.w	r1, [sp, #22]
 80015ae:	f88d 3017 	strb.w	r3, [sp, #23]
 80015b2:	69ec      	ldr	r4, [r5, #28]
 80015b4:	2308      	movs	r3, #8
 80015b6:	aa04      	add	r2, sp, #16
 80015b8:	21f0      	movs	r1, #240	; 0xf0
 80015ba:	69a8      	ldr	r0, [r5, #24]
 80015bc:	47a0      	blx	r4
 80015be:	f89d 0009 	ldrb.w	r0, [sp, #9]
 80015c2:	e658      	b.n	8001276 <MCP_ReceivedFrame+0xa2>
 80015c4:	78b1      	ldrb	r1, [r6, #2]
 80015c6:	7873      	ldrb	r3, [r6, #1]
 80015c8:	78f2      	ldrb	r2, [r6, #3]
 80015ca:	eb03 2301 	add.w	r3, r3, r1, lsl #8
 80015ce:	7931      	ldrb	r1, [r6, #4]
 80015d0:	eb03 4302 	add.w	r3, r3, r2, lsl #16
 80015d4:	4a72      	ldr	r2, [pc, #456]	; (80017a0 <MCP_ReceivedFrame+0x5cc>)
 80015d6:	eb03 6301 	add.w	r3, r3, r1, lsl #24
 80015da:	fb82 1203 	smull	r1, r2, r2, r3
 80015de:	7970      	ldrb	r0, [r6, #5]
 80015e0:	79b1      	ldrb	r1, [r6, #6]
 80015e2:	7a34      	ldrb	r4, [r6, #8]
 80015e4:	eba2 73e3 	sub.w	r3, r2, r3, asr #31
 80015e8:	79f2      	ldrb	r2, [r6, #7]
 80015ea:	eb00 2001 	add.w	r0, r0, r1, lsl #8
 80015ee:	b200      	sxth	r0, r0
 80015f0:	eb02 2204 	add.w	r2, r2, r4, lsl #8
 80015f4:	7831      	ldrb	r1, [r6, #0]
 80015f6:	b21b      	sxth	r3, r3
 80015f8:	9000      	str	r0, [sp, #0]
 80015fa:	b292      	uxth	r2, r2
 80015fc:	4628      	mov	r0, r5
 80015fe:	f001 f889 	bl	8002714 <UI_SetRevupData>
 8001602:	f88d 0009 	strb.w	r0, [sp, #9]
 8001606:	e636      	b.n	8001276 <MCP_ReceivedFrame+0xa2>
 8001608:	78f0      	ldrb	r0, [r6, #3]
 800160a:	7873      	ldrb	r3, [r6, #1]
 800160c:	78b2      	ldrb	r2, [r6, #2]
 800160e:	7831      	ldrb	r1, [r6, #0]
 8001610:	eb02 2200 	add.w	r2, r2, r0, lsl #8
 8001614:	eb01 2103 	add.w	r1, r1, r3, lsl #8
 8001618:	b212      	sxth	r2, r2
 800161a:	b209      	sxth	r1, r1
 800161c:	4628      	mov	r0, r5
 800161e:	f001 f893 	bl	8002748 <UI_SetCurrentReferences>
 8001622:	2301      	movs	r3, #1
 8001624:	f88d 3009 	strb.w	r3, [sp, #9]
 8001628:	e627      	b.n	800127a <MCP_ReceivedFrame+0xa6>
 800162a:	230c      	movs	r3, #12
 800162c:	4c5d      	ldr	r4, [pc, #372]	; (80017a4 <MCP_ReceivedFrame+0x5d0>)
 800162e:	a804      	add	r0, sp, #16
 8001630:	4621      	mov	r1, r4
 8001632:	9604      	str	r6, [sp, #16]
 8001634:	f88d 7014 	strb.w	r7, [sp, #20]
 8001638:	f88d 300e 	strb.w	r3, [sp, #14]
 800163c:	f001 f894 	bl	8002768 <UI_GetMPInfo>
 8001640:	f88d 0009 	strb.w	r0, [sp, #9]
 8001644:	2800      	cmp	r0, #0
 8001646:	f43f adea 	beq.w	800121e <MCP_ReceivedFrame+0x4a>
 800164a:	e9d5 0606 	ldrd	r0, r6, [r5, #24]
 800164e:	7923      	ldrb	r3, [r4, #4]
 8001650:	6822      	ldr	r2, [r4, #0]
 8001652:	21f0      	movs	r1, #240	; 0xf0
 8001654:	47b0      	blx	r6
 8001656:	e5e9      	b.n	800122c <MCP_ReceivedFrame+0x58>
 8001658:	f8d5 20a8 	ldr.w	r2, [r5, #168]	; 0xa8
 800165c:	ac04      	add	r4, sp, #16
 800165e:	4623      	mov	r3, r4
 8001660:	ae0c      	add	r6, sp, #48	; 0x30
 8001662:	3a01      	subs	r2, #1
 8001664:	e003      	b.n	800166e <MCP_ReceivedFrame+0x49a>
 8001666:	f803 1b01 	strb.w	r1, [r3], #1
 800166a:	429e      	cmp	r6, r3
 800166c:	d00e      	beq.n	800168c <MCP_ReceivedFrame+0x4b8>
 800166e:	f812 1f01 	ldrb.w	r1, [r2, #1]!
 8001672:	1b18      	subs	r0, r3, r4
 8001674:	b2c0      	uxtb	r0, r0
 8001676:	2900      	cmp	r1, #0
 8001678:	d1f5      	bne.n	8001666 <MCP_ReceivedFrame+0x492>
 800167a:	281f      	cmp	r0, #31
 800167c:	d806      	bhi.n	800168c <MCP_ReceivedFrame+0x4b8>
 800167e:	f1c0 021f 	rsb	r2, r0, #31
 8001682:	b2d2      	uxtb	r2, r2
 8001684:	3201      	adds	r2, #1
 8001686:	4420      	add	r0, r4
 8001688:	f006 fad7 	bl	8007c3a <memset>
 800168c:	2320      	movs	r3, #32
 800168e:	4622      	mov	r2, r4
 8001690:	69ec      	ldr	r4, [r5, #28]
 8001692:	21f0      	movs	r1, #240	; 0xf0
 8001694:	69a8      	ldr	r0, [r5, #24]
 8001696:	47a0      	blx	r4
 8001698:	2301      	movs	r3, #1
 800169a:	f88d 3009 	strb.w	r3, [sp, #9]
 800169e:	e5ec      	b.n	800127a <MCP_ReceivedFrame+0xa6>
 80016a0:	7970      	ldrb	r0, [r6, #5]
 80016a2:	7932      	ldrb	r2, [r6, #4]
 80016a4:	7873      	ldrb	r3, [r6, #1]
 80016a6:	7831      	ldrb	r1, [r6, #0]
 80016a8:	eb02 2200 	add.w	r2, r2, r0, lsl #8
 80016ac:	eb01 2103 	add.w	r1, r1, r3, lsl #8
 80016b0:	b292      	uxth	r2, r2
 80016b2:	b209      	sxth	r1, r1
 80016b4:	4628      	mov	r0, r5
 80016b6:	f001 f807 	bl	80026c8 <UI_ExecTorqueRamp>
 80016ba:	f88d 0009 	strb.w	r0, [sp, #9]
 80016be:	e5da      	b.n	8001276 <MCP_ReceivedFrame+0xa2>
 80016c0:	f10d 0209 	add.w	r2, sp, #9
 80016c4:	4628      	mov	r0, r5
 80016c6:	f000 fdaf 	bl	8002228 <UI_GetReg>
 80016ca:	f89d 3009 	ldrb.w	r3, [sp, #9]
 80016ce:	9004      	str	r0, [sp, #16]
 80016d0:	2b00      	cmp	r3, #0
 80016d2:	f43f ada4 	beq.w	800121e <MCP_ReceivedFrame+0x4a>
 80016d6:	e9d5 0406 	ldrd	r0, r4, [r5, #24]
 80016da:	2304      	movs	r3, #4
 80016dc:	aa04      	add	r2, sp, #16
 80016de:	21f0      	movs	r1, #240	; 0xf0
 80016e0:	47a0      	blx	r4
 80016e2:	e5a3      	b.n	800122c <MCP_ReceivedFrame+0x58>
 80016e4:	f10d 0209 	add.w	r2, sp, #9
 80016e8:	4628      	mov	r0, r5
 80016ea:	f000 fd9d 	bl	8002228 <UI_GetReg>
 80016ee:	f89d 3009 	ldrb.w	r3, [sp, #9]
 80016f2:	9004      	str	r0, [sp, #16]
 80016f4:	2b00      	cmp	r3, #0
 80016f6:	f43f ad92 	beq.w	800121e <MCP_ReceivedFrame+0x4a>
 80016fa:	e9d5 0406 	ldrd	r0, r4, [r5, #24]
 80016fe:	2301      	movs	r3, #1
 8001700:	aa04      	add	r2, sp, #16
 8001702:	21f0      	movs	r1, #240	; 0xf0
 8001704:	47a0      	blx	r4
 8001706:	e591      	b.n	800122c <MCP_ReceivedFrame+0x58>
 8001708:	f10d 0209 	add.w	r2, sp, #9
 800170c:	4628      	mov	r0, r5
 800170e:	f000 fd8b 	bl	8002228 <UI_GetReg>
 8001712:	f89d 3009 	ldrb.w	r3, [sp, #9]
 8001716:	9004      	str	r0, [sp, #16]
 8001718:	2b00      	cmp	r3, #0
 800171a:	f43f ad80 	beq.w	800121e <MCP_ReceivedFrame+0x4a>
 800171e:	e9d5 0406 	ldrd	r0, r4, [r5, #24]
 8001722:	2302      	movs	r3, #2
 8001724:	aa04      	add	r2, sp, #16
 8001726:	21f0      	movs	r1, #240	; 0xf0
 8001728:	47a0      	blx	r4
 800172a:	e57f      	b.n	800122c <MCP_ReceivedFrame+0x58>
 800172c:	78b2      	ldrb	r2, [r6, #2]
 800172e:	7873      	ldrb	r3, [r6, #1]
 8001730:	78f0      	ldrb	r0, [r6, #3]
 8001732:	eb03 2302 	add.w	r3, r3, r2, lsl #8
 8001736:	7932      	ldrb	r2, [r6, #4]
 8001738:	eb03 4300 	add.w	r3, r3, r0, lsl #16
 800173c:	eb03 6202 	add.w	r2, r3, r2, lsl #24
 8001740:	4628      	mov	r0, r5
 8001742:	f000 fcad 	bl	80020a0 <UI_SetReg>
 8001746:	f88d 0009 	strb.w	r0, [sp, #9]
 800174a:	e594      	b.n	8001276 <MCP_ReceivedFrame+0xa2>
 800174c:	78b2      	ldrb	r2, [r6, #2]
 800174e:	7873      	ldrb	r3, [r6, #1]
 8001750:	4628      	mov	r0, r5
 8001752:	eb03 2202 	add.w	r2, r3, r2, lsl #8
 8001756:	f000 fca3 	bl	80020a0 <UI_SetReg>
 800175a:	f88d 0009 	strb.w	r0, [sp, #9]
 800175e:	e58a      	b.n	8001276 <MCP_ReceivedFrame+0xa2>
 8001760:	7872      	ldrb	r2, [r6, #1]
 8001762:	4628      	mov	r0, r5
 8001764:	f000 fc9c 	bl	80020a0 <UI_SetReg>
 8001768:	f88d 0009 	strb.w	r0, [sp, #9]
 800176c:	e583      	b.n	8001276 <MCP_ReceivedFrame+0xa2>
 800176e:	7872      	ldrb	r2, [r6, #1]
 8001770:	2100      	movs	r1, #0
 8001772:	4628      	mov	r0, r5
 8001774:	f000 fc94 	bl	80020a0 <UI_SetReg>
 8001778:	f88d 0009 	strb.w	r0, [sp, #9]
 800177c:	e57b      	b.n	8001276 <MCP_ReceivedFrame+0xa2>
 800177e:	2301      	movs	r3, #1
 8001780:	f89d 0009 	ldrb.w	r0, [sp, #9]
 8001784:	f88d 300e 	strb.w	r3, [sp, #14]
 8001788:	e575      	b.n	8001276 <MCP_ReceivedFrame+0xa2>
 800178a:	2302      	movs	r3, #2
 800178c:	f89d 0009 	ldrb.w	r0, [sp, #9]
 8001790:	f88d 300e 	strb.w	r3, [sp, #14]
 8001794:	e56f      	b.n	8001276 <MCP_ReceivedFrame+0xa2>
 8001796:	2326      	movs	r3, #38	; 0x26
 8001798:	2024      	movs	r0, #36	; 0x24
 800179a:	2222      	movs	r2, #34	; 0x22
 800179c:	e6bd      	b.n	800151a <MCP_ReceivedFrame+0x346>
 800179e:	bf00      	nop
 80017a0:	2aaaaaab 	.word	0x2aaaaaab
 80017a4:	200005b8 	.word	0x200005b8

080017a8 <MCP_WaitNextFrame>:
 80017a8:	b510      	push	{r4, lr}
 80017aa:	6a43      	ldr	r3, [r0, #36]	; 0x24
 80017ac:	4604      	mov	r4, r0
 80017ae:	6980      	ldr	r0, [r0, #24]
 80017b0:	4798      	blx	r3
 80017b2:	2280      	movs	r2, #128	; 0x80
 80017b4:	f884 20ac 	strb.w	r2, [r4, #172]	; 0xac
 80017b8:	6a23      	ldr	r3, [r4, #32]
 80017ba:	69a0      	ldr	r0, [r4, #24]
 80017bc:	e8bd 4010 	ldmia.w	sp!, {r4, lr}
 80017c0:	4718      	bx	r3
 80017c2:	bf00      	nop

080017c4 <MCP_Init>:
 80017c4:	b5f0      	push	{r4, r5, r6, r7, lr}
 80017c6:	4604      	mov	r4, r0
 80017c8:	4617      	mov	r7, r2
 80017ca:	461e      	mov	r6, r3
 80017cc:	b083      	sub	sp, #12
 80017ce:	9a09      	ldr	r2, [sp, #36]	; 0x24
 80017d0:	4b09      	ldr	r3, [pc, #36]	; (80017f8 <MCP_Init+0x34>)
 80017d2:	9d08      	ldr	r5, [sp, #32]
 80017d4:	6181      	str	r1, [r0, #24]
 80017d6:	f8c4 20a8 	str.w	r2, [r4, #168]	; 0xa8
 80017da:	4608      	mov	r0, r1
 80017dc:	9300      	str	r3, [sp, #0]
 80017de:	4621      	mov	r1, r4
 80017e0:	4b06      	ldr	r3, [pc, #24]	; (80017fc <MCP_Init+0x38>)
 80017e2:	4a07      	ldr	r2, [pc, #28]	; (8001800 <MCP_Init+0x3c>)
 80017e4:	f004 fc54 	bl	8006090 <FCP_SetClient>
 80017e8:	e9c4 7607 	strd	r7, r6, [r4, #28]
 80017ec:	6265      	str	r5, [r4, #36]	; 0x24
 80017ee:	4620      	mov	r0, r4
 80017f0:	f7ff ffda 	bl	80017a8 <MCP_WaitNextFrame>
 80017f4:	b003      	add	sp, #12
 80017f6:	bdf0      	pop	{r4, r5, r6, r7, pc}
 80017f8:	08001805 	.word	0x08001805
 80017fc:	080011d5 	.word	0x080011d5
 8001800:	0800180d 	.word	0x0800180d

08001804 <MCP_OnTimeOut>:
 8001804:	b508      	push	{r3, lr}
 8001806:	f7ff ffcf 	bl	80017a8 <MCP_WaitNextFrame>
 800180a:	bd08      	pop	{r3, pc}

0800180c <MCP_SentFrame>:
 800180c:	b508      	push	{r3, lr}
 800180e:	f7ff ffcb 	bl	80017a8 <MCP_WaitNextFrame>
 8001812:	bd08      	pop	{r3, pc}

08001814 <MX_MotorControl_Init>:
 8001814:	b530      	push	{r4, r5, lr}
 8001816:	4d09      	ldr	r5, [pc, #36]	; (800183c <MX_MotorControl_Init+0x28>)
 8001818:	4c09      	ldr	r4, [pc, #36]	; (8001840 <MX_MotorControl_Init+0x2c>)
 800181a:	b083      	sub	sp, #12
 800181c:	4629      	mov	r1, r5
 800181e:	4620      	mov	r0, r4
 8001820:	f7ff f950 	bl	8000ac4 <MCboot>
 8001824:	f7ff fc56 	bl	80010d4 <mc_lock_pins>
 8001828:	4906      	ldr	r1, [pc, #24]	; (8001844 <MX_MotorControl_Init+0x30>)
 800182a:	462b      	mov	r3, r5
 800182c:	9100      	str	r1, [sp, #0]
 800182e:	4622      	mov	r2, r4
 8001830:	2101      	movs	r1, #1
 8001832:	4805      	ldr	r0, [pc, #20]	; (8001848 <MX_MotorControl_Init+0x34>)
 8001834:	f000 fbb8 	bl	8001fa8 <UI_TaskInit>
 8001838:	b003      	add	sp, #12
 800183a:	bd30      	pop	{r4, r5, pc}
 800183c:	20002138 	.word	0x20002138
 8001840:	20002134 	.word	0x20002134
 8001844:	08007f8c 	.word	0x08007f8c
 8001848:	20000564 	.word	0x20000564

0800184c <vPortSetupTimerInterrupt>:
 800184c:	b508      	push	{r3, lr}
 800184e:	f001 fe63 	bl	8003518 <HAL_RCC_GetHCLKFreq>
 8001852:	4b04      	ldr	r3, [pc, #16]	; (8001864 <vPortSetupTimerInterrupt+0x18>)
 8001854:	fba3 3000 	umull	r3, r0, r3, r0
 8001858:	e8bd 4008 	ldmia.w	sp!, {r3, lr}
 800185c:	09c0      	lsrs	r0, r0, #7
 800185e:	f001 ba47 	b.w	8002cf0 <HAL_SYSTICK_Config>
 8001862:	bf00      	nop
 8001864:	10624dd3 	.word	0x10624dd3

08001868 <RCM_RegisterRegConv>:
 8001868:	495d      	ldr	r1, [pc, #372]	; (80019e0 <RCM_RegisterRegConv+0x178>)
 800186a:	b4f0      	push	{r4, r5, r6, r7}
 800186c:	680a      	ldr	r2, [r1, #0]
 800186e:	b32a      	cbz	r2, 80018bc <RCM_RegisterRegConv+0x54>
 8001870:	7904      	ldrb	r4, [r0, #4]
 8001872:	7913      	ldrb	r3, [r2, #4]
 8001874:	429c      	cmp	r4, r3
 8001876:	d01b      	beq.n	80018b0 <RCM_RegisterRegConv+0x48>
 8001878:	684b      	ldr	r3, [r1, #4]
 800187a:	2b00      	cmp	r3, #0
 800187c:	f000 8090 	beq.w	80019a0 <RCM_RegisterRegConv+0x138>
 8001880:	791d      	ldrb	r5, [r3, #4]
 8001882:	22ff      	movs	r2, #255	; 0xff
 8001884:	42a5      	cmp	r5, r4
 8001886:	d021      	beq.n	80018cc <RCM_RegisterRegConv+0x64>
 8001888:	688d      	ldr	r5, [r1, #8]
 800188a:	2d00      	cmp	r5, #0
 800188c:	f000 809c 	beq.w	80019c8 <RCM_RegisterRegConv+0x160>
 8001890:	792b      	ldrb	r3, [r5, #4]
 8001892:	42a3      	cmp	r3, r4
 8001894:	d07d      	beq.n	8001992 <RCM_RegisterRegConv+0x12a>
 8001896:	68cb      	ldr	r3, [r1, #12]
 8001898:	b1f3      	cbz	r3, 80018d8 <RCM_RegisterRegConv+0x70>
 800189a:	791d      	ldrb	r5, [r3, #4]
 800189c:	42a5      	cmp	r5, r4
 800189e:	f000 808c 	beq.w	80019ba <RCM_RegisterRegConv+0x152>
 80018a2:	2a03      	cmp	r2, #3
 80018a4:	bf88      	it	hi
 80018a6:	22ff      	movhi	r2, #255	; 0xff
 80018a8:	d919      	bls.n	80018de <RCM_RegisterRegConv+0x76>
 80018aa:	bcf0      	pop	{r4, r5, r6, r7}
 80018ac:	4610      	mov	r0, r2
 80018ae:	4770      	bx	lr
 80018b0:	6812      	ldr	r2, [r2, #0]
 80018b2:	6803      	ldr	r3, [r0, #0]
 80018b4:	429a      	cmp	r2, r3
 80018b6:	d1df      	bne.n	8001878 <RCM_RegisterRegConv+0x10>
 80018b8:	2200      	movs	r2, #0
 80018ba:	e011      	b.n	80018e0 <RCM_RegisterRegConv+0x78>
 80018bc:	684b      	ldr	r3, [r1, #4]
 80018be:	2b00      	cmp	r3, #0
 80018c0:	f000 8087 	beq.w	80019d2 <RCM_RegisterRegConv+0x16a>
 80018c4:	7904      	ldrb	r4, [r0, #4]
 80018c6:	791d      	ldrb	r5, [r3, #4]
 80018c8:	42a5      	cmp	r5, r4
 80018ca:	d1dd      	bne.n	8001888 <RCM_RegisterRegConv+0x20>
 80018cc:	681d      	ldr	r5, [r3, #0]
 80018ce:	6803      	ldr	r3, [r0, #0]
 80018d0:	429d      	cmp	r5, r3
 80018d2:	d1d9      	bne.n	8001888 <RCM_RegisterRegConv+0x20>
 80018d4:	2201      	movs	r2, #1
 80018d6:	e003      	b.n	80018e0 <RCM_RegisterRegConv+0x78>
 80018d8:	2a04      	cmp	r2, #4
 80018da:	d9e2      	bls.n	80018a2 <RCM_RegisterRegConv+0x3a>
 80018dc:	2203      	movs	r2, #3
 80018de:	6803      	ldr	r3, [r0, #0]
 80018e0:	2500      	movs	r5, #0
 80018e2:	4c40      	ldr	r4, [pc, #256]	; (80019e4 <RCM_RegisterRegConv+0x17c>)
 80018e4:	f841 0022 	str.w	r0, [r1, r2, lsl #2]
 80018e8:	6899      	ldr	r1, [r3, #8]
 80018ea:	f844 5032 	str.w	r5, [r4, r2, lsl #3]
 80018ee:	07cc      	lsls	r4, r1, #31
 80018f0:	d418      	bmi.n	8001924 <RCM_RegisterRegConv+0xbc>
 80018f2:	f06f 0502 	mvn.w	r5, #2
 80018f6:	f06f 0404 	mvn.w	r4, #4
 80018fa:	6859      	ldr	r1, [r3, #4]
 80018fc:	f021 0120 	bic.w	r1, r1, #32
 8001900:	6059      	str	r1, [r3, #4]
 8001902:	601d      	str	r5, [r3, #0]
 8001904:	6859      	ldr	r1, [r3, #4]
 8001906:	f021 0180 	bic.w	r1, r1, #128	; 0x80
 800190a:	6059      	str	r1, [r3, #4]
 800190c:	601c      	str	r4, [r3, #0]
 800190e:	6899      	ldr	r1, [r3, #8]
 8001910:	f041 0101 	orr.w	r1, r1, #1
 8001914:	6099      	str	r1, [r3, #8]
 8001916:	6899      	ldr	r1, [r3, #8]
 8001918:	f041 0104 	orr.w	r1, r1, #4
 800191c:	6099      	str	r1, [r3, #8]
 800191e:	6899      	ldr	r1, [r3, #8]
 8001920:	0749      	lsls	r1, r1, #29
 8001922:	d4fc      	bmi.n	800191e <RCM_RegisterRegConv+0xb6>
 8001924:	6ad9      	ldr	r1, [r3, #44]	; 0x2c
 8001926:	f04f 7700 	mov.w	r7, #33554432	; 0x2000000
 800192a:	f421 0170 	bic.w	r1, r1, #15728640	; 0xf00000
 800192e:	62d9      	str	r1, [r3, #44]	; 0x2c
 8001930:	7901      	ldrb	r1, [r0, #4]
 8001932:	eb01 0441 	add.w	r4, r1, r1, lsl #1
 8001936:	2909      	cmp	r1, #9
 8001938:	bf94      	ite	ls
 800193a:	f041 7100 	orrls.w	r1, r1, #33554432	; 0x2000000
 800193e:	3c1e      	subhi	r4, #30
 8001940:	ea41 5104 	orr.w	r1, r1, r4, lsl #20
 8001944:	fa97 f7a7 	rbit	r7, r7
 8001948:	fab7 f487 	clz	r4, r7
 800194c:	f001 7700 	and.w	r7, r1, #33554432	; 0x2000000
 8001950:	40e7      	lsrs	r7, r4
 8001952:	330c      	adds	r3, #12
 8001954:	f001 71f8 	and.w	r1, r1, #32505856	; 0x1f00000
 8001958:	f853 5027 	ldr.w	r5, [r3, r7, lsl #2]
 800195c:	f04f 74f8 	mov.w	r4, #32505856	; 0x1f00000
 8001960:	fa94 f6a4 	rbit	r6, r4
 8001964:	fab6 f686 	clz	r6, r6
 8001968:	fa94 f4a4 	rbit	r4, r4
 800196c:	f04f 0c07 	mov.w	ip, #7
 8001970:	fab4 f484 	clz	r4, r4
 8001974:	fa21 f606 	lsr.w	r6, r1, r6
 8001978:	6880      	ldr	r0, [r0, #8]
 800197a:	40e1      	lsrs	r1, r4
 800197c:	fa0c f606 	lsl.w	r6, ip, r6
 8001980:	4088      	lsls	r0, r1
 8001982:	ea25 0106 	bic.w	r1, r5, r6
 8001986:	4301      	orrs	r1, r0
 8001988:	f843 1027 	str.w	r1, [r3, r7, lsl #2]
 800198c:	4610      	mov	r0, r2
 800198e:	bcf0      	pop	{r4, r5, r6, r7}
 8001990:	4770      	bx	lr
 8001992:	682d      	ldr	r5, [r5, #0]
 8001994:	6803      	ldr	r3, [r0, #0]
 8001996:	429d      	cmp	r5, r3
 8001998:	f47f af7d 	bne.w	8001896 <RCM_RegisterRegConv+0x2e>
 800199c:	2202      	movs	r2, #2
 800199e:	e79f      	b.n	80018e0 <RCM_RegisterRegConv+0x78>
 80019a0:	688d      	ldr	r5, [r1, #8]
 80019a2:	2201      	movs	r2, #1
 80019a4:	2d00      	cmp	r5, #0
 80019a6:	f47f af73 	bne.w	8001890 <RCM_RegisterRegConv+0x28>
 80019aa:	68cb      	ldr	r3, [r1, #12]
 80019ac:	2b00      	cmp	r3, #0
 80019ae:	d096      	beq.n	80018de <RCM_RegisterRegConv+0x76>
 80019b0:	7904      	ldrb	r4, [r0, #4]
 80019b2:	791d      	ldrb	r5, [r3, #4]
 80019b4:	42a5      	cmp	r5, r4
 80019b6:	f47f af74 	bne.w	80018a2 <RCM_RegisterRegConv+0x3a>
 80019ba:	681c      	ldr	r4, [r3, #0]
 80019bc:	6803      	ldr	r3, [r0, #0]
 80019be:	429c      	cmp	r4, r3
 80019c0:	f47f af6f 	bne.w	80018a2 <RCM_RegisterRegConv+0x3a>
 80019c4:	2203      	movs	r2, #3
 80019c6:	e78b      	b.n	80018e0 <RCM_RegisterRegConv+0x78>
 80019c8:	2a04      	cmp	r2, #4
 80019ca:	bf8c      	ite	hi
 80019cc:	2202      	movhi	r2, #2
 80019ce:	2200      	movls	r2, #0
 80019d0:	e7eb      	b.n	80019aa <RCM_RegisterRegConv+0x142>
 80019d2:	688d      	ldr	r5, [r1, #8]
 80019d4:	b115      	cbz	r5, 80019dc <RCM_RegisterRegConv+0x174>
 80019d6:	461a      	mov	r2, r3
 80019d8:	7904      	ldrb	r4, [r0, #4]
 80019da:	e759      	b.n	8001890 <RCM_RegisterRegConv+0x28>
 80019dc:	462a      	mov	r2, r5
 80019de:	e7e4      	b.n	80019aa <RCM_RegisterRegConv+0x142>
 80019e0:	20002164 	.word	0x20002164
 80019e4:	20002140 	.word	0x20002140

080019e8 <RCM_ExecRegularConv>:
 80019e8:	b410      	push	{r4}
 80019ea:	4b17      	ldr	r3, [pc, #92]	; (8001a48 <RCM_ExecRegularConv+0x60>)
 80019ec:	f853 2020 	ldr.w	r2, [r3, r0, lsl #2]
 80019f0:	7913      	ldrb	r3, [r2, #4]
 80019f2:	6812      	ldr	r2, [r2, #0]
 80019f4:	eb03 0143 	add.w	r1, r3, r3, lsl #1
 80019f8:	2b09      	cmp	r3, #9
 80019fa:	bf8c      	ite	hi
 80019fc:	391e      	subhi	r1, #30
 80019fe:	f043 7300 	orrls.w	r3, r3, #33554432	; 0x2000000
 8001a02:	ea43 5301 	orr.w	r3, r3, r1, lsl #20
 8001a06:	f44f 7140 	mov.w	r1, #768	; 0x300
 8001a0a:	fa91 f1a1 	rbit	r1, r1
 8001a0e:	f44f 7400 	mov.w	r4, #512	; 0x200
 8001a12:	fab1 f181 	clz	r1, r1
 8001a16:	f102 002c 	add.w	r0, r2, #44	; 0x2c
 8001a1a:	40cc      	lsrs	r4, r1
 8001a1c:	f850 1024 	ldr.w	r1, [r0, r4, lsl #2]
 8001a20:	f003 031f 	and.w	r3, r3, #31
 8001a24:	f021 011f 	bic.w	r1, r1, #31
 8001a28:	430b      	orrs	r3, r1
 8001a2a:	f840 3024 	str.w	r3, [r0, r4, lsl #2]
 8001a2e:	6cd3      	ldr	r3, [r2, #76]	; 0x4c
 8001a30:	6893      	ldr	r3, [r2, #8]
 8001a32:	f443 03a0 	orr.w	r3, r3, #5242880	; 0x500000
 8001a36:	6093      	str	r3, [r2, #8]
 8001a38:	6813      	ldr	r3, [r2, #0]
 8001a3a:	079b      	lsls	r3, r3, #30
 8001a3c:	d5fc      	bpl.n	8001a38 <RCM_ExecRegularConv+0x50>
 8001a3e:	6cd0      	ldr	r0, [r2, #76]	; 0x4c
 8001a40:	bc10      	pop	{r4}
 8001a42:	b280      	uxth	r0, r0
 8001a44:	4770      	bx	lr
 8001a46:	bf00      	nop
 8001a48:	20002164 	.word	0x20002164

08001a4c <RCM_ExecUserConv>:
 8001a4c:	b470      	push	{r4, r5, r6}
 8001a4e:	4c22      	ldr	r4, [pc, #136]	; (8001ad8 <RCM_ExecUserConv+0x8c>)
 8001a50:	7823      	ldrb	r3, [r4, #0]
 8001a52:	2b01      	cmp	r3, #1
 8001a54:	d001      	beq.n	8001a5a <RCM_ExecUserConv+0xe>
 8001a56:	bc70      	pop	{r4, r5, r6}
 8001a58:	4770      	bx	lr
 8001a5a:	4a20      	ldr	r2, [pc, #128]	; (8001adc <RCM_ExecUserConv+0x90>)
 8001a5c:	4b20      	ldr	r3, [pc, #128]	; (8001ae0 <RCM_ExecUserConv+0x94>)
 8001a5e:	7810      	ldrb	r0, [r2, #0]
 8001a60:	f853 2020 	ldr.w	r2, [r3, r0, lsl #2]
 8001a64:	7913      	ldrb	r3, [r2, #4]
 8001a66:	6812      	ldr	r2, [r2, #0]
 8001a68:	eb03 0143 	add.w	r1, r3, r3, lsl #1
 8001a6c:	2b09      	cmp	r3, #9
 8001a6e:	bf8c      	ite	hi
 8001a70:	391e      	subhi	r1, #30
 8001a72:	f043 7300 	orrls.w	r3, r3, #33554432	; 0x2000000
 8001a76:	ea43 5301 	orr.w	r3, r3, r1, lsl #20
 8001a7a:	f44f 7140 	mov.w	r1, #768	; 0x300
 8001a7e:	fa91 f1a1 	rbit	r1, r1
 8001a82:	f44f 7600 	mov.w	r6, #512	; 0x200
 8001a86:	fab1 f181 	clz	r1, r1
 8001a8a:	f102 052c 	add.w	r5, r2, #44	; 0x2c
 8001a8e:	40ce      	lsrs	r6, r1
 8001a90:	f855 1026 	ldr.w	r1, [r5, r6, lsl #2]
 8001a94:	f003 031f 	and.w	r3, r3, #31
 8001a98:	f021 011f 	bic.w	r1, r1, #31
 8001a9c:	430b      	orrs	r3, r1
 8001a9e:	f845 3026 	str.w	r3, [r5, r6, lsl #2]
 8001aa2:	6cd3      	ldr	r3, [r2, #76]	; 0x4c
 8001aa4:	6893      	ldr	r3, [r2, #8]
 8001aa6:	f443 03a0 	orr.w	r3, r3, #5242880	; 0x500000
 8001aaa:	6093      	str	r3, [r2, #8]
 8001aac:	6813      	ldr	r3, [r2, #0]
 8001aae:	079b      	lsls	r3, r3, #30
 8001ab0:	d5fc      	bpl.n	8001aac <RCM_ExecUserConv+0x60>
 8001ab2:	2602      	movs	r6, #2
 8001ab4:	4b0b      	ldr	r3, [pc, #44]	; (8001ae4 <RCM_ExecUserConv+0x98>)
 8001ab6:	6cd1      	ldr	r1, [r2, #76]	; 0x4c
 8001ab8:	f853 5030 	ldr.w	r5, [r3, r0, lsl #3]
 8001abc:	4a0a      	ldr	r2, [pc, #40]	; (8001ae8 <RCM_ExecUserConv+0x9c>)
 8001abe:	b289      	uxth	r1, r1
 8001ac0:	8011      	strh	r1, [r2, #0]
 8001ac2:	7026      	strb	r6, [r4, #0]
 8001ac4:	2d00      	cmp	r5, #0
 8001ac6:	d0c6      	beq.n	8001a56 <RCM_ExecUserConv+0xa>
 8001ac8:	2600      	movs	r6, #0
 8001aca:	eb03 03c0 	add.w	r3, r3, r0, lsl #3
 8001ace:	685a      	ldr	r2, [r3, #4]
 8001ad0:	7026      	strb	r6, [r4, #0]
 8001ad2:	462b      	mov	r3, r5
 8001ad4:	bc70      	pop	{r4, r5, r6}
 8001ad6:	4718      	bx	r3
 8001ad8:	20002160 	.word	0x20002160
 8001adc:	2000213c 	.word	0x2000213c
 8001ae0:	20002164 	.word	0x20002164
 8001ae4:	20002140 	.word	0x20002140
 8001ae8:	20002174 	.word	0x20002174

08001aec <ADC1_2_IRQHandler>:
 8001aec:	4a03      	ldr	r2, [pc, #12]	; (8001afc <ADC1_2_IRQHandler+0x10>)
 8001aee:	6813      	ldr	r3, [r2, #0]
 8001af0:	f023 030c 	bic.w	r3, r3, #12
 8001af4:	6013      	str	r3, [r2, #0]
 8001af6:	f7ff b9f9 	b.w	8000eec <TSK_HighFrequencyTask>
 8001afa:	bf00      	nop
 8001afc:	40012400 	.word	0x40012400

08001b00 <TIM1_UP_IRQHandler>:
 8001b00:	f06f 0201 	mvn.w	r2, #1
 8001b04:	4b02      	ldr	r3, [pc, #8]	; (8001b10 <TIM1_UP_IRQHandler+0x10>)
 8001b06:	4803      	ldr	r0, [pc, #12]	; (8001b14 <TIM1_UP_IRQHandler+0x14>)
 8001b08:	611a      	str	r2, [r3, #16]
 8001b0a:	f005 bc51 	b.w	80073b0 <R3_2_TIMx_UP_IRQHandler>
 8001b0e:	bf00      	nop
 8001b10:	40012c00 	.word	0x40012c00
 8001b14:	20000314 	.word	0x20000314

08001b18 <TIM1_BRK_IRQHandler>:
 8001b18:	4807      	ldr	r0, [pc, #28]	; (8001b38 <TIM1_BRK_IRQHandler+0x20>)
 8001b1a:	b508      	push	{r3, lr}
 8001b1c:	6f43      	ldr	r3, [r0, #116]	; 0x74
 8001b1e:	689b      	ldr	r3, [r3, #8]
 8001b20:	691a      	ldr	r2, [r3, #16]
 8001b22:	0612      	lsls	r2, r2, #24
 8001b24:	d504      	bpl.n	8001b30 <TIM1_BRK_IRQHandler+0x18>
 8001b26:	f06f 0280 	mvn.w	r2, #128	; 0x80
 8001b2a:	611a      	str	r2, [r3, #16]
 8001b2c:	f005 fc7a 	bl	8007424 <R3_2_BRK_IRQHandler>
 8001b30:	e8bd 4008 	ldmia.w	sp!, {r3, lr}
 8001b34:	f7ff b99e 	b.w	8000e74 <MC_Scheduler>
 8001b38:	20000314 	.word	0x20000314

08001b3c <TIM3_IRQHandler>:
 8001b3c:	b510      	push	{r4, lr}
 8001b3e:	4c0c      	ldr	r4, [pc, #48]	; (8001b70 <TIM3_IRQHandler+0x34>)
 8001b40:	6ae3      	ldr	r3, [r4, #44]	; 0x2c
 8001b42:	691a      	ldr	r2, [r3, #16]
 8001b44:	07d1      	lsls	r1, r2, #31
 8001b46:	d40b      	bmi.n	8001b60 <TIM3_IRQHandler+0x24>
 8001b48:	691a      	ldr	r2, [r3, #16]
 8001b4a:	0792      	lsls	r2, r2, #30
 8001b4c:	d400      	bmi.n	8001b50 <TIM3_IRQHandler+0x14>
 8001b4e:	bd10      	pop	{r4, pc}
 8001b50:	f06f 0202 	mvn.w	r2, #2
 8001b54:	e8bd 4010 	ldmia.w	sp!, {r4, lr}
 8001b58:	4805      	ldr	r0, [pc, #20]	; (8001b70 <TIM3_IRQHandler+0x34>)
 8001b5a:	611a      	str	r2, [r3, #16]
 8001b5c:	f004 bc58 	b.w	8006410 <HALL_TIMx_CC_IRQHandler>
 8001b60:	f06f 0201 	mvn.w	r2, #1
 8001b64:	4620      	mov	r0, r4
 8001b66:	611a      	str	r2, [r3, #16]
 8001b68:	f004 fdfa 	bl	8006760 <HALL_TIMx_UP_IRQHandler>
 8001b6c:	6ae3      	ldr	r3, [r4, #44]	; 0x2c
 8001b6e:	e7eb      	b.n	8001b48 <TIM3_IRQHandler+0xc>
 8001b70:	200000b4 	.word	0x200000b4

08001b74 <USART3_IRQHandler>:
 8001b74:	b530      	push	{r4, r5, lr}
 8001b76:	4c1c      	ldr	r4, [pc, #112]	; (8001be8 <USART3_IRQHandler+0x74>)
 8001b78:	b083      	sub	sp, #12
 8001b7a:	f8d4 3120 	ldr.w	r3, [r4, #288]	; 0x120
 8001b7e:	681d      	ldr	r5, [r3, #0]
 8001b80:	0729      	lsls	r1, r5, #28
 8001b82:	d419      	bmi.n	8001bb8 <USART3_IRQHandler+0x44>
 8001b84:	06aa      	lsls	r2, r5, #26
 8001b86:	d40a      	bmi.n	8001b9e <USART3_IRQHandler+0x2a>
 8001b88:	681b      	ldr	r3, [r3, #0]
 8001b8a:	061b      	lsls	r3, r3, #24
 8001b8c:	d401      	bmi.n	8001b92 <USART3_IRQHandler+0x1e>
 8001b8e:	b003      	add	sp, #12
 8001b90:	bd30      	pop	{r4, r5, pc}
 8001b92:	4815      	ldr	r0, [pc, #84]	; (8001be8 <USART3_IRQHandler+0x74>)
 8001b94:	b003      	add	sp, #12
 8001b96:	e8bd 4030 	ldmia.w	sp!, {r4, r5, lr}
 8001b9a:	f005 bea9 	b.w	80078f0 <UFCP_TX_IRQ_Handler>
 8001b9e:	6859      	ldr	r1, [r3, #4]
 8001ba0:	4811      	ldr	r0, [pc, #68]	; (8001be8 <USART3_IRQHandler+0x74>)
 8001ba2:	b2c9      	uxtb	r1, r1
 8001ba4:	f005 ff76 	bl	8007a94 <UFCP_RX_IRQ_Handler>
 8001ba8:	8803      	ldrh	r3, [r0, #0]
 8001baa:	2b01      	cmp	r3, #1
 8001bac:	d017      	beq.n	8001bde <USART3_IRQHandler+0x6a>
 8001bae:	2b02      	cmp	r3, #2
 8001bb0:	d012      	beq.n	8001bd8 <USART3_IRQHandler+0x64>
 8001bb2:	f8d4 3120 	ldr.w	r3, [r4, #288]	; 0x120
 8001bb6:	e7e7      	b.n	8001b88 <USART3_IRQHandler+0x14>
 8001bb8:	4620      	mov	r0, r4
 8001bba:	f005 ffd1 	bl	8007b60 <UFCP_OVR_IRQ_Handler>
 8001bbe:	f8d4 3120 	ldr.w	r3, [r4, #288]	; 0x120
 8001bc2:	681a      	ldr	r2, [r3, #0]
 8001bc4:	9201      	str	r2, [sp, #4]
 8001bc6:	9a01      	ldr	r2, [sp, #4]
 8001bc8:	685b      	ldr	r3, [r3, #4]
 8001bca:	9301      	str	r3, [sp, #4]
 8001bcc:	9b01      	ldr	r3, [sp, #4]
 8001bce:	f000 fa47 	bl	8002060 <UI_SerialCommunicationTimeOutStop>
 8001bd2:	f8d4 3120 	ldr.w	r3, [r4, #288]	; 0x120
 8001bd6:	e7d5      	b.n	8001b84 <USART3_IRQHandler+0x10>
 8001bd8:	f000 fa42 	bl	8002060 <UI_SerialCommunicationTimeOutStop>
 8001bdc:	e7e9      	b.n	8001bb2 <USART3_IRQHandler+0x3e>
 8001bde:	f000 fa45 	bl	800206c <UI_SerialCommunicationTimeOutStart>
 8001be2:	f8d4 3120 	ldr.w	r3, [r4, #288]	; 0x120
 8001be6:	e7cf      	b.n	8001b88 <USART3_IRQHandler+0x14>
 8001be8:	20000428 	.word	0x20000428

08001bec <HardFault_Handler>:
 8001bec:	b530      	push	{r4, r5, lr}
 8001bee:	4c1d      	ldr	r4, [pc, #116]	; (8001c64 <HardFault_Handler+0x78>)
 8001bf0:	b083      	sub	sp, #12
 8001bf2:	f7ff fa4f 	bl	8001094 <TSK_HardwareFaultTask>
 8001bf6:	4625      	mov	r5, r4
 8001bf8:	f8d4 3120 	ldr.w	r3, [r4, #288]	; 0x120
 8001bfc:	681a      	ldr	r2, [r3, #0]
 8001bfe:	0712      	lsls	r2, r2, #28
 8001c00:	d41d      	bmi.n	8001c3e <HardFault_Handler+0x52>
 8001c02:	681a      	ldr	r2, [r3, #0]
 8001c04:	0610      	lsls	r0, r2, #24
 8001c06:	d40f      	bmi.n	8001c28 <HardFault_Handler+0x3c>
 8001c08:	681a      	ldr	r2, [r3, #0]
 8001c0a:	0692      	lsls	r2, r2, #26
 8001c0c:	d5f6      	bpl.n	8001bfc <HardFault_Handler+0x10>
 8001c0e:	6859      	ldr	r1, [r3, #4]
 8001c10:	4628      	mov	r0, r5
 8001c12:	b2c9      	uxtb	r1, r1
 8001c14:	f005 ff3e 	bl	8007a94 <UFCP_RX_IRQ_Handler>
 8001c18:	8803      	ldrh	r3, [r0, #0]
 8001c1a:	2b01      	cmp	r3, #1
 8001c1c:	d01f      	beq.n	8001c5e <HardFault_Handler+0x72>
 8001c1e:	2b02      	cmp	r3, #2
 8001c20:	d1ea      	bne.n	8001bf8 <HardFault_Handler+0xc>
 8001c22:	f000 fa1d 	bl	8002060 <UI_SerialCommunicationTimeOutStop>
 8001c26:	e7e7      	b.n	8001bf8 <HardFault_Handler+0xc>
 8001c28:	4628      	mov	r0, r5
 8001c2a:	f005 fe61 	bl	80078f0 <UFCP_TX_IRQ_Handler>
 8001c2e:	f8d4 3120 	ldr.w	r3, [r4, #288]	; 0x120
 8001c32:	681a      	ldr	r2, [r3, #0]
 8001c34:	0691      	lsls	r1, r2, #26
 8001c36:	d4ea      	bmi.n	8001c0e <HardFault_Handler+0x22>
 8001c38:	681a      	ldr	r2, [r3, #0]
 8001c3a:	0712      	lsls	r2, r2, #28
 8001c3c:	d5e1      	bpl.n	8001c02 <HardFault_Handler+0x16>
 8001c3e:	4628      	mov	r0, r5
 8001c40:	f005 ff8e 	bl	8007b60 <UFCP_OVR_IRQ_Handler>
 8001c44:	f8d4 3120 	ldr.w	r3, [r4, #288]	; 0x120
 8001c48:	681a      	ldr	r2, [r3, #0]
 8001c4a:	9201      	str	r2, [sp, #4]
 8001c4c:	9a01      	ldr	r2, [sp, #4]
 8001c4e:	685b      	ldr	r3, [r3, #4]
 8001c50:	9301      	str	r3, [sp, #4]
 8001c52:	9b01      	ldr	r3, [sp, #4]
 8001c54:	f000 fa04 	bl	8002060 <UI_SerialCommunicationTimeOutStop>
 8001c58:	f8d4 3120 	ldr.w	r3, [r4, #288]	; 0x120
 8001c5c:	e7d1      	b.n	8001c02 <HardFault_Handler+0x16>
 8001c5e:	f000 fa05 	bl	800206c <UI_SerialCommunicationTimeOutStart>
 8001c62:	e7c9      	b.n	8001bf8 <HardFault_Handler+0xc>
 8001c64:	20000428 	.word	0x20000428

08001c68 <HAL_MspInit>:
 8001c68:	4b11      	ldr	r3, [pc, #68]	; (8001cb0 <HAL_MspInit+0x48>)
 8001c6a:	b510      	push	{r4, lr}
 8001c6c:	6998      	ldr	r0, [r3, #24]
 8001c6e:	b082      	sub	sp, #8
 8001c70:	f040 0001 	orr.w	r0, r0, #1
 8001c74:	6198      	str	r0, [r3, #24]
 8001c76:	699c      	ldr	r4, [r3, #24]
 8001c78:	2200      	movs	r2, #0
 8001c7a:	f004 0401 	and.w	r4, r4, #1
 8001c7e:	9400      	str	r4, [sp, #0]
 8001c80:	9c00      	ldr	r4, [sp, #0]
 8001c82:	69dc      	ldr	r4, [r3, #28]
 8001c84:	210f      	movs	r1, #15
 8001c86:	f044 5480 	orr.w	r4, r4, #268435456	; 0x10000000
 8001c8a:	61dc      	str	r4, [r3, #28]
 8001c8c:	69db      	ldr	r3, [r3, #28]
 8001c8e:	f06f 0001 	mvn.w	r0, #1
 8001c92:	f003 5380 	and.w	r3, r3, #268435456	; 0x10000000
 8001c96:	9301      	str	r3, [sp, #4]
 8001c98:	9b01      	ldr	r3, [sp, #4]
 8001c9a:	f000 ffe5 	bl	8002c68 <HAL_NVIC_SetPriority>
 8001c9e:	4a05      	ldr	r2, [pc, #20]	; (8001cb4 <HAL_MspInit+0x4c>)
 8001ca0:	6853      	ldr	r3, [r2, #4]
 8001ca2:	f023 63e0 	bic.w	r3, r3, #117440512	; 0x7000000
 8001ca6:	f043 7300 	orr.w	r3, r3, #33554432	; 0x2000000
 8001caa:	6053      	str	r3, [r2, #4]
 8001cac:	b002      	add	sp, #8
 8001cae:	bd10      	pop	{r4, pc}
 8001cb0:	40021000 	.word	0x40021000
 8001cb4:	40010000 	.word	0x40010000

08001cb8 <HAL_ADC_MspInit>:
 8001cb8:	b570      	push	{r4, r5, r6, lr}
 8001cba:	2400      	movs	r4, #0
 8001cbc:	6803      	ldr	r3, [r0, #0]
 8001cbe:	4a2f      	ldr	r2, [pc, #188]	; (8001d7c <HAL_ADC_MspInit+0xc4>)
 8001cc0:	b088      	sub	sp, #32
 8001cc2:	4293      	cmp	r3, r2
 8001cc4:	e9cd 4404 	strd	r4, r4, [sp, #16]
 8001cc8:	e9cd 4406 	strd	r4, r4, [sp, #24]
 8001ccc:	d004      	beq.n	8001cd8 <HAL_ADC_MspInit+0x20>
 8001cce:	4a2c      	ldr	r2, [pc, #176]	; (8001d80 <HAL_ADC_MspInit+0xc8>)
 8001cd0:	4293      	cmp	r3, r2
 8001cd2:	d036      	beq.n	8001d42 <HAL_ADC_MspInit+0x8a>
 8001cd4:	b008      	add	sp, #32
 8001cd6:	bd70      	pop	{r4, r5, r6, pc}
 8001cd8:	4605      	mov	r5, r0
 8001cda:	203d      	movs	r0, #61	; 0x3d
 8001cdc:	2603      	movs	r6, #3
 8001cde:	4b29      	ldr	r3, [pc, #164]	; (8001d84 <HAL_ADC_MspInit+0xcc>)
 8001ce0:	a904      	add	r1, sp, #16
 8001ce2:	699a      	ldr	r2, [r3, #24]
 8001ce4:	f442 7200 	orr.w	r2, r2, #512	; 0x200
 8001ce8:	619a      	str	r2, [r3, #24]
 8001cea:	699a      	ldr	r2, [r3, #24]
 8001cec:	f402 7200 	and.w	r2, r2, #512	; 0x200
 8001cf0:	9200      	str	r2, [sp, #0]
 8001cf2:	9a00      	ldr	r2, [sp, #0]
 8001cf4:	699a      	ldr	r2, [r3, #24]
 8001cf6:	f042 0204 	orr.w	r2, r2, #4
 8001cfa:	619a      	str	r2, [r3, #24]
 8001cfc:	699b      	ldr	r3, [r3, #24]
 8001cfe:	9004      	str	r0, [sp, #16]
 8001d00:	f003 0304 	and.w	r3, r3, #4
 8001d04:	9301      	str	r3, [sp, #4]
 8001d06:	4820      	ldr	r0, [pc, #128]	; (8001d88 <HAL_ADC_MspInit+0xd0>)
 8001d08:	9b01      	ldr	r3, [sp, #4]
 8001d0a:	9605      	str	r6, [sp, #20]
 8001d0c:	f001 f83c 	bl	8002d88 <HAL_GPIO_Init>
 8001d10:	f44f 7080 	mov.w	r0, #256	; 0x100
 8001d14:	f44f 6280 	mov.w	r2, #1024	; 0x400
 8001d18:	2320      	movs	r3, #32
 8001d1a:	4e1c      	ldr	r6, [pc, #112]	; (8001d8c <HAL_ADC_MspInit+0xd4>)
 8001d1c:	491c      	ldr	r1, [pc, #112]	; (8001d90 <HAL_ADC_MspInit+0xd8>)
 8001d1e:	6130      	str	r0, [r6, #16]
 8001d20:	4630      	mov	r0, r6
 8001d22:	e9c6 4401 	strd	r4, r4, [r6, #4]
 8001d26:	60f4      	str	r4, [r6, #12]
 8001d28:	61f4      	str	r4, [r6, #28]
 8001d2a:	6031      	str	r1, [r6, #0]
 8001d2c:	e9c6 2305 	strd	r2, r3, [r6, #20]
 8001d30:	f000 fff6 	bl	8002d20 <HAL_DMA_Init>
 8001d34:	b108      	cbz	r0, 8001d3a <HAL_ADC_MspInit+0x82>
 8001d36:	f7fe fcdd 	bl	80006f4 <Error_Handler>
 8001d3a:	622e      	str	r6, [r5, #32]
 8001d3c:	6275      	str	r5, [r6, #36]	; 0x24
 8001d3e:	b008      	add	sp, #32
 8001d40:	bd70      	pop	{r4, r5, r6, pc}
 8001d42:	2538      	movs	r5, #56	; 0x38
 8001d44:	2403      	movs	r4, #3
 8001d46:	4b0f      	ldr	r3, [pc, #60]	; (8001d84 <HAL_ADC_MspInit+0xcc>)
 8001d48:	a904      	add	r1, sp, #16
 8001d4a:	699a      	ldr	r2, [r3, #24]
 8001d4c:	480e      	ldr	r0, [pc, #56]	; (8001d88 <HAL_ADC_MspInit+0xd0>)
 8001d4e:	f442 6280 	orr.w	r2, r2, #1024	; 0x400
 8001d52:	619a      	str	r2, [r3, #24]
 8001d54:	699a      	ldr	r2, [r3, #24]
 8001d56:	f402 6280 	and.w	r2, r2, #1024	; 0x400
 8001d5a:	9202      	str	r2, [sp, #8]
 8001d5c:	9a02      	ldr	r2, [sp, #8]
 8001d5e:	699a      	ldr	r2, [r3, #24]
 8001d60:	f042 0204 	orr.w	r2, r2, #4
 8001d64:	619a      	str	r2, [r3, #24]
 8001d66:	699b      	ldr	r3, [r3, #24]
 8001d68:	9504      	str	r5, [sp, #16]
 8001d6a:	f003 0304 	and.w	r3, r3, #4
 8001d6e:	9303      	str	r3, [sp, #12]
 8001d70:	9b03      	ldr	r3, [sp, #12]
 8001d72:	9405      	str	r4, [sp, #20]
 8001d74:	f001 f808 	bl	8002d88 <HAL_GPIO_Init>
 8001d78:	b008      	add	sp, #32
 8001d7a:	bd70      	pop	{r4, r5, r6, pc}
 8001d7c:	40012400 	.word	0x40012400
 8001d80:	40012800 	.word	0x40012800
 8001d84:	40021000 	.word	0x40021000
 8001d88:	40010800 	.word	0x40010800
 8001d8c:	20001fbc 	.word	0x20001fbc
 8001d90:	40020008 	.word	0x40020008

08001d94 <HAL_TIM_Base_MspInit>:
 8001d94:	2300      	movs	r3, #0
 8001d96:	b510      	push	{r4, lr}
 8001d98:	6802      	ldr	r2, [r0, #0]
 8001d9a:	4920      	ldr	r1, [pc, #128]	; (8001e1c <HAL_TIM_Base_MspInit+0x88>)
 8001d9c:	b088      	sub	sp, #32
 8001d9e:	428a      	cmp	r2, r1
 8001da0:	e9cd 3304 	strd	r3, r3, [sp, #16]
 8001da4:	e9cd 3306 	strd	r3, r3, [sp, #24]
 8001da8:	d004      	beq.n	8001db4 <HAL_TIM_Base_MspInit+0x20>
 8001daa:	4b1d      	ldr	r3, [pc, #116]	; (8001e20 <HAL_TIM_Base_MspInit+0x8c>)
 8001dac:	429a      	cmp	r2, r3
 8001dae:	d010      	beq.n	8001dd2 <HAL_TIM_Base_MspInit+0x3e>
 8001db0:	b008      	add	sp, #32
 8001db2:	bd10      	pop	{r4, pc}
 8001db4:	f103 4380 	add.w	r3, r3, #1073741824	; 0x40000000
 8001db8:	f503 3304 	add.w	r3, r3, #135168	; 0x21000
 8001dbc:	699a      	ldr	r2, [r3, #24]
 8001dbe:	f442 6200 	orr.w	r2, r2, #2048	; 0x800
 8001dc2:	619a      	str	r2, [r3, #24]
 8001dc4:	699b      	ldr	r3, [r3, #24]
 8001dc6:	f403 6300 	and.w	r3, r3, #2048	; 0x800
 8001dca:	9301      	str	r3, [sp, #4]
 8001dcc:	9b01      	ldr	r3, [sp, #4]
 8001dce:	b008      	add	sp, #32
 8001dd0:	bd10      	pop	{r4, pc}
 8001dd2:	2431      	movs	r4, #49	; 0x31
 8001dd4:	f503 3303 	add.w	r3, r3, #134144	; 0x20c00
 8001dd8:	69da      	ldr	r2, [r3, #28]
 8001dda:	a904      	add	r1, sp, #16
 8001ddc:	f042 0202 	orr.w	r2, r2, #2
 8001de0:	61da      	str	r2, [r3, #28]
 8001de2:	69da      	ldr	r2, [r3, #28]
 8001de4:	480f      	ldr	r0, [pc, #60]	; (8001e24 <HAL_TIM_Base_MspInit+0x90>)
 8001de6:	f002 0202 	and.w	r2, r2, #2
 8001dea:	9202      	str	r2, [sp, #8]
 8001dec:	9a02      	ldr	r2, [sp, #8]
 8001dee:	699a      	ldr	r2, [r3, #24]
 8001df0:	f042 0208 	orr.w	r2, r2, #8
 8001df4:	619a      	str	r2, [r3, #24]
 8001df6:	699b      	ldr	r3, [r3, #24]
 8001df8:	9404      	str	r4, [sp, #16]
 8001dfa:	f003 0308 	and.w	r3, r3, #8
 8001dfe:	9303      	str	r3, [sp, #12]
 8001e00:	9b03      	ldr	r3, [sp, #12]
 8001e02:	f000 ffc1 	bl	8002d88 <HAL_GPIO_Init>
 8001e06:	4a08      	ldr	r2, [pc, #32]	; (8001e28 <HAL_TIM_Base_MspInit+0x94>)
 8001e08:	6853      	ldr	r3, [r2, #4]
 8001e0a:	f423 6340 	bic.w	r3, r3, #3072	; 0xc00
 8001e0e:	f043 63e0 	orr.w	r3, r3, #117440512	; 0x7000000
 8001e12:	f443 6300 	orr.w	r3, r3, #2048	; 0x800
 8001e16:	6053      	str	r3, [r2, #4]
 8001e18:	b008      	add	sp, #32
 8001e1a:	bd10      	pop	{r4, pc}
 8001e1c:	40012c00 	.word	0x40012c00
 8001e20:	40000400 	.word	0x40000400
 8001e24:	40010c00 	.word	0x40010c00
 8001e28:	40010000 	.word	0x40010000

08001e2c <HAL_TIM_MspPostInit>:
 8001e2c:	2300      	movs	r3, #0
 8001e2e:	b530      	push	{r4, r5, lr}
 8001e30:	6801      	ldr	r1, [r0, #0]
 8001e32:	4a1b      	ldr	r2, [pc, #108]	; (8001ea0 <HAL_TIM_MspPostInit+0x74>)
 8001e34:	b087      	sub	sp, #28
 8001e36:	4291      	cmp	r1, r2
 8001e38:	e9cd 3302 	strd	r3, r3, [sp, #8]
 8001e3c:	e9cd 3304 	strd	r3, r3, [sp, #16]
 8001e40:	d001      	beq.n	8001e46 <HAL_TIM_MspPostInit+0x1a>
 8001e42:	b007      	add	sp, #28
 8001e44:	bd30      	pop	{r4, r5, pc}
 8001e46:	f44f 4160 	mov.w	r1, #57344	; 0xe000
 8001e4a:	2502      	movs	r5, #2
 8001e4c:	2403      	movs	r4, #3
 8001e4e:	f103 4380 	add.w	r3, r3, #1073741824	; 0x40000000
 8001e52:	f503 3304 	add.w	r3, r3, #135168	; 0x21000
 8001e56:	699a      	ldr	r2, [r3, #24]
 8001e58:	4812      	ldr	r0, [pc, #72]	; (8001ea4 <HAL_TIM_MspPostInit+0x78>)
 8001e5a:	f042 0208 	orr.w	r2, r2, #8
 8001e5e:	619a      	str	r2, [r3, #24]
 8001e60:	699a      	ldr	r2, [r3, #24]
 8001e62:	f002 0208 	and.w	r2, r2, #8
 8001e66:	9200      	str	r2, [sp, #0]
 8001e68:	9a00      	ldr	r2, [sp, #0]
 8001e6a:	699a      	ldr	r2, [r3, #24]
 8001e6c:	f042 0204 	orr.w	r2, r2, #4
 8001e70:	619a      	str	r2, [r3, #24]
 8001e72:	699b      	ldr	r3, [r3, #24]
 8001e74:	9102      	str	r1, [sp, #8]
 8001e76:	f003 0304 	and.w	r3, r3, #4
 8001e7a:	9301      	str	r3, [sp, #4]
 8001e7c:	a902      	add	r1, sp, #8
 8001e7e:	9b01      	ldr	r3, [sp, #4]
 8001e80:	9503      	str	r5, [sp, #12]
 8001e82:	9405      	str	r4, [sp, #20]
 8001e84:	f000 ff80 	bl	8002d88 <HAL_GPIO_Init>
 8001e88:	f44f 63e0 	mov.w	r3, #1792	; 0x700
 8001e8c:	a902      	add	r1, sp, #8
 8001e8e:	4806      	ldr	r0, [pc, #24]	; (8001ea8 <HAL_TIM_MspPostInit+0x7c>)
 8001e90:	9503      	str	r5, [sp, #12]
 8001e92:	9405      	str	r4, [sp, #20]
 8001e94:	9302      	str	r3, [sp, #8]
 8001e96:	f000 ff77 	bl	8002d88 <HAL_GPIO_Init>
 8001e9a:	b007      	add	sp, #28
 8001e9c:	bd30      	pop	{r4, r5, pc}
 8001e9e:	bf00      	nop
 8001ea0:	40012c00 	.word	0x40012c00
 8001ea4:	40010c00 	.word	0x40010c00
 8001ea8:	40010800 	.word	0x40010800

08001eac <HAL_UART_MspInit>:
 8001eac:	b530      	push	{r4, r5, lr}
 8001eae:	2400      	movs	r4, #0
 8001eb0:	6802      	ldr	r2, [r0, #0]
 8001eb2:	4b19      	ldr	r3, [pc, #100]	; (8001f18 <HAL_UART_MspInit+0x6c>)
 8001eb4:	b087      	sub	sp, #28
 8001eb6:	429a      	cmp	r2, r3
 8001eb8:	e9cd 4402 	strd	r4, r4, [sp, #8]
 8001ebc:	e9cd 4404 	strd	r4, r4, [sp, #16]
 8001ec0:	d001      	beq.n	8001ec6 <HAL_UART_MspInit+0x1a>
 8001ec2:	b007      	add	sp, #28
 8001ec4:	bd30      	pop	{r4, r5, pc}
 8001ec6:	f44f 6180 	mov.w	r1, #1024	; 0x400
 8001eca:	2502      	movs	r5, #2
 8001ecc:	f503 33e4 	add.w	r3, r3, #116736	; 0x1c800
 8001ed0:	69da      	ldr	r2, [r3, #28]
 8001ed2:	4812      	ldr	r0, [pc, #72]	; (8001f1c <HAL_UART_MspInit+0x70>)
 8001ed4:	f442 2280 	orr.w	r2, r2, #262144	; 0x40000
 8001ed8:	61da      	str	r2, [r3, #28]
 8001eda:	69da      	ldr	r2, [r3, #28]
 8001edc:	f402 2280 	and.w	r2, r2, #262144	; 0x40000
 8001ee0:	9200      	str	r2, [sp, #0]
 8001ee2:	9a00      	ldr	r2, [sp, #0]
 8001ee4:	699a      	ldr	r2, [r3, #24]
 8001ee6:	f042 0208 	orr.w	r2, r2, #8
 8001eea:	619a      	str	r2, [r3, #24]
 8001eec:	699b      	ldr	r3, [r3, #24]
 8001eee:	9102      	str	r1, [sp, #8]
 8001ef0:	f003 0308 	and.w	r3, r3, #8
 8001ef4:	9301      	str	r3, [sp, #4]
 8001ef6:	a902      	add	r1, sp, #8
 8001ef8:	9b01      	ldr	r3, [sp, #4]
 8001efa:	9503      	str	r5, [sp, #12]
 8001efc:	9505      	str	r5, [sp, #20]
 8001efe:	f000 ff43 	bl	8002d88 <HAL_GPIO_Init>
 8001f02:	f44f 6300 	mov.w	r3, #2048	; 0x800
 8001f06:	a902      	add	r1, sp, #8
 8001f08:	4804      	ldr	r0, [pc, #16]	; (8001f1c <HAL_UART_MspInit+0x70>)
 8001f0a:	e9cd 4403 	strd	r4, r4, [sp, #12]
 8001f0e:	9302      	str	r3, [sp, #8]
 8001f10:	f000 ff3a 	bl	8002d88 <HAL_GPIO_Init>
 8001f14:	b007      	add	sp, #28
 8001f16:	bd30      	pop	{r4, r5, pc}
 8001f18:	40004800 	.word	0x40004800
 8001f1c:	40010c00 	.word	0x40010c00

08001f20 <HAL_InitTick>:
 8001f20:	b530      	push	{r4, r5, lr}
 8001f22:	4601      	mov	r1, r0
 8001f24:	b089      	sub	sp, #36	; 0x24
 8001f26:	2200      	movs	r2, #0
 8001f28:	201e      	movs	r0, #30
 8001f2a:	f000 fe9d 	bl	8002c68 <HAL_NVIC_SetPriority>
 8001f2e:	201e      	movs	r0, #30
 8001f30:	f000 fed0 	bl	8002cd4 <HAL_NVIC_EnableIRQ>
 8001f34:	4b15      	ldr	r3, [pc, #84]	; (8001f8c <HAL_InitTick+0x6c>)
 8001f36:	a901      	add	r1, sp, #4
 8001f38:	69da      	ldr	r2, [r3, #28]
 8001f3a:	a803      	add	r0, sp, #12
 8001f3c:	f042 0204 	orr.w	r2, r2, #4
 8001f40:	61da      	str	r2, [r3, #28]
 8001f42:	69db      	ldr	r3, [r3, #28]
 8001f44:	4d12      	ldr	r5, [pc, #72]	; (8001f90 <HAL_InitTick+0x70>)
 8001f46:	f003 0304 	and.w	r3, r3, #4
 8001f4a:	9302      	str	r3, [sp, #8]
 8001f4c:	9b02      	ldr	r3, [sp, #8]
 8001f4e:	f001 fb09 	bl	8003564 <HAL_RCC_GetClockConfig>
 8001f52:	f001 fae7 	bl	8003524 <HAL_RCC_GetPCLK1Freq>
 8001f56:	2200      	movs	r2, #0
 8001f58:	f240 31e7 	movw	r1, #999	; 0x3e7
 8001f5c:	0043      	lsls	r3, r0, #1
 8001f5e:	fba5 0303 	umull	r0, r3, r5, r3
 8001f62:	4c0c      	ldr	r4, [pc, #48]	; (8001f94 <HAL_InitTick+0x74>)
 8001f64:	4d0c      	ldr	r5, [pc, #48]	; (8001f98 <HAL_InitTick+0x78>)
 8001f66:	0c9b      	lsrs	r3, r3, #18
 8001f68:	3b01      	subs	r3, #1
 8001f6a:	4620      	mov	r0, r4
 8001f6c:	e9c4 5300 	strd	r5, r3, [r4]
 8001f70:	e9c4 1203 	strd	r1, r2, [r4, #12]
 8001f74:	60a2      	str	r2, [r4, #8]
 8001f76:	f001 fb97 	bl	80036a8 <HAL_TIM_Base_Init>
 8001f7a:	b110      	cbz	r0, 8001f82 <HAL_InitTick+0x62>
 8001f7c:	2001      	movs	r0, #1
 8001f7e:	b009      	add	sp, #36	; 0x24
 8001f80:	bd30      	pop	{r4, r5, pc}
 8001f82:	4620      	mov	r0, r4
 8001f84:	f001 fbf0 	bl	8003768 <HAL_TIM_Base_Start_IT>
 8001f88:	b009      	add	sp, #36	; 0x24
 8001f8a:	bd30      	pop	{r4, r5, pc}
 8001f8c:	40021000 	.word	0x40021000
 8001f90:	431bde83 	.word	0x431bde83
 8001f94:	20002178 	.word	0x20002178
 8001f98:	40000800 	.word	0x40000800

08001f9c <TIM4_IRQHandler>:
 8001f9c:	4801      	ldr	r0, [pc, #4]	; (8001fa4 <TIM4_IRQHandler+0x8>)
 8001f9e:	f001 be9d 	b.w	8003cdc <HAL_TIM_IRQHandler>
 8001fa2:	bf00      	nop
 8001fa4:	20002178 	.word	0x20002178

08001fa8 <UI_TaskInit>:
 8001fa8:	f8df c070 	ldr.w	ip, [pc, #112]	; 800201c <UI_TaskInit+0x74>
 8001fac:	e92d 47f0 	stmdb	sp!, {r4, r5, r6, r7, r8, r9, sl, lr}
 8001fb0:	4664      	mov	r4, ip
 8001fb2:	460f      	mov	r7, r1
 8001fb4:	4690      	mov	r8, r2
 8001fb6:	4699      	mov	r9, r3
 8001fb8:	4d12      	ldr	r5, [pc, #72]	; (8002004 <UI_TaskInit+0x5c>)
 8001fba:	4682      	mov	sl, r0
 8001fbc:	cd0f      	ldmia	r5!, {r0, r1, r2, r3}
 8001fbe:	c40f      	stmia	r4!, {r0, r1, r2, r3}
 8001fc0:	e895 0003 	ldmia.w	r5, {r0, r1}
 8001fc4:	4e10      	ldr	r6, [pc, #64]	; (8002008 <UI_TaskInit+0x60>)
 8001fc6:	4d11      	ldr	r5, [pc, #68]	; (800200c <UI_TaskInit+0x64>)
 8001fc8:	b082      	sub	sp, #8
 8001fca:	e884 0003 	stmia.w	r4, {r0, r1}
 8001fce:	4630      	mov	r0, r6
 8001fd0:	f8c5 c000 	str.w	ip, [r5]
 8001fd4:	9c0a      	ldr	r4, [sp, #40]	; 0x28
 8001fd6:	f005 fc89 	bl	80078ec <UFCP_Init>
 8001fda:	4b0d      	ldr	r3, [pc, #52]	; (8002010 <UI_TaskInit+0x68>)
 8001fdc:	6828      	ldr	r0, [r5, #0]
 8001fde:	4631      	mov	r1, r6
 8001fe0:	9300      	str	r3, [sp, #0]
 8001fe2:	9401      	str	r4, [sp, #4]
 8001fe4:	4b0b      	ldr	r3, [pc, #44]	; (8002014 <UI_TaskInit+0x6c>)
 8001fe6:	4a0c      	ldr	r2, [pc, #48]	; (8002018 <UI_TaskInit+0x70>)
 8001fe8:	f7ff fbec 	bl	80017c4 <MCP_Init>
 8001fec:	464b      	mov	r3, r9
 8001fee:	4642      	mov	r2, r8
 8001ff0:	4639      	mov	r1, r7
 8001ff2:	6828      	ldr	r0, [r5, #0]
 8001ff4:	f8cd a028 	str.w	sl, [sp, #40]	; 0x28
 8001ff8:	b002      	add	sp, #8
 8001ffa:	e8bd 47f0 	ldmia.w	sp!, {r4, r5, r6, r7, r8, r9, sl, lr}
 8001ffe:	f000 b83b 	b.w	8002078 <UI_Init>
 8002002:	bf00      	nop
 8002004:	20000598 	.word	0x20000598
 8002008:	20000428 	.word	0x20000428
 800200c:	200005c4 	.word	0x200005c4
 8002010:	08007b7d 	.word	0x08007b7d
 8002014:	08007951 	.word	0x08007951
 8002018:	08007975 	.word	0x08007975
 800201c:	200021c0 	.word	0x200021c0

08002020 <UI_Scheduler>:
 8002020:	4a0c      	ldr	r2, [pc, #48]	; (8002054 <UI_Scheduler+0x34>)
 8002022:	8813      	ldrh	r3, [r2, #0]
 8002024:	b29b      	uxth	r3, r3
 8002026:	b11b      	cbz	r3, 8002030 <UI_Scheduler+0x10>
 8002028:	8813      	ldrh	r3, [r2, #0]
 800202a:	3b01      	subs	r3, #1
 800202c:	b29b      	uxth	r3, r3
 800202e:	8013      	strh	r3, [r2, #0]
 8002030:	4a09      	ldr	r2, [pc, #36]	; (8002058 <UI_Scheduler+0x38>)
 8002032:	8813      	ldrh	r3, [r2, #0]
 8002034:	2b01      	cmp	r3, #1
 8002036:	d903      	bls.n	8002040 <UI_Scheduler+0x20>
 8002038:	8813      	ldrh	r3, [r2, #0]
 800203a:	3b01      	subs	r3, #1
 800203c:	b29b      	uxth	r3, r3
 800203e:	8013      	strh	r3, [r2, #0]
 8002040:	4a06      	ldr	r2, [pc, #24]	; (800205c <UI_Scheduler+0x3c>)
 8002042:	8813      	ldrh	r3, [r2, #0]
 8002044:	2b01      	cmp	r3, #1
 8002046:	d903      	bls.n	8002050 <UI_Scheduler+0x30>
 8002048:	8813      	ldrh	r3, [r2, #0]
 800204a:	3b01      	subs	r3, #1
 800204c:	b29b      	uxth	r3, r3
 800204e:	8013      	strh	r3, [r2, #0]
 8002050:	4770      	bx	lr
 8002052:	bf00      	nop
 8002054:	200005c2 	.word	0x200005c2
 8002058:	200005c0 	.word	0x200005c0
 800205c:	20000568 	.word	0x20000568

08002060 <UI_SerialCommunicationTimeOutStop>:
 8002060:	2200      	movs	r2, #0
 8002062:	4b01      	ldr	r3, [pc, #4]	; (8002068 <UI_SerialCommunicationTimeOutStop+0x8>)
 8002064:	801a      	strh	r2, [r3, #0]
 8002066:	4770      	bx	lr
 8002068:	200005c0 	.word	0x200005c0

0800206c <UI_SerialCommunicationTimeOutStart>:
 800206c:	224f      	movs	r2, #79	; 0x4f
 800206e:	4b01      	ldr	r3, [pc, #4]	; (8002074 <UI_SerialCommunicationTimeOutStart+0x8>)
 8002070:	801a      	strh	r2, [r3, #0]
 8002072:	4770      	bx	lr
 8002074:	200005c0 	.word	0x200005c0

08002078 <UI_Init>:
 8002078:	b430      	push	{r4, r5}
 800207a:	2500      	movs	r5, #0
 800207c:	9c02      	ldr	r4, [sp, #8]
 800207e:	7505      	strb	r5, [r0, #20]
 8002080:	6104      	str	r4, [r0, #16]
 8002082:	7101      	strb	r1, [r0, #4]
 8002084:	e9c0 2302 	strd	r2, r3, [r0, #8]
 8002088:	bc30      	pop	{r4, r5}
 800208a:	4770      	bx	lr

0800208c <UI_SelectMC>:
 800208c:	7903      	ldrb	r3, [r0, #4]
 800208e:	428b      	cmp	r3, r1
 8002090:	bf86      	itte	hi
 8002092:	7501      	strbhi	r1, [r0, #20]
 8002094:	2001      	movhi	r0, #1
 8002096:	2000      	movls	r0, #0
 8002098:	4770      	bx	lr
 800209a:	bf00      	nop

0800209c <UI_GetSelectedMC>:
 800209c:	7d00      	ldrb	r0, [r0, #20]
 800209e:	4770      	bx	lr

080020a0 <UI_SetReg>:
 80020a0:	b530      	push	{r4, r5, lr}
 80020a2:	e9d0 5402 	ldrd	r5, r4, [r0, #8]
 80020a6:	7d03      	ldrb	r3, [r0, #20]
 80020a8:	b085      	sub	sp, #20
 80020aa:	f855 5023 	ldr.w	r5, [r5, r3, lsl #2]
 80020ae:	f854 3023 	ldr.w	r3, [r4, r3, lsl #2]
 80020b2:	295b      	cmp	r1, #91	; 0x5b
 80020b4:	f200 80a0 	bhi.w	80021f8 <UI_SetReg+0x158>
 80020b8:	e8df f001 	tbb	[pc, r1]
 80020bc:	3f9e9e3b 	.word	0x3f9e9e3b
 80020c0:	524c469e 	.word	0x524c469e
 80020c4:	726c6658 	.word	0x726c6658
 80020c8:	928c8678 	.word	0x928c8678
 80020cc:	9e9e9e9e 	.word	0x9e9e9e9e
 80020d0:	9e9e9e9e 	.word	0x9e9e9e9e
 80020d4:	9e9e9e9e 	.word	0x9e9e9e9e
 80020d8:	9e9e9e9e 	.word	0x9e9e9e9e
 80020dc:	9e9e9e9e 	.word	0x9e9e9e9e
 80020e0:	9e9e9e9e 	.word	0x9e9e9e9e
 80020e4:	9e9e9e9e 	.word	0x9e9e9e9e
 80020e8:	9e9e9e9e 	.word	0x9e9e9e9e
 80020ec:	9e9e9e9e 	.word	0x9e9e9e9e
 80020f0:	9e9e9e9e 	.word	0x9e9e9e9e
 80020f4:	9e9e9e9e 	.word	0x9e9e9e9e
 80020f8:	9e9e9e9e 	.word	0x9e9e9e9e
 80020fc:	9e9e989e 	.word	0x9e9e989e
 8002100:	9e9e9e9e 	.word	0x9e9e9e9e
 8002104:	9e9e9e9e 	.word	0x9e9e9e9e
 8002108:	9e9e9e9e 	.word	0x9e9e9e9e
 800210c:	9e9e9e9e 	.word	0x9e9e9e9e
 8002110:	9e9e9e9e 	.word	0x9e9e9e9e
 8002114:	2e9e9e9e 	.word	0x2e9e9e9e
 8002118:	4942      	ldr	r1, [pc, #264]	; (8002224 <UI_SetReg+0x184>)
 800211a:	4628      	mov	r0, r5
 800211c:	fb81 3102 	smull	r3, r1, r1, r2
 8002120:	eba1 71e2 	sub.w	r1, r1, r2, asr #31
 8002124:	b209      	sxth	r1, r1
 8002126:	2200      	movs	r2, #0
 8002128:	f7fe faf2 	bl	8000710 <MCI_ExecSpeedRamp>
 800212c:	2001      	movs	r0, #1
 800212e:	b005      	add	sp, #20
 8002130:	bd30      	pop	{r4, r5, pc}
 8002132:	b2d1      	uxtb	r1, r2
 8002134:	f7ff ffaa 	bl	800208c <UI_SelectMC>
 8002138:	e7f9      	b.n	800212e <UI_SetReg+0x8e>
 800213a:	f012 04ff 	ands.w	r4, r2, #255	; 0xff
 800213e:	d05d      	beq.n	80021fc <UI_SetReg+0x15c>
 8002140:	2c01      	cmp	r4, #1
 8002142:	d065      	beq.n	8002210 <UI_SetReg+0x170>
 8002144:	2001      	movs	r0, #1
 8002146:	e7f2      	b.n	800212e <UI_SetReg+0x8e>
 8002148:	6818      	ldr	r0, [r3, #0]
 800214a:	b211      	sxth	r1, r2
 800214c:	f004 fc50 	bl	80069f0 <PID_SetKP>
 8002150:	2001      	movs	r0, #1
 8002152:	e7ec      	b.n	800212e <UI_SetReg+0x8e>
 8002154:	6818      	ldr	r0, [r3, #0]
 8002156:	b211      	sxth	r1, r2
 8002158:	f004 fc4c 	bl	80069f4 <PID_SetKI>
 800215c:	2001      	movs	r0, #1
 800215e:	e7e6      	b.n	800212e <UI_SetReg+0x8e>
 8002160:	6818      	ldr	r0, [r3, #0]
 8002162:	b211      	sxth	r1, r2
 8002164:	f004 fc56 	bl	8006a14 <PID_SetKD>
 8002168:	2001      	movs	r0, #1
 800216a:	e7e0      	b.n	800212e <UI_SetReg+0x8e>
 800216c:	4628      	mov	r0, r5
 800216e:	9201      	str	r2, [sp, #4]
 8002170:	f7fe fb78 	bl	8000864 <MCI_GetIqdref>
 8002174:	9a01      	ldr	r2, [sp, #4]
 8002176:	9003      	str	r0, [sp, #12]
 8002178:	f8ad 200c 	strh.w	r2, [sp, #12]
 800217c:	4628      	mov	r0, r5
 800217e:	9903      	ldr	r1, [sp, #12]
 8002180:	f7fe fada 	bl	8000738 <MCI_SetCurrentReferences>
 8002184:	2001      	movs	r0, #1
 8002186:	e7d2      	b.n	800212e <UI_SetReg+0x8e>
 8002188:	6858      	ldr	r0, [r3, #4]
 800218a:	b211      	sxth	r1, r2
 800218c:	f004 fc30 	bl	80069f0 <PID_SetKP>
 8002190:	2001      	movs	r0, #1
 8002192:	e7cc      	b.n	800212e <UI_SetReg+0x8e>
 8002194:	6858      	ldr	r0, [r3, #4]
 8002196:	b211      	sxth	r1, r2
 8002198:	f004 fc2c 	bl	80069f4 <PID_SetKI>
 800219c:	2001      	movs	r0, #1
 800219e:	e7c6      	b.n	800212e <UI_SetReg+0x8e>
 80021a0:	6858      	ldr	r0, [r3, #4]
 80021a2:	b211      	sxth	r1, r2
 80021a4:	f004 fc36 	bl	8006a14 <PID_SetKD>
 80021a8:	2001      	movs	r0, #1
 80021aa:	e7c0      	b.n	800212e <UI_SetReg+0x8e>
 80021ac:	4628      	mov	r0, r5
 80021ae:	9201      	str	r2, [sp, #4]
 80021b0:	f7fe fb58 	bl	8000864 <MCI_GetIqdref>
 80021b4:	9a01      	ldr	r2, [sp, #4]
 80021b6:	9003      	str	r0, [sp, #12]
 80021b8:	f8ad 200e 	strh.w	r2, [sp, #14]
 80021bc:	4628      	mov	r0, r5
 80021be:	9903      	ldr	r1, [sp, #12]
 80021c0:	f7fe faba 	bl	8000738 <MCI_SetCurrentReferences>
 80021c4:	2001      	movs	r0, #1
 80021c6:	e7b2      	b.n	800212e <UI_SetReg+0x8e>
 80021c8:	6898      	ldr	r0, [r3, #8]
 80021ca:	b211      	sxth	r1, r2
 80021cc:	f004 fc10 	bl	80069f0 <PID_SetKP>
 80021d0:	2001      	movs	r0, #1
 80021d2:	e7ac      	b.n	800212e <UI_SetReg+0x8e>
 80021d4:	6898      	ldr	r0, [r3, #8]
 80021d6:	b211      	sxth	r1, r2
 80021d8:	f004 fc0c 	bl	80069f4 <PID_SetKI>
 80021dc:	2001      	movs	r0, #1
 80021de:	e7a6      	b.n	800212e <UI_SetReg+0x8e>
 80021e0:	6898      	ldr	r0, [r3, #8]
 80021e2:	b211      	sxth	r1, r2
 80021e4:	f004 fc16 	bl	8006a14 <PID_SetKD>
 80021e8:	2001      	movs	r0, #1
 80021ea:	e7a0      	b.n	800212e <UI_SetReg+0x8e>
 80021ec:	4628      	mov	r0, r5
 80021ee:	b211      	sxth	r1, r2
 80021f0:	f7fe fb58 	bl	80008a4 <MCI_SetIdref>
 80021f4:	2001      	movs	r0, #1
 80021f6:	e79a      	b.n	800212e <UI_SetReg+0x8e>
 80021f8:	2000      	movs	r0, #0
 80021fa:	e798      	b.n	800212e <UI_SetReg+0x8e>
 80021fc:	4628      	mov	r0, r5
 80021fe:	f7fe fb4d 	bl	800089c <MCI_GetTeref>
 8002202:	4622      	mov	r2, r4
 8002204:	4601      	mov	r1, r0
 8002206:	4628      	mov	r0, r5
 8002208:	f7fe fa8a 	bl	8000720 <MCI_ExecTorqueRamp>
 800220c:	2001      	movs	r0, #1
 800220e:	e78e      	b.n	800212e <UI_SetReg+0x8e>
 8002210:	4628      	mov	r0, r5
 8002212:	f7fe fb0b 	bl	800082c <MCI_GetMecSpeedRefUnit>
 8002216:	2200      	movs	r2, #0
 8002218:	4601      	mov	r1, r0
 800221a:	4628      	mov	r0, r5
 800221c:	f7fe fa78 	bl	8000710 <MCI_ExecSpeedRamp>
 8002220:	4620      	mov	r0, r4
 8002222:	e784      	b.n	800212e <UI_SetReg+0x8e>
 8002224:	2aaaaaab 	.word	0x2aaaaaab

08002228 <UI_GetReg>:
 8002228:	b570      	push	{r4, r5, r6, lr}
 800222a:	e9d0 4502 	ldrd	r4, r5, [r0, #8]
 800222e:	7d03      	ldrb	r3, [r0, #20]
 8002230:	b08c      	sub	sp, #48	; 0x30
 8002232:	f855 5023 	ldr.w	r5, [r5, r3, lsl #2]
 8002236:	f854 4023 	ldr.w	r4, [r4, r3, lsl #2]
 800223a:	2a00      	cmp	r2, #0
 800223c:	f000 8089 	beq.w	8002352 <UI_GetReg+0x12a>
 8002240:	2601      	movs	r6, #1
 8002242:	7016      	strb	r6, [r2, #0]
 8002244:	2981      	cmp	r1, #129	; 0x81
 8002246:	f200 81db 	bhi.w	8002600 <UI_GetReg+0x3d8>
 800224a:	e8df f011 	tbh	[pc, r1, lsl #1]
 800224e:	0163      	.short	0x0163
 8002250:	0159015d 	.word	0x0159015d
 8002254:	01b601bd 	.word	0x01b601bd
 8002258:	01ae01b2 	.word	0x01ae01b2
 800225c:	00ff0194 	.word	0x00ff0194
 8002260:	0178017c 	.word	0x0178017c
 8002264:	00fa0174 	.word	0x00fa0174
 8002268:	016a016e 	.word	0x016a016e
 800226c:	01d90166 	.word	0x01d90166
 8002270:	01d901d9 	.word	0x01d901d9
 8002274:	01d901d9 	.word	0x01d901d9
 8002278:	01d901d9 	.word	0x01d901d9
 800227c:	01d901d9 	.word	0x01d901d9
 8002280:	01a101a5 	.word	0x01a101a5
 8002284:	01d9019d 	.word	0x01d9019d
 8002288:	01d201d9 	.word	0x01d201d9
 800228c:	01c801cd 	.word	0x01c801cd
 8002290:	01c101d9 	.word	0x01c101d9
 8002294:	014f0154 	.word	0x014f0154
 8002298:	01980180 	.word	0x01980180
 800229c:	01c801cd 	.word	0x01c801cd
 80022a0:	00fa00ff 	.word	0x00fa00ff
 80022a4:	018f01a9 	.word	0x018f01a9
 80022a8:	0185018a 	.word	0x0185018a
 80022ac:	0127013b 	.word	0x0127013b
 80022b0:	01d901d9 	.word	0x01d901d9
 80022b4:	01d901d9 	.word	0x01d901d9
 80022b8:	01d901d9 	.word	0x01d901d9
 80022bc:	01d901d9 	.word	0x01d901d9
 80022c0:	01d901d9 	.word	0x01d901d9
 80022c4:	01d901d9 	.word	0x01d901d9
 80022c8:	01d901d9 	.word	0x01d901d9
 80022cc:	01190120 	.word	0x01190120
 80022d0:	01d900fa 	.word	0x01d900fa
 80022d4:	01d901d9 	.word	0x01d901d9
 80022d8:	01d901d9 	.word	0x01d901d9
 80022dc:	01d901d9 	.word	0x01d901d9
 80022e0:	01d901d9 	.word	0x01d901d9
 80022e4:	01d901d9 	.word	0x01d901d9
 80022e8:	01d901d9 	.word	0x01d901d9
 80022ec:	01d901d9 	.word	0x01d901d9
 80022f0:	01d901d9 	.word	0x01d901d9
 80022f4:	01d901d9 	.word	0x01d901d9
 80022f8:	01d901d9 	.word	0x01d901d9
 80022fc:	01d901d9 	.word	0x01d901d9
 8002300:	01d901d9 	.word	0x01d901d9
 8002304:	01d90108 	.word	0x01d90108
 8002308:	01d901d9 	.word	0x01d901d9
 800230c:	01d901d9 	.word	0x01d901d9
 8002310:	01d901d9 	.word	0x01d901d9
 8002314:	01d901d9 	.word	0x01d901d9
 8002318:	01d901d9 	.word	0x01d901d9
 800231c:	01d901d9 	.word	0x01d901d9
 8002320:	01d901d9 	.word	0x01d901d9
 8002324:	01d901d9 	.word	0x01d901d9
 8002328:	010401d9 	.word	0x010401d9
 800232c:	01720115 	.word	0x01720115
 8002330:	00f701d9 	.word	0x00f701d9
 8002334:	01d900f7 	.word	0x01d900f7
 8002338:	01d901d9 	.word	0x01d901d9
 800233c:	01d901d9 	.word	0x01d901d9
 8002340:	01d901d9 	.word	0x01d901d9
 8002344:	01d901d9 	.word	0x01d901d9
 8002348:	01d901d9 	.word	0x01d901d9
 800234c:	01d901d9 	.word	0x01d901d9
 8002350:	00f7      	.short	0x00f7
 8002352:	2970      	cmp	r1, #112	; 0x70
 8002354:	d872      	bhi.n	800243c <UI_GetReg+0x214>
 8002356:	e8df f011 	tbh	[pc, r1, lsl #1]
 800235a:	00dd      	.short	0x00dd
 800235c:	00d300d7 	.word	0x00d300d7
 8002360:	01300137 	.word	0x01300137
 8002364:	0128012c 	.word	0x0128012c
 8002368:	0079010e 	.word	0x0079010e
 800236c:	00f200f6 	.word	0x00f200f6
 8002370:	007400ee 	.word	0x007400ee
 8002374:	00e400e8 	.word	0x00e400e8
 8002378:	007100e0 	.word	0x007100e0
 800237c:	00710071 	.word	0x00710071
 8002380:	00710071 	.word	0x00710071
 8002384:	00710071 	.word	0x00710071
 8002388:	00710071 	.word	0x00710071
 800238c:	011b011f 	.word	0x011b011f
 8002390:	00710117 	.word	0x00710117
 8002394:	014c0071 	.word	0x014c0071
 8002398:	01420147 	.word	0x01420147
 800239c:	013b0071 	.word	0x013b0071
 80023a0:	00c900ce 	.word	0x00c900ce
 80023a4:	011200fa 	.word	0x011200fa
 80023a8:	01420147 	.word	0x01420147
 80023ac:	00740079 	.word	0x00740079
 80023b0:	01090123 	.word	0x01090123
 80023b4:	00ff0104 	.word	0x00ff0104
 80023b8:	00a100b5 	.word	0x00a100b5
 80023bc:	00710071 	.word	0x00710071
 80023c0:	00710071 	.word	0x00710071
 80023c4:	00710071 	.word	0x00710071
 80023c8:	00710071 	.word	0x00710071
 80023cc:	00710071 	.word	0x00710071
 80023d0:	00710071 	.word	0x00710071
 80023d4:	00710071 	.word	0x00710071
 80023d8:	0093009a 	.word	0x0093009a
 80023dc:	00710074 	.word	0x00710074
 80023e0:	00710071 	.word	0x00710071
 80023e4:	00710071 	.word	0x00710071
 80023e8:	00710071 	.word	0x00710071
 80023ec:	00710071 	.word	0x00710071
 80023f0:	00710071 	.word	0x00710071
 80023f4:	00710071 	.word	0x00710071
 80023f8:	00710071 	.word	0x00710071
 80023fc:	00710071 	.word	0x00710071
 8002400:	00710071 	.word	0x00710071
 8002404:	00710071 	.word	0x00710071
 8002408:	00710071 	.word	0x00710071
 800240c:	00710071 	.word	0x00710071
 8002410:	00710082 	.word	0x00710082
 8002414:	00710071 	.word	0x00710071
 8002418:	00710071 	.word	0x00710071
 800241c:	00710071 	.word	0x00710071
 8002420:	00710071 	.word	0x00710071
 8002424:	00710071 	.word	0x00710071
 8002428:	00710071 	.word	0x00710071
 800242c:	00710071 	.word	0x00710071
 8002430:	00710071 	.word	0x00710071
 8002434:	007e0071 	.word	0x007e0071
 8002438:	00ec008f 	.word	0x00ec008f
 800243c:	2000      	movs	r0, #0
 800243e:	b00c      	add	sp, #48	; 0x30
 8002440:	bd70      	pop	{r4, r5, r6, pc}
 8002442:	4620      	mov	r0, r4
 8002444:	f7fe fa0e 	bl	8000864 <MCI_GetIqdref>
 8002448:	1400      	asrs	r0, r0, #16
 800244a:	e7f8      	b.n	800243e <UI_GetReg+0x216>
 800244c:	4620      	mov	r0, r4
 800244e:	f7fe fa09 	bl	8000864 <MCI_GetIqdref>
 8002452:	b200      	sxth	r0, r0
 8002454:	e7f3      	b.n	800243e <UI_GetReg+0x216>
 8002456:	6828      	ldr	r0, [r5, #0]
 8002458:	f004 fad8 	bl	8006a0c <PID_GetKPDivisor>
 800245c:	e7ef      	b.n	800243e <UI_GetReg+0x216>
 800245e:	4620      	mov	r0, r4
 8002460:	f7fe f9ce 	bl	8000800 <MCI_GetControlMode>
 8002464:	2801      	cmp	r0, #1
 8002466:	4620      	mov	r0, r4
 8002468:	f000 80d8 	beq.w	800261c <UI_GetReg+0x3f4>
 800246c:	f7fe f9de 	bl	800082c <MCI_GetMecSpeedRefUnit>
 8002470:	eb00 0040 	add.w	r0, r0, r0, lsl #1
 8002474:	0040      	lsls	r0, r0, #1
 8002476:	e7e2      	b.n	800243e <UI_GetReg+0x216>
 8002478:	6828      	ldr	r0, [r5, #0]
 800247a:	f004 fac9 	bl	8006a10 <PID_GetKIDivisor>
 800247e:	e7de      	b.n	800243e <UI_GetReg+0x216>
 8002480:	6a68      	ldr	r0, [r5, #36]	; 0x24
 8002482:	f005 f96f 	bl	8007764 <STC_GetMinAppNegativeMecSpeedUnit>
 8002486:	eb00 0040 	add.w	r0, r0, r0, lsl #1
 800248a:	0040      	lsls	r0, r0, #1
 800248c:	e7d7      	b.n	800243e <UI_GetReg+0x216>
 800248e:	6a68      	ldr	r0, [r5, #36]	; 0x24
 8002490:	f005 f966 	bl	8007760 <STC_GetMaxAppPositiveMecSpeedUnit>
 8002494:	eb00 0040 	add.w	r0, r0, r0, lsl #1
 8002498:	0040      	lsls	r0, r0, #1
 800249a:	e7d0      	b.n	800243e <UI_GetReg+0x216>
 800249c:	6902      	ldr	r2, [r0, #16]
 800249e:	f852 3023 	ldr.w	r3, [r2, r3, lsl #2]
 80024a2:	0f1a      	lsrs	r2, r3, #28
 80024a4:	3a01      	subs	r2, #1
 80024a6:	f3c3 6303 	ubfx	r3, r3, #24, #4
 80024aa:	2a01      	cmp	r2, #1
 80024ac:	f103 33ff 	add.w	r3, r3, #4294967295
 80024b0:	f240 80aa 	bls.w	8002608 <UI_GetReg+0x3e0>
 80024b4:	2b01      	cmp	r3, #1
 80024b6:	d8c1      	bhi.n	800243c <UI_GetReg+0x214>
 80024b8:	69e8      	ldr	r0, [r5, #28]
 80024ba:	2800      	cmp	r0, #0
 80024bc:	d0be      	beq.n	800243c <UI_GetReg+0x214>
 80024be:	f005 f891 	bl	80075e4 <SPD_GetS16Speed>
 80024c2:	e7bc      	b.n	800243e <UI_GetReg+0x216>
 80024c4:	6902      	ldr	r2, [r0, #16]
 80024c6:	f852 3023 	ldr.w	r3, [r2, r3, lsl #2]
 80024ca:	0f1a      	lsrs	r2, r3, #28
 80024cc:	3a01      	subs	r2, #1
 80024ce:	f3c3 6303 	ubfx	r3, r3, #24, #4
 80024d2:	2a01      	cmp	r2, #1
 80024d4:	f103 33ff 	add.w	r3, r3, #4294967295
 80024d8:	f240 809b 	bls.w	8002612 <UI_GetReg+0x3ea>
 80024dc:	2b01      	cmp	r3, #1
 80024de:	d8ad      	bhi.n	800243c <UI_GetReg+0x214>
 80024e0:	69e8      	ldr	r0, [r5, #28]
 80024e2:	2800      	cmp	r0, #0
 80024e4:	d0aa      	beq.n	800243c <UI_GetReg+0x214>
 80024e6:	f005 f841 	bl	800756c <SPD_GetElAngle>
 80024ea:	e7a8      	b.n	800243e <UI_GetReg+0x216>
 80024ec:	4620      	mov	r0, r4
 80024ee:	f7fe f9a1 	bl	8000834 <MCI_GetIab>
 80024f2:	1400      	asrs	r0, r0, #16
 80024f4:	e7a3      	b.n	800243e <UI_GetReg+0x216>
 80024f6:	4620      	mov	r0, r4
 80024f8:	f7fe f99c 	bl	8000834 <MCI_GetIab>
 80024fc:	b200      	sxth	r0, r0
 80024fe:	e79e      	b.n	800243e <UI_GetReg+0x216>
 8002500:	6aa8      	ldr	r0, [r5, #40]	; 0x28
 8002502:	f005 f9df 	bl	80078c4 <STM_GetState>
 8002506:	e79a      	b.n	800243e <UI_GetReg+0x216>
 8002508:	6aa8      	ldr	r0, [r5, #40]	; 0x28
 800250a:	b00c      	add	sp, #48	; 0x30
 800250c:	e8bd 4070 	ldmia.w	sp!, {r4, r5, r6, lr}
 8002510:	f005 b9e6 	b.w	80078e0 <STM_GetFaultState>
 8002514:	f7ff fdc2 	bl	800209c <UI_GetSelectedMC>
 8002518:	e791      	b.n	800243e <UI_GetReg+0x216>
 800251a:	68a8      	ldr	r0, [r5, #8]
 800251c:	f004 fa7c 	bl	8006a18 <PID_GetKD>
 8002520:	e78d      	b.n	800243e <UI_GetReg+0x216>
 8002522:	68a8      	ldr	r0, [r5, #8]
 8002524:	f004 fa6c 	bl	8006a00 <PID_GetKI>
 8002528:	e789      	b.n	800243e <UI_GetReg+0x216>
 800252a:	68a8      	ldr	r0, [r5, #8]
 800252c:	f004 fa64 	bl	80069f8 <PID_GetKP>
 8002530:	e785      	b.n	800243e <UI_GetReg+0x216>
 8002532:	483d      	ldr	r0, [pc, #244]	; (8002628 <UI_GetReg+0x400>)
 8002534:	e783      	b.n	800243e <UI_GetReg+0x216>
 8002536:	6868      	ldr	r0, [r5, #4]
 8002538:	f004 fa6e 	bl	8006a18 <PID_GetKD>
 800253c:	e77f      	b.n	800243e <UI_GetReg+0x216>
 800253e:	6868      	ldr	r0, [r5, #4]
 8002540:	f004 fa5e 	bl	8006a00 <PID_GetKI>
 8002544:	e77b      	b.n	800243e <UI_GetReg+0x216>
 8002546:	6868      	ldr	r0, [r5, #4]
 8002548:	f004 fa56 	bl	80069f8 <PID_GetKP>
 800254c:	e777      	b.n	800243e <UI_GetReg+0x216>
 800254e:	4620      	mov	r0, r4
 8002550:	f7fe f978 	bl	8000844 <MCI_GetIalphabeta>
 8002554:	b200      	sxth	r0, r0
 8002556:	e772      	b.n	800243e <UI_GetReg+0x216>
 8002558:	4620      	mov	r0, r4
 800255a:	f7fe f995 	bl	8000888 <MCI_GetValphabeta>
 800255e:	1400      	asrs	r0, r0, #16
 8002560:	e76d      	b.n	800243e <UI_GetReg+0x216>
 8002562:	4620      	mov	r0, r4
 8002564:	f7fe f990 	bl	8000888 <MCI_GetValphabeta>
 8002568:	b200      	sxth	r0, r0
 800256a:	e768      	b.n	800243e <UI_GetReg+0x216>
 800256c:	4620      	mov	r0, r4
 800256e:	f7fe f981 	bl	8000874 <MCI_GetVqd>
 8002572:	1400      	asrs	r0, r0, #16
 8002574:	e763      	b.n	800243e <UI_GetReg+0x216>
 8002576:	6828      	ldr	r0, [r5, #0]
 8002578:	f004 fa4e 	bl	8006a18 <PID_GetKD>
 800257c:	e75f      	b.n	800243e <UI_GetReg+0x216>
 800257e:	4620      	mov	r0, r4
 8002580:	f7fe f960 	bl	8000844 <MCI_GetIalphabeta>
 8002584:	1400      	asrs	r0, r0, #16
 8002586:	e75a      	b.n	800243e <UI_GetReg+0x216>
 8002588:	6be8      	ldr	r0, [r5, #60]	; 0x3c
 800258a:	f004 f9cb 	bl	8006924 <MPM_GetAvrgElMotorPowerW>
 800258e:	e756      	b.n	800243e <UI_GetReg+0x216>
 8002590:	6ae8      	ldr	r0, [r5, #44]	; 0x2c
 8002592:	f004 fa0d 	bl	80069b0 <NTC_GetAvTemp_C>
 8002596:	e752      	b.n	800243e <UI_GetReg+0x216>
 8002598:	6b28      	ldr	r0, [r5, #48]	; 0x30
 800259a:	f003 fd33 	bl	8006004 <VBS_GetAvBusVoltage_V>
 800259e:	e74e      	b.n	800243e <UI_GetReg+0x216>
 80025a0:	4620      	mov	r0, r4
 80025a2:	f7fe f967 	bl	8000874 <MCI_GetVqd>
 80025a6:	b200      	sxth	r0, r0
 80025a8:	e749      	b.n	800243e <UI_GetReg+0x216>
 80025aa:	6828      	ldr	r0, [r5, #0]
 80025ac:	f004 fa28 	bl	8006a00 <PID_GetKI>
 80025b0:	e745      	b.n	800243e <UI_GetReg+0x216>
 80025b2:	6828      	ldr	r0, [r5, #0]
 80025b4:	f004 fa20 	bl	80069f8 <PID_GetKP>
 80025b8:	e741      	b.n	800243e <UI_GetReg+0x216>
 80025ba:	4620      	mov	r0, r4
 80025bc:	f7fe f936 	bl	800082c <MCI_GetMecSpeedRefUnit>
 80025c0:	eb00 0040 	add.w	r0, r0, r0, lsl #1
 80025c4:	0040      	lsls	r0, r0, #1
 80025c6:	e73a      	b.n	800243e <UI_GetReg+0x216>
 80025c8:	4620      	mov	r0, r4
 80025ca:	f7fe f919 	bl	8000800 <MCI_GetControlMode>
 80025ce:	e736      	b.n	800243e <UI_GetReg+0x216>
 80025d0:	6968      	ldr	r0, [r5, #20]
 80025d2:	2800      	cmp	r0, #0
 80025d4:	f43f af32 	beq.w	800243c <UI_GetReg+0x214>
 80025d8:	f005 fafc 	bl	8007bd4 <RUC_GetNumberOfPhases>
 80025dc:	e72f      	b.n	800243e <UI_GetReg+0x216>
 80025de:	4620      	mov	r0, r4
 80025e0:	f7fe f938 	bl	8000854 <MCI_GetIqd>
 80025e4:	1400      	asrs	r0, r0, #16
 80025e6:	e72a      	b.n	800243e <UI_GetReg+0x216>
 80025e8:	4620      	mov	r0, r4
 80025ea:	f7fe f933 	bl	8000854 <MCI_GetIqd>
 80025ee:	b200      	sxth	r0, r0
 80025f0:	e725      	b.n	800243e <UI_GetReg+0x216>
 80025f2:	4620      	mov	r0, r4
 80025f4:	f7fe f912 	bl	800081c <MCI_GetAvrgMecSpeedUnit>
 80025f8:	eb00 0040 	add.w	r0, r0, r0, lsl #1
 80025fc:	0040      	lsls	r0, r0, #1
 80025fe:	e71e      	b.n	800243e <UI_GetReg+0x216>
 8002600:	2300      	movs	r3, #0
 8002602:	4618      	mov	r0, r3
 8002604:	7013      	strb	r3, [r2, #0]
 8002606:	e71a      	b.n	800243e <UI_GetReg+0x216>
 8002608:	2b01      	cmp	r3, #1
 800260a:	69a8      	ldr	r0, [r5, #24]
 800260c:	f63f af55 	bhi.w	80024ba <UI_GetReg+0x292>
 8002610:	e752      	b.n	80024b8 <UI_GetReg+0x290>
 8002612:	2b01      	cmp	r3, #1
 8002614:	69a8      	ldr	r0, [r5, #24]
 8002616:	f63f af64 	bhi.w	80024e2 <UI_GetReg+0x2ba>
 800261a:	e761      	b.n	80024e0 <UI_GetReg+0x2b8>
 800261c:	f7fe f8f2 	bl	8000804 <MCI_GetLastRampFinalSpeed>
 8002620:	eb00 0040 	add.w	r0, r0, r0, lsl #1
 8002624:	0040      	lsls	r0, r0, #1
 8002626:	e70a      	b.n	800243e <UI_GetReg+0x216>
 8002628:	34a6847a 	.word	0x34a6847a

0800262c <UI_ExecCmd>:
 800262c:	b510      	push	{r4, lr}
 800262e:	6883      	ldr	r3, [r0, #8]
 8002630:	7d02      	ldrb	r2, [r0, #20]
 8002632:	3901      	subs	r1, #1
 8002634:	f853 4022 	ldr.w	r4, [r3, r2, lsl #2]
 8002638:	290d      	cmp	r1, #13
 800263a:	d82c      	bhi.n	8002696 <UI_ExecCmd+0x6a>
 800263c:	e8df f001 	tbb	[pc, r1]
 8002640:	0c071217 	.word	0x0c071217
 8002644:	261c0e0c 	.word	0x261c0e0c
 8002648:	2b2b2b21 	.word	0x2b2b2b21
 800264c:	122b      	.short	0x122b
 800264e:	4620      	mov	r0, r4
 8002650:	f7fe f8d2 	bl	80007f8 <MCI_GetSTMState>
 8002654:	2806      	cmp	r0, #6
 8002656:	d020      	beq.n	800269a <UI_ExecCmd+0x6e>
 8002658:	2001      	movs	r0, #1
 800265a:	bd10      	pop	{r4, pc}
 800265c:	4620      	mov	r0, r4
 800265e:	f7fe f8cb 	bl	80007f8 <MCI_GetSTMState>
 8002662:	b120      	cbz	r0, 800266e <UI_ExecCmd+0x42>
 8002664:	4620      	mov	r0, r4
 8002666:	f7fe f87f 	bl	8000768 <MCI_StopMotor>
 800266a:	2001      	movs	r0, #1
 800266c:	bd10      	pop	{r4, pc}
 800266e:	4620      	mov	r0, r4
 8002670:	f7fe f870 	bl	8000754 <MCI_StartMotor>
 8002674:	2001      	movs	r0, #1
 8002676:	bd10      	pop	{r4, pc}
 8002678:	4620      	mov	r0, r4
 800267a:	f7fe f879 	bl	8000770 <MCI_FaultAcknowledged>
 800267e:	2001      	movs	r0, #1
 8002680:	bd10      	pop	{r4, pc}
 8002682:	4620      	mov	r0, r4
 8002684:	f7fe f912 	bl	80008ac <MCI_Clear_Iqdref>
 8002688:	2001      	movs	r0, #1
 800268a:	bd10      	pop	{r4, pc}
 800268c:	4620      	mov	r0, r4
 800268e:	f7fe f873 	bl	8000778 <MCI_EncoderAlign>
 8002692:	2001      	movs	r0, #1
 8002694:	bd10      	pop	{r4, pc}
 8002696:	2000      	movs	r0, #0
 8002698:	bd10      	pop	{r4, pc}
 800269a:	4620      	mov	r0, r4
 800269c:	f7fe f8ba 	bl	8000814 <MCI_StopRamp>
 80026a0:	2001      	movs	r0, #1
 80026a2:	bd10      	pop	{r4, pc}

080026a4 <UI_ExecSpeedRamp>:
 80026a4:	b510      	push	{r4, lr}
 80026a6:	4b07      	ldr	r3, [pc, #28]	; (80026c4 <UI_ExecSpeedRamp+0x20>)
 80026a8:	7d04      	ldrb	r4, [r0, #20]
 80026aa:	fb83 c301 	smull	ip, r3, r3, r1
 80026ae:	6880      	ldr	r0, [r0, #8]
 80026b0:	eba3 71e1 	sub.w	r1, r3, r1, asr #31
 80026b4:	f850 0024 	ldr.w	r0, [r0, r4, lsl #2]
 80026b8:	b209      	sxth	r1, r1
 80026ba:	f7fe f829 	bl	8000710 <MCI_ExecSpeedRamp>
 80026be:	2001      	movs	r0, #1
 80026c0:	bd10      	pop	{r4, pc}
 80026c2:	bf00      	nop
 80026c4:	2aaaaaab 	.word	0x2aaaaaab

080026c8 <UI_ExecTorqueRamp>:
 80026c8:	b510      	push	{r4, lr}
 80026ca:	6883      	ldr	r3, [r0, #8]
 80026cc:	7d04      	ldrb	r4, [r0, #20]
 80026ce:	f853 0024 	ldr.w	r0, [r3, r4, lsl #2]
 80026d2:	f7fe f825 	bl	8000720 <MCI_ExecTorqueRamp>
 80026d6:	2001      	movs	r0, #1
 80026d8:	bd10      	pop	{r4, pc}
 80026da:	bf00      	nop

080026dc <UI_GetRevupData>:
 80026dc:	b5f8      	push	{r3, r4, r5, r6, r7, lr}
 80026de:	7d04      	ldrb	r4, [r0, #20]
 80026e0:	68c0      	ldr	r0, [r0, #12]
 80026e2:	f850 0024 	ldr.w	r0, [r0, r4, lsl #2]
 80026e6:	6944      	ldr	r4, [r0, #20]
 80026e8:	b194      	cbz	r4, 8002710 <UI_GetRevupData+0x34>
 80026ea:	4620      	mov	r0, r4
 80026ec:	461e      	mov	r6, r3
 80026ee:	4617      	mov	r7, r2
 80026f0:	460d      	mov	r5, r1
 80026f2:	f005 fa59 	bl	8007ba8 <RUC_GetPhaseDurationms>
 80026f6:	4629      	mov	r1, r5
 80026f8:	8038      	strh	r0, [r7, #0]
 80026fa:	4620      	mov	r0, r4
 80026fc:	f005 fa5a 	bl	8007bb4 <RUC_GetPhaseFinalMecSpeedUnit>
 8002700:	4629      	mov	r1, r5
 8002702:	8030      	strh	r0, [r6, #0]
 8002704:	4620      	mov	r0, r4
 8002706:	f005 fa5d 	bl	8007bc4 <RUC_GetPhaseFinalTorque>
 800270a:	2401      	movs	r4, #1
 800270c:	9b06      	ldr	r3, [sp, #24]
 800270e:	8018      	strh	r0, [r3, #0]
 8002710:	4620      	mov	r0, r4
 8002712:	bdf8      	pop	{r3, r4, r5, r6, r7, pc}

08002714 <UI_SetRevupData>:
 8002714:	b5f8      	push	{r3, r4, r5, r6, r7, lr}
 8002716:	460d      	mov	r5, r1
 8002718:	461f      	mov	r7, r3
 800271a:	7d04      	ldrb	r4, [r0, #20]
 800271c:	68c0      	ldr	r0, [r0, #12]
 800271e:	f9bd 6018 	ldrsh.w	r6, [sp, #24]
 8002722:	f850 3024 	ldr.w	r3, [r0, r4, lsl #2]
 8002726:	695c      	ldr	r4, [r3, #20]
 8002728:	4620      	mov	r0, r4
 800272a:	f005 fa2b 	bl	8007b84 <RUC_SetPhaseDurationms>
 800272e:	463a      	mov	r2, r7
 8002730:	4629      	mov	r1, r5
 8002732:	4620      	mov	r0, r4
 8002734:	f005 fa2c 	bl	8007b90 <RUC_SetPhaseFinalMecSpeedUnit>
 8002738:	4620      	mov	r0, r4
 800273a:	4632      	mov	r2, r6
 800273c:	4629      	mov	r1, r5
 800273e:	f005 fa2d 	bl	8007b9c <RUC_SetPhaseFinalTorque>
 8002742:	2001      	movs	r0, #1
 8002744:	bdf8      	pop	{r3, r4, r5, r6, r7, pc}
 8002746:	bf00      	nop

08002748 <UI_SetCurrentReferences>:
 8002748:	b410      	push	{r4}
 800274a:	6883      	ldr	r3, [r0, #8]
 800274c:	b083      	sub	sp, #12
 800274e:	7d04      	ldrb	r4, [r0, #20]
 8002750:	f8ad 1004 	strh.w	r1, [sp, #4]
 8002754:	f8ad 2006 	strh.w	r2, [sp, #6]
 8002758:	f853 0024 	ldr.w	r0, [r3, r4, lsl #2]
 800275c:	9901      	ldr	r1, [sp, #4]
 800275e:	b003      	add	sp, #12
 8002760:	bc10      	pop	{r4}
 8002762:	f7fd bfe9 	b.w	8000738 <MCI_SetCurrentReferences>
 8002766:	bf00      	nop

08002768 <UI_GetMPInfo>:
 8002768:	2000      	movs	r0, #0
 800276a:	4770      	bx	lr

0800276c <SystemInit>:
 800276c:	4770      	bx	lr
 800276e:	bf00      	nop

08002770 <HAL_Init>:
 8002770:	4a07      	ldr	r2, [pc, #28]	; (8002790 <HAL_Init+0x20>)
 8002772:	b508      	push	{r3, lr}
 8002774:	6813      	ldr	r3, [r2, #0]
 8002776:	2003      	movs	r0, #3
 8002778:	f043 0310 	orr.w	r3, r3, #16
 800277c:	6013      	str	r3, [r2, #0]
 800277e:	f000 fa61 	bl	8002c44 <HAL_NVIC_SetPriorityGrouping>
 8002782:	2000      	movs	r0, #0
 8002784:	f7ff fbcc 	bl	8001f20 <HAL_InitTick>
 8002788:	f7ff fa6e 	bl	8001c68 <HAL_MspInit>
 800278c:	2000      	movs	r0, #0
 800278e:	bd08      	pop	{r3, pc}
 8002790:	40022000 	.word	0x40022000

08002794 <HAL_IncTick>:
 8002794:	4a03      	ldr	r2, [pc, #12]	; (80027a4 <HAL_IncTick+0x10>)
 8002796:	4b04      	ldr	r3, [pc, #16]	; (80027a8 <HAL_IncTick+0x14>)
 8002798:	6811      	ldr	r1, [r2, #0]
 800279a:	781b      	ldrb	r3, [r3, #0]
 800279c:	440b      	add	r3, r1
 800279e:	6013      	str	r3, [r2, #0]
 80027a0:	4770      	bx	lr
 80027a2:	bf00      	nop
 80027a4:	20002270 	.word	0x20002270
 80027a8:	20000570 	.word	0x20000570

080027ac <HAL_GetTick>:
 80027ac:	4b01      	ldr	r3, [pc, #4]	; (80027b4 <HAL_GetTick+0x8>)
 80027ae:	6818      	ldr	r0, [r3, #0]
 80027b0:	4770      	bx	lr
 80027b2:	bf00      	nop
 80027b4:	20002270 	.word	0x20002270

080027b8 <HAL_ADC_Init>:
 80027b8:	2800      	cmp	r0, #0
 80027ba:	d071      	beq.n	80028a0 <HAL_ADC_Init+0xe8>
 80027bc:	6a83      	ldr	r3, [r0, #40]	; 0x28
 80027be:	b570      	push	{r4, r5, r6, lr}
 80027c0:	4604      	mov	r4, r0
 80027c2:	2b00      	cmp	r3, #0
 80027c4:	d062      	beq.n	800288c <HAL_ADC_Init+0xd4>
 80027c6:	6823      	ldr	r3, [r4, #0]
 80027c8:	689a      	ldr	r2, [r3, #8]
 80027ca:	07d0      	lsls	r0, r2, #31
 80027cc:	d449      	bmi.n	8002862 <HAL_ADC_Init+0xaa>
 80027ce:	6aa2      	ldr	r2, [r4, #40]	; 0x28
 80027d0:	06d2      	lsls	r2, r2, #27
 80027d2:	d440      	bmi.n	8002856 <HAL_ADC_Init+0x9e>
 80027d4:	6aa2      	ldr	r2, [r4, #40]	; 0x28
 80027d6:	6861      	ldr	r1, [r4, #4]
 80027d8:	f422 5288 	bic.w	r2, r2, #4352	; 0x1100
 80027dc:	69e6      	ldr	r6, [r4, #28]
 80027de:	68a0      	ldr	r0, [r4, #8]
 80027e0:	f022 0202 	bic.w	r2, r2, #2
 80027e4:	7b25      	ldrb	r5, [r4, #12]
 80027e6:	f042 0202 	orr.w	r2, r2, #2
 80027ea:	4331      	orrs	r1, r6
 80027ec:	f5b0 7f80 	cmp.w	r0, #256	; 0x100
 80027f0:	62a2      	str	r2, [r4, #40]	; 0x28
 80027f2:	ea41 0245 	orr.w	r2, r1, r5, lsl #1
 80027f6:	7d21      	ldrb	r1, [r4, #20]
 80027f8:	d05d      	beq.n	80028b6 <HAL_ADC_Init+0xfe>
 80027fa:	2801      	cmp	r0, #1
 80027fc:	f000 8087 	beq.w	800290e <HAL_ADC_Init+0x156>
 8002800:	2901      	cmp	r1, #1
 8002802:	f000 8093 	beq.w	800292c <HAL_ADC_Init+0x174>
 8002806:	6858      	ldr	r0, [r3, #4]
 8002808:	4949      	ldr	r1, [pc, #292]	; (8002930 <HAL_ADC_Init+0x178>)
 800280a:	f420 4069 	bic.w	r0, r0, #59648	; 0xe900
 800280e:	6058      	str	r0, [r3, #4]
 8002810:	2000      	movs	r0, #0
 8002812:	689d      	ldr	r5, [r3, #8]
 8002814:	4029      	ands	r1, r5
 8002816:	4311      	orrs	r1, r2
 8002818:	6099      	str	r1, [r3, #8]
 800281a:	6ad9      	ldr	r1, [r3, #44]	; 0x2c
 800281c:	4d45      	ldr	r5, [pc, #276]	; (8002934 <HAL_ADC_Init+0x17c>)
 800281e:	f421 0170 	bic.w	r1, r1, #15728640	; 0xf00000
 8002822:	4301      	orrs	r1, r0
 8002824:	62d9      	str	r1, [r3, #44]	; 0x2c
 8002826:	689b      	ldr	r3, [r3, #8]
 8002828:	401d      	ands	r5, r3
 800282a:	42aa      	cmp	r2, r5
 800282c:	d03a      	beq.n	80028a4 <HAL_ADC_Init+0xec>
 800282e:	2001      	movs	r0, #1
 8002830:	6aa3      	ldr	r3, [r4, #40]	; 0x28
 8002832:	f023 0312 	bic.w	r3, r3, #18
 8002836:	f043 0310 	orr.w	r3, r3, #16
 800283a:	62a3      	str	r3, [r4, #40]	; 0x28
 800283c:	6ae3      	ldr	r3, [r4, #44]	; 0x2c
 800283e:	4303      	orrs	r3, r0
 8002840:	62e3      	str	r3, [r4, #44]	; 0x2c
 8002842:	bd70      	pop	{r4, r5, r6, pc}
 8002844:	6aa3      	ldr	r3, [r4, #40]	; 0x28
 8002846:	f043 0310 	orr.w	r3, r3, #16
 800284a:	62a3      	str	r3, [r4, #40]	; 0x28
 800284c:	6ae3      	ldr	r3, [r4, #44]	; 0x2c
 800284e:	f043 0301 	orr.w	r3, r3, #1
 8002852:	62e3      	str	r3, [r4, #44]	; 0x2c
 8002854:	6aa3      	ldr	r3, [r4, #40]	; 0x28
 8002856:	6aa3      	ldr	r3, [r4, #40]	; 0x28
 8002858:	2001      	movs	r0, #1
 800285a:	f043 0310 	orr.w	r3, r3, #16
 800285e:	62a3      	str	r3, [r4, #40]	; 0x28
 8002860:	bd70      	pop	{r4, r5, r6, pc}
 8002862:	689a      	ldr	r2, [r3, #8]
 8002864:	f022 0201 	bic.w	r2, r2, #1
 8002868:	609a      	str	r2, [r3, #8]
 800286a:	f7ff ff9f 	bl	80027ac <HAL_GetTick>
 800286e:	4605      	mov	r5, r0
 8002870:	e004      	b.n	800287c <HAL_ADC_Init+0xc4>
 8002872:	f7ff ff9b 	bl	80027ac <HAL_GetTick>
 8002876:	1b40      	subs	r0, r0, r5
 8002878:	2802      	cmp	r0, #2
 800287a:	d8e3      	bhi.n	8002844 <HAL_ADC_Init+0x8c>
 800287c:	6823      	ldr	r3, [r4, #0]
 800287e:	689a      	ldr	r2, [r3, #8]
 8002880:	07d1      	lsls	r1, r2, #31
 8002882:	d4f6      	bmi.n	8002872 <HAL_ADC_Init+0xba>
 8002884:	6aa2      	ldr	r2, [r4, #40]	; 0x28
 8002886:	06d2      	lsls	r2, r2, #27
 8002888:	d4e5      	bmi.n	8002856 <HAL_ADC_Init+0x9e>
 800288a:	e7a3      	b.n	80027d4 <HAL_ADC_Init+0x1c>
 800288c:	62c3      	str	r3, [r0, #44]	; 0x2c
 800288e:	f880 3024 	strb.w	r3, [r0, #36]	; 0x24
 8002892:	f7ff fa11 	bl	8001cb8 <HAL_ADC_MspInit>
 8002896:	6823      	ldr	r3, [r4, #0]
 8002898:	689a      	ldr	r2, [r3, #8]
 800289a:	07d0      	lsls	r0, r2, #31
 800289c:	d4e1      	bmi.n	8002862 <HAL_ADC_Init+0xaa>
 800289e:	e796      	b.n	80027ce <HAL_ADC_Init+0x16>
 80028a0:	2001      	movs	r0, #1
 80028a2:	4770      	bx	lr
 80028a4:	2000      	movs	r0, #0
 80028a6:	62e0      	str	r0, [r4, #44]	; 0x2c
 80028a8:	6aa3      	ldr	r3, [r4, #40]	; 0x28
 80028aa:	f023 0303 	bic.w	r3, r3, #3
 80028ae:	f043 0301 	orr.w	r3, r3, #1
 80028b2:	62a3      	str	r3, [r4, #40]	; 0x28
 80028b4:	bd70      	pop	{r4, r5, r6, pc}
 80028b6:	2901      	cmp	r1, #1
 80028b8:	d00e      	beq.n	80028d8 <HAL_ADC_Init+0x120>
 80028ba:	6858      	ldr	r0, [r3, #4]
 80028bc:	491c      	ldr	r1, [pc, #112]	; (8002930 <HAL_ADC_Init+0x178>)
 80028be:	f420 4069 	bic.w	r0, r0, #59648	; 0xe900
 80028c2:	f440 7080 	orr.w	r0, r0, #256	; 0x100
 80028c6:	6058      	str	r0, [r3, #4]
 80028c8:	6898      	ldr	r0, [r3, #8]
 80028ca:	4001      	ands	r1, r0
 80028cc:	4311      	orrs	r1, r2
 80028ce:	6099      	str	r1, [r3, #8]
 80028d0:	6921      	ldr	r1, [r4, #16]
 80028d2:	3901      	subs	r1, #1
 80028d4:	0508      	lsls	r0, r1, #20
 80028d6:	e7a0      	b.n	800281a <HAL_ADC_Init+0x62>
 80028d8:	4606      	mov	r6, r0
 80028da:	b9f5      	cbnz	r5, 800291a <HAL_ADC_Init+0x162>
 80028dc:	69a1      	ldr	r1, [r4, #24]
 80028de:	1e4d      	subs	r5, r1, #1
 80028e0:	ea46 3545 	orr.w	r5, r6, r5, lsl #13
 80028e4:	f445 6600 	orr.w	r6, r5, #2048	; 0x800
 80028e8:	685d      	ldr	r5, [r3, #4]
 80028ea:	4911      	ldr	r1, [pc, #68]	; (8002930 <HAL_ADC_Init+0x178>)
 80028ec:	f425 4569 	bic.w	r5, r5, #59648	; 0xe900
 80028f0:	4335      	orrs	r5, r6
 80028f2:	605d      	str	r5, [r3, #4]
 80028f4:	689d      	ldr	r5, [r3, #8]
 80028f6:	f5b0 7f80 	cmp.w	r0, #256	; 0x100
 80028fa:	ea01 0105 	and.w	r1, r1, r5
 80028fe:	ea41 0102 	orr.w	r1, r1, r2
 8002902:	6099      	str	r1, [r3, #8]
 8002904:	d0e4      	beq.n	80028d0 <HAL_ADC_Init+0x118>
 8002906:	2801      	cmp	r0, #1
 8002908:	d0e2      	beq.n	80028d0 <HAL_ADC_Init+0x118>
 800290a:	2000      	movs	r0, #0
 800290c:	e785      	b.n	800281a <HAL_ADC_Init+0x62>
 800290e:	2901      	cmp	r1, #1
 8002910:	bf08      	it	eq
 8002912:	f44f 7680 	moveq.w	r6, #256	; 0x100
 8002916:	d0e0      	beq.n	80028da <HAL_ADC_Init+0x122>
 8002918:	e7cf      	b.n	80028ba <HAL_ADC_Init+0x102>
 800291a:	6aa1      	ldr	r1, [r4, #40]	; 0x28
 800291c:	f041 0120 	orr.w	r1, r1, #32
 8002920:	62a1      	str	r1, [r4, #40]	; 0x28
 8002922:	6ae1      	ldr	r1, [r4, #44]	; 0x2c
 8002924:	f041 0101 	orr.w	r1, r1, #1
 8002928:	62e1      	str	r1, [r4, #44]	; 0x2c
 800292a:	e7dd      	b.n	80028e8 <HAL_ADC_Init+0x130>
 800292c:	2600      	movs	r6, #0
 800292e:	e7d4      	b.n	80028da <HAL_ADC_Init+0x122>
 8002930:	ffe1f7fd 	.word	0xffe1f7fd
 8002934:	ff1f0efe 	.word	0xff1f0efe

08002938 <HAL_ADC_ConfigChannel>:
 8002938:	2200      	movs	r2, #0
 800293a:	b470      	push	{r4, r5, r6}
 800293c:	f890 3024 	ldrb.w	r3, [r0, #36]	; 0x24
 8002940:	b083      	sub	sp, #12
 8002942:	2b01      	cmp	r3, #1
 8002944:	9201      	str	r2, [sp, #4]
 8002946:	d05f      	beq.n	8002a08 <HAL_ADC_ConfigChannel+0xd0>
 8002948:	2301      	movs	r3, #1
 800294a:	684d      	ldr	r5, [r1, #4]
 800294c:	6804      	ldr	r4, [r0, #0]
 800294e:	2d06      	cmp	r5, #6
 8002950:	f880 3024 	strb.w	r3, [r0, #36]	; 0x24
 8002954:	680a      	ldr	r2, [r1, #0]
 8002956:	eb05 0385 	add.w	r3, r5, r5, lsl #2
 800295a:	f04f 061f 	mov.w	r6, #31
 800295e:	d925      	bls.n	80029ac <HAL_ADC_ConfigChannel+0x74>
 8002960:	2d0c      	cmp	r5, #12
 8002962:	d847      	bhi.n	80029f4 <HAL_ADC_ConfigChannel+0xbc>
 8002964:	3b23      	subs	r3, #35	; 0x23
 8002966:	6b25      	ldr	r5, [r4, #48]	; 0x30
 8002968:	409e      	lsls	r6, r3
 800296a:	ea25 0506 	bic.w	r5, r5, r6
 800296e:	fa02 f303 	lsl.w	r3, r2, r3
 8002972:	432b      	orrs	r3, r5
 8002974:	6323      	str	r3, [r4, #48]	; 0x30
 8002976:	2a09      	cmp	r2, #9
 8002978:	688b      	ldr	r3, [r1, #8]
 800297a:	f04f 0607 	mov.w	r6, #7
 800297e:	eb02 0142 	add.w	r1, r2, r2, lsl #1
 8002982:	d923      	bls.n	80029cc <HAL_ADC_ConfigChannel+0x94>
 8002984:	391e      	subs	r1, #30
 8002986:	68e5      	ldr	r5, [r4, #12]
 8002988:	408e      	lsls	r6, r1
 800298a:	408b      	lsls	r3, r1
 800298c:	ea25 0106 	bic.w	r1, r5, r6
 8002990:	430b      	orrs	r3, r1
 8002992:	60e3      	str	r3, [r4, #12]
 8002994:	f1a2 0310 	sub.w	r3, r2, #16
 8002998:	2b01      	cmp	r3, #1
 800299a:	d922      	bls.n	80029e2 <HAL_ADC_ConfigChannel+0xaa>
 800299c:	2300      	movs	r3, #0
 800299e:	2200      	movs	r2, #0
 80029a0:	f880 2024 	strb.w	r2, [r0, #36]	; 0x24
 80029a4:	4618      	mov	r0, r3
 80029a6:	b003      	add	sp, #12
 80029a8:	bc70      	pop	{r4, r5, r6}
 80029aa:	4770      	bx	lr
 80029ac:	3b05      	subs	r3, #5
 80029ae:	6b65      	ldr	r5, [r4, #52]	; 0x34
 80029b0:	409e      	lsls	r6, r3
 80029b2:	ea25 0506 	bic.w	r5, r5, r6
 80029b6:	fa02 f303 	lsl.w	r3, r2, r3
 80029ba:	432b      	orrs	r3, r5
 80029bc:	2a09      	cmp	r2, #9
 80029be:	6363      	str	r3, [r4, #52]	; 0x34
 80029c0:	f04f 0607 	mov.w	r6, #7
 80029c4:	688b      	ldr	r3, [r1, #8]
 80029c6:	eb02 0142 	add.w	r1, r2, r2, lsl #1
 80029ca:	d8db      	bhi.n	8002984 <HAL_ADC_ConfigChannel+0x4c>
 80029cc:	6925      	ldr	r5, [r4, #16]
 80029ce:	408e      	lsls	r6, r1
 80029d0:	408b      	lsls	r3, r1
 80029d2:	ea25 0106 	bic.w	r1, r5, r6
 80029d6:	430b      	orrs	r3, r1
 80029d8:	6123      	str	r3, [r4, #16]
 80029da:	f1a2 0310 	sub.w	r3, r2, #16
 80029de:	2b01      	cmp	r3, #1
 80029e0:	d8dc      	bhi.n	800299c <HAL_ADC_ConfigChannel+0x64>
 80029e2:	4b1a      	ldr	r3, [pc, #104]	; (8002a4c <HAL_ADC_ConfigChannel+0x114>)
 80029e4:	429c      	cmp	r4, r3
 80029e6:	d014      	beq.n	8002a12 <HAL_ADC_ConfigChannel+0xda>
 80029e8:	6a82      	ldr	r2, [r0, #40]	; 0x28
 80029ea:	2301      	movs	r3, #1
 80029ec:	f042 0220 	orr.w	r2, r2, #32
 80029f0:	6282      	str	r2, [r0, #40]	; 0x28
 80029f2:	e7d4      	b.n	800299e <HAL_ADC_ConfigChannel+0x66>
 80029f4:	3b41      	subs	r3, #65	; 0x41
 80029f6:	6ae5      	ldr	r5, [r4, #44]	; 0x2c
 80029f8:	409e      	lsls	r6, r3
 80029fa:	ea25 0506 	bic.w	r5, r5, r6
 80029fe:	fa02 f303 	lsl.w	r3, r2, r3
 8002a02:	432b      	orrs	r3, r5
 8002a04:	62e3      	str	r3, [r4, #44]	; 0x2c
 8002a06:	e7b6      	b.n	8002976 <HAL_ADC_ConfigChannel+0x3e>
 8002a08:	2302      	movs	r3, #2
 8002a0a:	4618      	mov	r0, r3
 8002a0c:	b003      	add	sp, #12
 8002a0e:	bc70      	pop	{r4, r5, r6}
 8002a10:	4770      	bx	lr
 8002a12:	68a3      	ldr	r3, [r4, #8]
 8002a14:	021b      	lsls	r3, r3, #8
 8002a16:	d4c1      	bmi.n	800299c <HAL_ADC_ConfigChannel+0x64>
 8002a18:	68a3      	ldr	r3, [r4, #8]
 8002a1a:	2a10      	cmp	r2, #16
 8002a1c:	f443 0300 	orr.w	r3, r3, #8388608	; 0x800000
 8002a20:	60a3      	str	r3, [r4, #8]
 8002a22:	d1bb      	bne.n	800299c <HAL_ADC_ConfigChannel+0x64>
 8002a24:	4b0a      	ldr	r3, [pc, #40]	; (8002a50 <HAL_ADC_ConfigChannel+0x118>)
 8002a26:	4a0b      	ldr	r2, [pc, #44]	; (8002a54 <HAL_ADC_ConfigChannel+0x11c>)
 8002a28:	681b      	ldr	r3, [r3, #0]
 8002a2a:	fba2 2303 	umull	r2, r3, r2, r3
 8002a2e:	0c9b      	lsrs	r3, r3, #18
 8002a30:	eb03 0383 	add.w	r3, r3, r3, lsl #2
 8002a34:	005b      	lsls	r3, r3, #1
 8002a36:	9301      	str	r3, [sp, #4]
 8002a38:	9b01      	ldr	r3, [sp, #4]
 8002a3a:	2b00      	cmp	r3, #0
 8002a3c:	d0ae      	beq.n	800299c <HAL_ADC_ConfigChannel+0x64>
 8002a3e:	9b01      	ldr	r3, [sp, #4]
 8002a40:	3b01      	subs	r3, #1
 8002a42:	9301      	str	r3, [sp, #4]
 8002a44:	9b01      	ldr	r3, [sp, #4]
 8002a46:	2b00      	cmp	r3, #0
 8002a48:	d1f9      	bne.n	8002a3e <HAL_ADC_ConfigChannel+0x106>
 8002a4a:	e7a7      	b.n	800299c <HAL_ADC_ConfigChannel+0x64>
 8002a4c:	40012400 	.word	0x40012400
 8002a50:	2000056c 	.word	0x2000056c
 8002a54:	431bde83 	.word	0x431bde83

08002a58 <HAL_ADCEx_InjectedConfigChannel>:
 8002a58:	4602      	mov	r2, r0
 8002a5a:	2000      	movs	r0, #0
 8002a5c:	b5f0      	push	{r4, r5, r6, r7, lr}
 8002a5e:	f892 3024 	ldrb.w	r3, [r2, #36]	; 0x24
 8002a62:	b083      	sub	sp, #12
 8002a64:	2b01      	cmp	r3, #1
 8002a66:	9001      	str	r0, [sp, #4]
 8002a68:	f000 80b6 	beq.w	8002bd8 <HAL_ADCEx_InjectedConfigChannel+0x180>
 8002a6c:	e9d1 4600 	ldrd	r4, r6, [r1]
 8002a70:	2501      	movs	r5, #1
 8002a72:	6897      	ldr	r7, [r2, #8]
 8002a74:	f882 5024 	strb.w	r5, [r2, #36]	; 0x24
 8002a78:	6813      	ldr	r3, [r2, #0]
 8002a7a:	2f00      	cmp	r7, #0
 8002a7c:	d05d      	beq.n	8002b3a <HAL_ADCEx_InjectedConfigChannel+0xe2>
 8002a7e:	271f      	movs	r7, #31
 8002a80:	f8d1 c010 	ldr.w	ip, [r1, #16]
 8002a84:	eba6 050c 	sub.w	r5, r6, ip
 8002a88:	eb05 0585 	add.w	r5, r5, r5, lsl #2
 8002a8c:	350f      	adds	r5, #15
 8002a8e:	40af      	lsls	r7, r5
 8002a90:	f447 1740 	orr.w	r7, r7, #3145728	; 0x300000
 8002a94:	45b4      	cmp	ip, r6
 8002a96:	ea6f 0707 	mvn.w	r7, r7
 8002a9a:	d37c      	bcc.n	8002b96 <HAL_ADCEx_InjectedConfigChannel+0x13e>
 8002a9c:	f8d3 e038 	ldr.w	lr, [r3, #56]	; 0x38
 8002aa0:	f10c 3cff 	add.w	ip, ip, #4294967295
 8002aa4:	fa04 f505 	lsl.w	r5, r4, r5
 8002aa8:	ea45 550c 	orr.w	r5, r5, ip, lsl #20
 8002aac:	ea0e 0707 	and.w	r7, lr, r7
 8002ab0:	433d      	orrs	r5, r7
 8002ab2:	639d      	str	r5, [r3, #56]	; 0x38
 8002ab4:	689d      	ldr	r5, [r3, #8]
 8002ab6:	07ed      	lsls	r5, r5, #31
 8002ab8:	d407      	bmi.n	8002aca <HAL_ADCEx_InjectedConfigChannel+0x72>
 8002aba:	689d      	ldr	r5, [r3, #8]
 8002abc:	698f      	ldr	r7, [r1, #24]
 8002abe:	f425 45e0 	bic.w	r5, r5, #28672	; 0x7000
 8002ac2:	f025 0501 	bic.w	r5, r5, #1
 8002ac6:	433d      	orrs	r5, r7
 8002ac8:	609d      	str	r5, [r3, #8]
 8002aca:	7d4d      	ldrb	r5, [r1, #21]
 8002acc:	f891 c014 	ldrb.w	ip, [r1, #20]
 8002ad0:	2d01      	cmp	r5, #1
 8002ad2:	d04e      	beq.n	8002b72 <HAL_ADCEx_InjectedConfigChannel+0x11a>
 8002ad4:	f1bc 0f01 	cmp.w	ip, #1
 8002ad8:	f000 8081 	beq.w	8002bde <HAL_ADCEx_InjectedConfigChannel+0x186>
 8002adc:	2c09      	cmp	r4, #9
 8002ade:	eb04 0544 	add.w	r5, r4, r4, lsl #1
 8002ae2:	f8d1 c008 	ldr.w	ip, [r1, #8]
 8002ae6:	f04f 0e07 	mov.w	lr, #7
 8002aea:	d92e      	bls.n	8002b4a <HAL_ADCEx_InjectedConfigChannel+0xf2>
 8002aec:	3d1e      	subs	r5, #30
 8002aee:	68df      	ldr	r7, [r3, #12]
 8002af0:	fa0e fe05 	lsl.w	lr, lr, r5
 8002af4:	ea27 070e 	bic.w	r7, r7, lr
 8002af8:	fa0c f505 	lsl.w	r5, ip, r5
 8002afc:	433d      	orrs	r5, r7
 8002afe:	60dd      	str	r5, [r3, #12]
 8002b00:	f1a4 0510 	sub.w	r5, r4, #16
 8002b04:	2d01      	cmp	r5, #1
 8002b06:	d803      	bhi.n	8002b10 <HAL_ADCEx_InjectedConfigChannel+0xb8>
 8002b08:	689f      	ldr	r7, [r3, #8]
 8002b0a:	f447 0700 	orr.w	r7, r7, #8388608	; 0x800000
 8002b0e:	609f      	str	r7, [r3, #8]
 8002b10:	2e02      	cmp	r6, #2
 8002b12:	68cf      	ldr	r7, [r1, #12]
 8002b14:	d053      	beq.n	8002bbe <HAL_ADCEx_InjectedConfigChannel+0x166>
 8002b16:	2e03      	cmp	r6, #3
 8002b18:	d049      	beq.n	8002bae <HAL_ADCEx_InjectedConfigChannel+0x156>
 8002b1a:	2e01      	cmp	r6, #1
 8002b1c:	d03f      	beq.n	8002b9e <HAL_ADCEx_InjectedConfigChannel+0x146>
 8002b1e:	6a19      	ldr	r1, [r3, #32]
 8002b20:	f421 617f 	bic.w	r1, r1, #4080	; 0xff0
 8002b24:	f021 010f 	bic.w	r1, r1, #15
 8002b28:	4339      	orrs	r1, r7
 8002b2a:	6219      	str	r1, [r3, #32]
 8002b2c:	2d01      	cmp	r5, #1
 8002b2e:	d917      	bls.n	8002b60 <HAL_ADCEx_InjectedConfigChannel+0x108>
 8002b30:	2300      	movs	r3, #0
 8002b32:	f882 3024 	strb.w	r3, [r2, #36]	; 0x24
 8002b36:	b003      	add	sp, #12
 8002b38:	bdf0      	pop	{r4, r5, r6, r7, pc}
 8002b3a:	42ae      	cmp	r6, r5
 8002b3c:	d056      	beq.n	8002bec <HAL_ADCEx_InjectedConfigChannel+0x194>
 8002b3e:	6a97      	ldr	r7, [r2, #40]	; 0x28
 8002b40:	4628      	mov	r0, r5
 8002b42:	f047 0720 	orr.w	r7, r7, #32
 8002b46:	6297      	str	r7, [r2, #40]	; 0x28
 8002b48:	e7b4      	b.n	8002ab4 <HAL_ADCEx_InjectedConfigChannel+0x5c>
 8002b4a:	691f      	ldr	r7, [r3, #16]
 8002b4c:	fa0e fe05 	lsl.w	lr, lr, r5
 8002b50:	fa0c fc05 	lsl.w	ip, ip, r5
 8002b54:	ea27 050e 	bic.w	r5, r7, lr
 8002b58:	ea45 050c 	orr.w	r5, r5, ip
 8002b5c:	611d      	str	r5, [r3, #16]
 8002b5e:	e7cf      	b.n	8002b00 <HAL_ADCEx_InjectedConfigChannel+0xa8>
 8002b60:	4935      	ldr	r1, [pc, #212]	; (8002c38 <HAL_ADCEx_InjectedConfigChannel+0x1e0>)
 8002b62:	428b      	cmp	r3, r1
 8002b64:	d04a      	beq.n	8002bfc <HAL_ADCEx_InjectedConfigChannel+0x1a4>
 8002b66:	6a93      	ldr	r3, [r2, #40]	; 0x28
 8002b68:	2001      	movs	r0, #1
 8002b6a:	f043 0320 	orr.w	r3, r3, #32
 8002b6e:	6293      	str	r3, [r2, #40]	; 0x28
 8002b70:	e7de      	b.n	8002b30 <HAL_ADCEx_InjectedConfigChannel+0xd8>
 8002b72:	698f      	ldr	r7, [r1, #24]
 8002b74:	f5b7 4fe0 	cmp.w	r7, #28672	; 0x7000
 8002b78:	d029      	beq.n	8002bce <HAL_ADCEx_InjectedConfigChannel+0x176>
 8002b7a:	4628      	mov	r0, r5
 8002b7c:	6a97      	ldr	r7, [r2, #40]	; 0x28
 8002b7e:	f047 0720 	orr.w	r7, r7, #32
 8002b82:	6297      	str	r7, [r2, #40]	; 0x28
 8002b84:	f1bc 0f01 	cmp.w	ip, #1
 8002b88:	d1a8      	bne.n	8002adc <HAL_ADCEx_InjectedConfigChannel+0x84>
 8002b8a:	6a95      	ldr	r5, [r2, #40]	; 0x28
 8002b8c:	2001      	movs	r0, #1
 8002b8e:	f045 0520 	orr.w	r5, r5, #32
 8002b92:	6295      	str	r5, [r2, #40]	; 0x28
 8002b94:	e7a2      	b.n	8002adc <HAL_ADCEx_InjectedConfigChannel+0x84>
 8002b96:	6b9d      	ldr	r5, [r3, #56]	; 0x38
 8002b98:	402f      	ands	r7, r5
 8002b9a:	639f      	str	r7, [r3, #56]	; 0x38
 8002b9c:	e78a      	b.n	8002ab4 <HAL_ADCEx_InjectedConfigChannel+0x5c>
 8002b9e:	6959      	ldr	r1, [r3, #20]
 8002ba0:	f421 617f 	bic.w	r1, r1, #4080	; 0xff0
 8002ba4:	f021 010f 	bic.w	r1, r1, #15
 8002ba8:	4339      	orrs	r1, r7
 8002baa:	6159      	str	r1, [r3, #20]
 8002bac:	e7be      	b.n	8002b2c <HAL_ADCEx_InjectedConfigChannel+0xd4>
 8002bae:	69d9      	ldr	r1, [r3, #28]
 8002bb0:	f421 617f 	bic.w	r1, r1, #4080	; 0xff0
 8002bb4:	f021 010f 	bic.w	r1, r1, #15
 8002bb8:	4339      	orrs	r1, r7
 8002bba:	61d9      	str	r1, [r3, #28]
 8002bbc:	e7b6      	b.n	8002b2c <HAL_ADCEx_InjectedConfigChannel+0xd4>
 8002bbe:	6999      	ldr	r1, [r3, #24]
 8002bc0:	f421 617f 	bic.w	r1, r1, #4080	; 0xff0
 8002bc4:	f021 010f 	bic.w	r1, r1, #15
 8002bc8:	4339      	orrs	r1, r7
 8002bca:	6199      	str	r1, [r3, #24]
 8002bcc:	e7ae      	b.n	8002b2c <HAL_ADCEx_InjectedConfigChannel+0xd4>
 8002bce:	685d      	ldr	r5, [r3, #4]
 8002bd0:	f445 6580 	orr.w	r5, r5, #1024	; 0x400
 8002bd4:	605d      	str	r5, [r3, #4]
 8002bd6:	e7d5      	b.n	8002b84 <HAL_ADCEx_InjectedConfigChannel+0x12c>
 8002bd8:	2002      	movs	r0, #2
 8002bda:	b003      	add	sp, #12
 8002bdc:	bdf0      	pop	{r4, r5, r6, r7, pc}
 8002bde:	2d00      	cmp	r5, #0
 8002be0:	d1d3      	bne.n	8002b8a <HAL_ADCEx_InjectedConfigChannel+0x132>
 8002be2:	685d      	ldr	r5, [r3, #4]
 8002be4:	f445 5580 	orr.w	r5, r5, #4096	; 0x1000
 8002be8:	605d      	str	r5, [r3, #4]
 8002bea:	e777      	b.n	8002adc <HAL_ADCEx_InjectedConfigChannel+0x84>
 8002bec:	6b9d      	ldr	r5, [r3, #56]	; 0x38
 8002bee:	4638      	mov	r0, r7
 8002bf0:	0dad      	lsrs	r5, r5, #22
 8002bf2:	05ad      	lsls	r5, r5, #22
 8002bf4:	ea45 35c4 	orr.w	r5, r5, r4, lsl #15
 8002bf8:	639d      	str	r5, [r3, #56]	; 0x38
 8002bfa:	e75b      	b.n	8002ab4 <HAL_ADCEx_InjectedConfigChannel+0x5c>
 8002bfc:	6899      	ldr	r1, [r3, #8]
 8002bfe:	0209      	lsls	r1, r1, #8
 8002c00:	d496      	bmi.n	8002b30 <HAL_ADCEx_InjectedConfigChannel+0xd8>
 8002c02:	6899      	ldr	r1, [r3, #8]
 8002c04:	2c10      	cmp	r4, #16
 8002c06:	f441 0100 	orr.w	r1, r1, #8388608	; 0x800000
 8002c0a:	6099      	str	r1, [r3, #8]
 8002c0c:	d190      	bne.n	8002b30 <HAL_ADCEx_InjectedConfigChannel+0xd8>
 8002c0e:	4b0b      	ldr	r3, [pc, #44]	; (8002c3c <HAL_ADCEx_InjectedConfigChannel+0x1e4>)
 8002c10:	490b      	ldr	r1, [pc, #44]	; (8002c40 <HAL_ADCEx_InjectedConfigChannel+0x1e8>)
 8002c12:	681b      	ldr	r3, [r3, #0]
 8002c14:	fba1 1303 	umull	r1, r3, r1, r3
 8002c18:	0c9b      	lsrs	r3, r3, #18
 8002c1a:	eb03 0383 	add.w	r3, r3, r3, lsl #2
 8002c1e:	005b      	lsls	r3, r3, #1
 8002c20:	9301      	str	r3, [sp, #4]
 8002c22:	9b01      	ldr	r3, [sp, #4]
 8002c24:	2b00      	cmp	r3, #0
 8002c26:	d083      	beq.n	8002b30 <HAL_ADCEx_InjectedConfigChannel+0xd8>
 8002c28:	9b01      	ldr	r3, [sp, #4]
 8002c2a:	3b01      	subs	r3, #1
 8002c2c:	9301      	str	r3, [sp, #4]
 8002c2e:	9b01      	ldr	r3, [sp, #4]
 8002c30:	2b00      	cmp	r3, #0
 8002c32:	d1f9      	bne.n	8002c28 <HAL_ADCEx_InjectedConfigChannel+0x1d0>
 8002c34:	e77c      	b.n	8002b30 <HAL_ADCEx_InjectedConfigChannel+0xd8>
 8002c36:	bf00      	nop
 8002c38:	40012400 	.word	0x40012400
 8002c3c:	2000056c 	.word	0x2000056c
 8002c40:	431bde83 	.word	0x431bde83

08002c44 <HAL_NVIC_SetPriorityGrouping>:
 8002c44:	f64f 01ff 	movw	r1, #63743	; 0xf8ff
 8002c48:	4a06      	ldr	r2, [pc, #24]	; (8002c64 <HAL_NVIC_SetPriorityGrouping+0x20>)
 8002c4a:	0200      	lsls	r0, r0, #8
 8002c4c:	68d3      	ldr	r3, [r2, #12]
 8002c4e:	f400 60e0 	and.w	r0, r0, #1792	; 0x700
 8002c52:	400b      	ands	r3, r1
 8002c54:	f043 63bf 	orr.w	r3, r3, #100139008	; 0x5f80000
 8002c58:	f443 3300 	orr.w	r3, r3, #131072	; 0x20000
 8002c5c:	4303      	orrs	r3, r0
 8002c5e:	60d3      	str	r3, [r2, #12]
 8002c60:	4770      	bx	lr
 8002c62:	bf00      	nop
 8002c64:	e000ed00 	.word	0xe000ed00

08002c68 <HAL_NVIC_SetPriority>:
 8002c68:	4b18      	ldr	r3, [pc, #96]	; (8002ccc <HAL_NVIC_SetPriority+0x64>)
 8002c6a:	b430      	push	{r4, r5}
 8002c6c:	68db      	ldr	r3, [r3, #12]
 8002c6e:	f3c3 2302 	ubfx	r3, r3, #8, #3
 8002c72:	f1c3 0507 	rsb	r5, r3, #7
 8002c76:	2d04      	cmp	r5, #4
 8002c78:	f103 0404 	add.w	r4, r3, #4
 8002c7c:	bf28      	it	cs
 8002c7e:	2504      	movcs	r5, #4
 8002c80:	2c06      	cmp	r4, #6
 8002c82:	d919      	bls.n	8002cb8 <HAL_NVIC_SetPriority+0x50>
 8002c84:	f04f 34ff 	mov.w	r4, #4294967295
 8002c88:	3b03      	subs	r3, #3
 8002c8a:	409c      	lsls	r4, r3
 8002c8c:	ea22 0404 	bic.w	r4, r2, r4
 8002c90:	f04f 32ff 	mov.w	r2, #4294967295
 8002c94:	40aa      	lsls	r2, r5
 8002c96:	ea21 0102 	bic.w	r1, r1, r2
 8002c9a:	fa01 f203 	lsl.w	r2, r1, r3
 8002c9e:	4322      	orrs	r2, r4
 8002ca0:	0112      	lsls	r2, r2, #4
 8002ca2:	2800      	cmp	r0, #0
 8002ca4:	b2d2      	uxtb	r2, r2
 8002ca6:	db0a      	blt.n	8002cbe <HAL_NVIC_SetPriority+0x56>
 8002ca8:	f100 4060 	add.w	r0, r0, #3758096384	; 0xe0000000
 8002cac:	f500 4061 	add.w	r0, r0, #57600	; 0xe100
 8002cb0:	f880 2300 	strb.w	r2, [r0, #768]	; 0x300
 8002cb4:	bc30      	pop	{r4, r5}
 8002cb6:	4770      	bx	lr
 8002cb8:	2400      	movs	r4, #0
 8002cba:	4623      	mov	r3, r4
 8002cbc:	e7e8      	b.n	8002c90 <HAL_NVIC_SetPriority+0x28>
 8002cbe:	4b04      	ldr	r3, [pc, #16]	; (8002cd0 <HAL_NVIC_SetPriority+0x68>)
 8002cc0:	f000 000f 	and.w	r0, r0, #15
 8002cc4:	4403      	add	r3, r0
 8002cc6:	761a      	strb	r2, [r3, #24]
 8002cc8:	bc30      	pop	{r4, r5}
 8002cca:	4770      	bx	lr
 8002ccc:	e000ed00 	.word	0xe000ed00
 8002cd0:	e000ecfc 	.word	0xe000ecfc

08002cd4 <HAL_NVIC_EnableIRQ>:
 8002cd4:	2800      	cmp	r0, #0
 8002cd6:	db07      	blt.n	8002ce8 <HAL_NVIC_EnableIRQ+0x14>
 8002cd8:	2301      	movs	r3, #1
 8002cda:	f000 011f 	and.w	r1, r0, #31
 8002cde:	4a03      	ldr	r2, [pc, #12]	; (8002cec <HAL_NVIC_EnableIRQ+0x18>)
 8002ce0:	408b      	lsls	r3, r1
 8002ce2:	0940      	lsrs	r0, r0, #5
 8002ce4:	f842 3020 	str.w	r3, [r2, r0, lsl #2]
 8002ce8:	4770      	bx	lr
 8002cea:	bf00      	nop
 8002cec:	e000e100 	.word	0xe000e100

08002cf0 <HAL_SYSTICK_Config>:
 8002cf0:	3801      	subs	r0, #1
 8002cf2:	f1b0 7f80 	cmp.w	r0, #16777216	; 0x1000000
 8002cf6:	d20d      	bcs.n	8002d14 <HAL_SYSTICK_Config+0x24>
 8002cf8:	b430      	push	{r4, r5}
 8002cfa:	25f0      	movs	r5, #240	; 0xf0
 8002cfc:	2200      	movs	r2, #0
 8002cfe:	2107      	movs	r1, #7
 8002d00:	4b05      	ldr	r3, [pc, #20]	; (8002d18 <HAL_SYSTICK_Config+0x28>)
 8002d02:	4c06      	ldr	r4, [pc, #24]	; (8002d1c <HAL_SYSTICK_Config+0x2c>)
 8002d04:	6058      	str	r0, [r3, #4]
 8002d06:	f884 5023 	strb.w	r5, [r4, #35]	; 0x23
 8002d0a:	4610      	mov	r0, r2
 8002d0c:	bc30      	pop	{r4, r5}
 8002d0e:	609a      	str	r2, [r3, #8]
 8002d10:	6019      	str	r1, [r3, #0]
 8002d12:	4770      	bx	lr
 8002d14:	2001      	movs	r0, #1
 8002d16:	4770      	bx	lr
 8002d18:	e000e010 	.word	0xe000e010
 8002d1c:	e000ed00 	.word	0xe000ed00

08002d20 <HAL_DMA_Init>:
 8002d20:	b350      	cbz	r0, 8002d78 <HAL_DMA_Init+0x58>
 8002d22:	4602      	mov	r2, r0
 8002d24:	b4f0      	push	{r4, r5, r6, r7}
 8002d26:	e9d0 3601 	ldrd	r3, r6, [r0, #4]
 8002d2a:	2400      	movs	r4, #0
 8002d2c:	2501      	movs	r5, #1
 8002d2e:	4333      	orrs	r3, r6
 8002d30:	68d6      	ldr	r6, [r2, #12]
 8002d32:	6800      	ldr	r0, [r0, #0]
 8002d34:	4333      	orrs	r3, r6
 8002d36:	4911      	ldr	r1, [pc, #68]	; (8002d7c <HAL_DMA_Init+0x5c>)
 8002d38:	6916      	ldr	r6, [r2, #16]
 8002d3a:	4f11      	ldr	r7, [pc, #68]	; (8002d80 <HAL_DMA_Init+0x60>)
 8002d3c:	4401      	add	r1, r0
 8002d3e:	4333      	orrs	r3, r6
 8002d40:	6956      	ldr	r6, [r2, #20]
 8002d42:	fba7 7101 	umull	r7, r1, r7, r1
 8002d46:	4333      	orrs	r3, r6
 8002d48:	6996      	ldr	r6, [r2, #24]
 8002d4a:	69d7      	ldr	r7, [r2, #28]
 8002d4c:	4333      	orrs	r3, r6
 8002d4e:	6806      	ldr	r6, [r0, #0]
 8002d50:	0909      	lsrs	r1, r1, #4
 8002d52:	0089      	lsls	r1, r1, #2
 8002d54:	f426 567f 	bic.w	r6, r6, #16320	; 0x3fc0
 8002d58:	433b      	orrs	r3, r7
 8002d5a:	f026 0630 	bic.w	r6, r6, #48	; 0x30
 8002d5e:	6411      	str	r1, [r2, #64]	; 0x40
 8002d60:	4908      	ldr	r1, [pc, #32]	; (8002d84 <HAL_DMA_Init+0x64>)
 8002d62:	4333      	orrs	r3, r6
 8002d64:	63d1      	str	r1, [r2, #60]	; 0x3c
 8002d66:	6003      	str	r3, [r0, #0]
 8002d68:	4620      	mov	r0, r4
 8002d6a:	6394      	str	r4, [r2, #56]	; 0x38
 8002d6c:	f882 4020 	strb.w	r4, [r2, #32]
 8002d70:	f882 5021 	strb.w	r5, [r2, #33]	; 0x21
 8002d74:	bcf0      	pop	{r4, r5, r6, r7}
 8002d76:	4770      	bx	lr
 8002d78:	2001      	movs	r0, #1
 8002d7a:	4770      	bx	lr
 8002d7c:	bffdfff8 	.word	0xbffdfff8
 8002d80:	cccccccd 	.word	0xcccccccd
 8002d84:	40020000 	.word	0x40020000

08002d88 <HAL_GPIO_Init>:
 8002d88:	680a      	ldr	r2, [r1, #0]
 8002d8a:	2a00      	cmp	r2, #0
 8002d8c:	f000 80db 	beq.w	8002f46 <HAL_GPIO_Init+0x1be>
 8002d90:	e92d 4ff0 	stmdb	sp!, {r4, r5, r6, r7, r8, r9, sl, fp, lr}
 8002d94:	f04f 0a00 	mov.w	sl, #0
 8002d98:	b085      	sub	sp, #20
 8002d9a:	4655      	mov	r5, sl
 8002d9c:	f8df c1d0 	ldr.w	ip, [pc, #464]	; 8002f70 <HAL_GPIO_Init+0x1e8>
 8002da0:	f8df e1d0 	ldr.w	lr, [pc, #464]	; 8002f74 <HAL_GPIO_Init+0x1ec>
 8002da4:	4f6d      	ldr	r7, [pc, #436]	; (8002f5c <HAL_GPIO_Init+0x1d4>)
 8002da6:	f8df 81d0 	ldr.w	r8, [pc, #464]	; 8002f78 <HAL_GPIO_Init+0x1f0>
 8002daa:	e003      	b.n	8002db4 <HAL_GPIO_Init+0x2c>
 8002dac:	3501      	adds	r5, #1
 8002dae:	fa32 f305 	lsrs.w	r3, r2, r5
 8002db2:	d078      	beq.n	8002ea6 <HAL_GPIO_Init+0x11e>
 8002db4:	2301      	movs	r3, #1
 8002db6:	40ab      	lsls	r3, r5
 8002db8:	ea02 0403 	and.w	r4, r2, r3
 8002dbc:	42a3      	cmp	r3, r4
 8002dbe:	d1f5      	bne.n	8002dac <HAL_GPIO_Init+0x24>
 8002dc0:	684a      	ldr	r2, [r1, #4]
 8002dc2:	2a12      	cmp	r2, #18
 8002dc4:	f000 809e 	beq.w	8002f04 <HAL_GPIO_Init+0x17c>
 8002dc8:	f200 8087 	bhi.w	8002eda <HAL_GPIO_Init+0x152>
 8002dcc:	2a02      	cmp	r2, #2
 8002dce:	f000 809d 	beq.w	8002f0c <HAL_GPIO_Init+0x184>
 8002dd2:	d97c      	bls.n	8002ece <HAL_GPIO_Init+0x146>
 8002dd4:	2a03      	cmp	r2, #3
 8002dd6:	d069      	beq.n	8002eac <HAL_GPIO_Init+0x124>
 8002dd8:	2a11      	cmp	r2, #17
 8002dda:	d102      	bne.n	8002de2 <HAL_GPIO_Init+0x5a>
 8002ddc:	68cb      	ldr	r3, [r1, #12]
 8002dde:	f103 0a04 	add.w	sl, r3, #4
 8002de2:	2cff      	cmp	r4, #255	; 0xff
 8002de4:	d866      	bhi.n	8002eb4 <HAL_GPIO_Init+0x12c>
 8002de6:	4681      	mov	r9, r0
 8002de8:	6803      	ldr	r3, [r0, #0]
 8002dea:	00aa      	lsls	r2, r5, #2
 8002dec:	260f      	movs	r6, #15
 8002dee:	fa06 fb02 	lsl.w	fp, r6, r2
 8002df2:	ea23 030b 	bic.w	r3, r3, fp
 8002df6:	fa0a f202 	lsl.w	r2, sl, r2
 8002dfa:	4313      	orrs	r3, r2
 8002dfc:	f8c9 3000 	str.w	r3, [r9]
 8002e00:	684a      	ldr	r2, [r1, #4]
 8002e02:	00d3      	lsls	r3, r2, #3
 8002e04:	d561      	bpl.n	8002eca <HAL_GPIO_Init+0x142>
 8002e06:	f8dc 9018 	ldr.w	r9, [ip, #24]
 8002e0a:	f025 0303 	bic.w	r3, r5, #3
 8002e0e:	f049 0901 	orr.w	r9, r9, #1
 8002e12:	f8cc 9018 	str.w	r9, [ip, #24]
 8002e16:	f8dc 9018 	ldr.w	r9, [ip, #24]
 8002e1a:	f103 4380 	add.w	r3, r3, #1073741824	; 0x40000000
 8002e1e:	f009 0901 	and.w	r9, r9, #1
 8002e22:	f8cd 900c 	str.w	r9, [sp, #12]
 8002e26:	f503 3380 	add.w	r3, r3, #65536	; 0x10000
 8002e2a:	f005 0903 	and.w	r9, r5, #3
 8002e2e:	f8dd b00c 	ldr.w	fp, [sp, #12]
 8002e32:	ea4f 0989 	mov.w	r9, r9, lsl #2
 8002e36:	f8d3 b008 	ldr.w	fp, [r3, #8]
 8002e3a:	fa06 f609 	lsl.w	r6, r6, r9
 8002e3e:	ea2b 0606 	bic.w	r6, fp, r6
 8002e42:	4570      	cmp	r0, lr
 8002e44:	9601      	str	r6, [sp, #4]
 8002e46:	d011      	beq.n	8002e6c <HAL_GPIO_Init+0xe4>
 8002e48:	4540      	cmp	r0, r8
 8002e4a:	d063      	beq.n	8002f14 <HAL_GPIO_Init+0x18c>
 8002e4c:	4e44      	ldr	r6, [pc, #272]	; (8002f60 <HAL_GPIO_Init+0x1d8>)
 8002e4e:	42b0      	cmp	r0, r6
 8002e50:	d07a      	beq.n	8002f48 <HAL_GPIO_Init+0x1c0>
 8002e52:	4e44      	ldr	r6, [pc, #272]	; (8002f64 <HAL_GPIO_Init+0x1dc>)
 8002e54:	42b0      	cmp	r0, r6
 8002e56:	bf0c      	ite	eq
 8002e58:	f04f 0b03 	moveq.w	fp, #3
 8002e5c:	f04f 0b04 	movne.w	fp, #4
 8002e60:	9e01      	ldr	r6, [sp, #4]
 8002e62:	fa0b f909 	lsl.w	r9, fp, r9
 8002e66:	ea46 0609 	orr.w	r6, r6, r9
 8002e6a:	9601      	str	r6, [sp, #4]
 8002e6c:	609e      	str	r6, [r3, #8]
 8002e6e:	683b      	ldr	r3, [r7, #0]
 8002e70:	03d6      	lsls	r6, r2, #15
 8002e72:	bf4c      	ite	mi
 8002e74:	4323      	orrmi	r3, r4
 8002e76:	43a3      	bicpl	r3, r4
 8002e78:	603b      	str	r3, [r7, #0]
 8002e7a:	687b      	ldr	r3, [r7, #4]
 8002e7c:	0396      	lsls	r6, r2, #14
 8002e7e:	bf4c      	ite	mi
 8002e80:	4323      	orrmi	r3, r4
 8002e82:	43a3      	bicpl	r3, r4
 8002e84:	607b      	str	r3, [r7, #4]
 8002e86:	68bb      	ldr	r3, [r7, #8]
 8002e88:	02d6      	lsls	r6, r2, #11
 8002e8a:	bf4c      	ite	mi
 8002e8c:	4323      	orrmi	r3, r4
 8002e8e:	43a3      	bicpl	r3, r4
 8002e90:	60bb      	str	r3, [r7, #8]
 8002e92:	0292      	lsls	r2, r2, #10
 8002e94:	68fb      	ldr	r3, [r7, #12]
 8002e96:	d515      	bpl.n	8002ec4 <HAL_GPIO_Init+0x13c>
 8002e98:	431c      	orrs	r4, r3
 8002e9a:	60fc      	str	r4, [r7, #12]
 8002e9c:	680a      	ldr	r2, [r1, #0]
 8002e9e:	3501      	adds	r5, #1
 8002ea0:	fa32 f305 	lsrs.w	r3, r2, r5
 8002ea4:	d186      	bne.n	8002db4 <HAL_GPIO_Init+0x2c>
 8002ea6:	b005      	add	sp, #20
 8002ea8:	e8bd 8ff0 	ldmia.w	sp!, {r4, r5, r6, r7, r8, r9, sl, fp, pc}
 8002eac:	2cff      	cmp	r4, #255	; 0xff
 8002eae:	f04f 0a00 	mov.w	sl, #0
 8002eb2:	d998      	bls.n	8002de6 <HAL_GPIO_Init+0x5e>
 8002eb4:	f105 4280 	add.w	r2, r5, #1073741824	; 0x40000000
 8002eb8:	3a08      	subs	r2, #8
 8002eba:	6843      	ldr	r3, [r0, #4]
 8002ebc:	0092      	lsls	r2, r2, #2
 8002ebe:	f100 0904 	add.w	r9, r0, #4
 8002ec2:	e793      	b.n	8002dec <HAL_GPIO_Init+0x64>
 8002ec4:	ea23 0404 	bic.w	r4, r3, r4
 8002ec8:	60fc      	str	r4, [r7, #12]
 8002eca:	680a      	ldr	r2, [r1, #0]
 8002ecc:	e76e      	b.n	8002dac <HAL_GPIO_Init+0x24>
 8002ece:	b1a2      	cbz	r2, 8002efa <HAL_GPIO_Init+0x172>
 8002ed0:	2a01      	cmp	r2, #1
 8002ed2:	d186      	bne.n	8002de2 <HAL_GPIO_Init+0x5a>
 8002ed4:	f8d1 a00c 	ldr.w	sl, [r1, #12]
 8002ed8:	e783      	b.n	8002de2 <HAL_GPIO_Init+0x5a>
 8002eda:	4e23      	ldr	r6, [pc, #140]	; (8002f68 <HAL_GPIO_Init+0x1e0>)
 8002edc:	42b2      	cmp	r2, r6
 8002ede:	d00c      	beq.n	8002efa <HAL_GPIO_Init+0x172>
 8002ee0:	d920      	bls.n	8002f24 <HAL_GPIO_Init+0x19c>
 8002ee2:	4e22      	ldr	r6, [pc, #136]	; (8002f6c <HAL_GPIO_Init+0x1e4>)
 8002ee4:	42b2      	cmp	r2, r6
 8002ee6:	d008      	beq.n	8002efa <HAL_GPIO_Init+0x172>
 8002ee8:	f506 3680 	add.w	r6, r6, #65536	; 0x10000
 8002eec:	42b2      	cmp	r2, r6
 8002eee:	d004      	beq.n	8002efa <HAL_GPIO_Init+0x172>
 8002ef0:	f5a6 1680 	sub.w	r6, r6, #1048576	; 0x100000
 8002ef4:	42b2      	cmp	r2, r6
 8002ef6:	f47f af74 	bne.w	8002de2 <HAL_GPIO_Init+0x5a>
 8002efa:	688a      	ldr	r2, [r1, #8]
 8002efc:	b9e2      	cbnz	r2, 8002f38 <HAL_GPIO_Init+0x1b0>
 8002efe:	f04f 0a04 	mov.w	sl, #4
 8002f02:	e76e      	b.n	8002de2 <HAL_GPIO_Init+0x5a>
 8002f04:	68cb      	ldr	r3, [r1, #12]
 8002f06:	f103 0a0c 	add.w	sl, r3, #12
 8002f0a:	e76a      	b.n	8002de2 <HAL_GPIO_Init+0x5a>
 8002f0c:	68cb      	ldr	r3, [r1, #12]
 8002f0e:	f103 0a08 	add.w	sl, r3, #8
 8002f12:	e766      	b.n	8002de2 <HAL_GPIO_Init+0x5a>
 8002f14:	f04f 0b01 	mov.w	fp, #1
 8002f18:	fa0b f909 	lsl.w	r9, fp, r9
 8002f1c:	ea46 0609 	orr.w	r6, r6, r9
 8002f20:	9601      	str	r6, [sp, #4]
 8002f22:	e7a3      	b.n	8002e6c <HAL_GPIO_Init+0xe4>
 8002f24:	f5a6 1680 	sub.w	r6, r6, #1048576	; 0x100000
 8002f28:	42b2      	cmp	r2, r6
 8002f2a:	d0e6      	beq.n	8002efa <HAL_GPIO_Init+0x172>
 8002f2c:	f506 3680 	add.w	r6, r6, #65536	; 0x10000
 8002f30:	42b2      	cmp	r2, r6
 8002f32:	f47f af56 	bne.w	8002de2 <HAL_GPIO_Init+0x5a>
 8002f36:	e7e0      	b.n	8002efa <HAL_GPIO_Init+0x172>
 8002f38:	2a01      	cmp	r2, #1
 8002f3a:	bf0c      	ite	eq
 8002f3c:	6103      	streq	r3, [r0, #16]
 8002f3e:	6143      	strne	r3, [r0, #20]
 8002f40:	f04f 0a08 	mov.w	sl, #8
 8002f44:	e74d      	b.n	8002de2 <HAL_GPIO_Init+0x5a>
 8002f46:	4770      	bx	lr
 8002f48:	f04f 0b02 	mov.w	fp, #2
 8002f4c:	9e01      	ldr	r6, [sp, #4]
 8002f4e:	fa0b f909 	lsl.w	r9, fp, r9
 8002f52:	ea46 0609 	orr.w	r6, r6, r9
 8002f56:	9601      	str	r6, [sp, #4]
 8002f58:	e788      	b.n	8002e6c <HAL_GPIO_Init+0xe4>
 8002f5a:	bf00      	nop
 8002f5c:	40010400 	.word	0x40010400
 8002f60:	40011000 	.word	0x40011000
 8002f64:	40011400 	.word	0x40011400
 8002f68:	10210000 	.word	0x10210000
 8002f6c:	10310000 	.word	0x10310000
 8002f70:	40021000 	.word	0x40021000
 8002f74:	40010800 	.word	0x40010800
 8002f78:	40010c00 	.word	0x40010c00

08002f7c <HAL_GPIO_WritePin>:
 8002f7c:	b902      	cbnz	r2, 8002f80 <HAL_GPIO_WritePin+0x4>
 8002f7e:	0409      	lsls	r1, r1, #16
 8002f80:	6101      	str	r1, [r0, #16]
 8002f82:	4770      	bx	lr

08002f84 <HAL_RCC_OscConfig>:
 8002f84:	2800      	cmp	r0, #0
 8002f86:	f000 8155 	beq.w	8003234 <HAL_RCC_OscConfig+0x2b0>
 8002f8a:	e92d 41f0 	stmdb	sp!, {r4, r5, r6, r7, r8, lr}
 8002f8e:	6803      	ldr	r3, [r0, #0]
 8002f90:	b082      	sub	sp, #8
 8002f92:	07dd      	lsls	r5, r3, #31
 8002f94:	4604      	mov	r4, r0
 8002f96:	d535      	bpl.n	8003004 <HAL_RCC_OscConfig+0x80>
 8002f98:	49a8      	ldr	r1, [pc, #672]	; (800323c <HAL_RCC_OscConfig+0x2b8>)
 8002f9a:	684a      	ldr	r2, [r1, #4]
 8002f9c:	f002 020c 	and.w	r2, r2, #12
 8002fa0:	2a04      	cmp	r2, #4
 8002fa2:	f000 8105 	beq.w	80031b0 <HAL_RCC_OscConfig+0x22c>
 8002fa6:	684a      	ldr	r2, [r1, #4]
 8002fa8:	f002 020c 	and.w	r2, r2, #12
 8002fac:	2a08      	cmp	r2, #8
 8002fae:	f000 80fb 	beq.w	80031a8 <HAL_RCC_OscConfig+0x224>
 8002fb2:	6863      	ldr	r3, [r4, #4]
 8002fb4:	f5b3 3f80 	cmp.w	r3, #65536	; 0x10000
 8002fb8:	d010      	beq.n	8002fdc <HAL_RCC_OscConfig+0x58>
 8002fba:	2b00      	cmp	r3, #0
 8002fbc:	f000 8120 	beq.w	8003200 <HAL_RCC_OscConfig+0x27c>
 8002fc0:	f5b3 2fa0 	cmp.w	r3, #327680	; 0x50000
 8002fc4:	f000 8178 	beq.w	80032b8 <HAL_RCC_OscConfig+0x334>
 8002fc8:	4b9c      	ldr	r3, [pc, #624]	; (800323c <HAL_RCC_OscConfig+0x2b8>)
 8002fca:	681a      	ldr	r2, [r3, #0]
 8002fcc:	f422 3280 	bic.w	r2, r2, #65536	; 0x10000
 8002fd0:	601a      	str	r2, [r3, #0]
 8002fd2:	681a      	ldr	r2, [r3, #0]
 8002fd4:	f422 2280 	bic.w	r2, r2, #262144	; 0x40000
 8002fd8:	601a      	str	r2, [r3, #0]
 8002fda:	e004      	b.n	8002fe6 <HAL_RCC_OscConfig+0x62>
 8002fdc:	4a97      	ldr	r2, [pc, #604]	; (800323c <HAL_RCC_OscConfig+0x2b8>)
 8002fde:	6813      	ldr	r3, [r2, #0]
 8002fe0:	f443 3380 	orr.w	r3, r3, #65536	; 0x10000
 8002fe4:	6013      	str	r3, [r2, #0]
 8002fe6:	f7ff fbe1 	bl	80027ac <HAL_GetTick>
 8002fea:	4d94      	ldr	r5, [pc, #592]	; (800323c <HAL_RCC_OscConfig+0x2b8>)
 8002fec:	4606      	mov	r6, r0
 8002fee:	e005      	b.n	8002ffc <HAL_RCC_OscConfig+0x78>
 8002ff0:	f7ff fbdc 	bl	80027ac <HAL_GetTick>
 8002ff4:	1b80      	subs	r0, r0, r6
 8002ff6:	2864      	cmp	r0, #100	; 0x64
 8002ff8:	f200 80f5 	bhi.w	80031e6 <HAL_RCC_OscConfig+0x262>
 8002ffc:	682b      	ldr	r3, [r5, #0]
 8002ffe:	039a      	lsls	r2, r3, #14
 8003000:	d5f6      	bpl.n	8002ff0 <HAL_RCC_OscConfig+0x6c>
 8003002:	6823      	ldr	r3, [r4, #0]
 8003004:	079f      	lsls	r7, r3, #30
 8003006:	d44d      	bmi.n	80030a4 <HAL_RCC_OscConfig+0x120>
 8003008:	071a      	lsls	r2, r3, #28
 800300a:	d522      	bpl.n	8003052 <HAL_RCC_OscConfig+0xce>
 800300c:	69a3      	ldr	r3, [r4, #24]
 800300e:	2b00      	cmp	r3, #0
 8003010:	f000 80ba 	beq.w	8003188 <HAL_RCC_OscConfig+0x204>
 8003014:	2201      	movs	r2, #1
 8003016:	4b8a      	ldr	r3, [pc, #552]	; (8003240 <HAL_RCC_OscConfig+0x2bc>)
 8003018:	4d88      	ldr	r5, [pc, #544]	; (800323c <HAL_RCC_OscConfig+0x2b8>)
 800301a:	601a      	str	r2, [r3, #0]
 800301c:	f7ff fbc6 	bl	80027ac <HAL_GetTick>
 8003020:	4606      	mov	r6, r0
 8003022:	e005      	b.n	8003030 <HAL_RCC_OscConfig+0xac>
 8003024:	f7ff fbc2 	bl	80027ac <HAL_GetTick>
 8003028:	1b80      	subs	r0, r0, r6
 800302a:	2802      	cmp	r0, #2
 800302c:	f200 80db 	bhi.w	80031e6 <HAL_RCC_OscConfig+0x262>
 8003030:	6a6b      	ldr	r3, [r5, #36]	; 0x24
 8003032:	079b      	lsls	r3, r3, #30
 8003034:	d5f6      	bpl.n	8003024 <HAL_RCC_OscConfig+0xa0>
 8003036:	4b83      	ldr	r3, [pc, #524]	; (8003244 <HAL_RCC_OscConfig+0x2c0>)
 8003038:	4a83      	ldr	r2, [pc, #524]	; (8003248 <HAL_RCC_OscConfig+0x2c4>)
 800303a:	681b      	ldr	r3, [r3, #0]
 800303c:	fba2 2303 	umull	r2, r3, r2, r3
 8003040:	0a5b      	lsrs	r3, r3, #9
 8003042:	9301      	str	r3, [sp, #4]
 8003044:	bf00      	nop
 8003046:	9b01      	ldr	r3, [sp, #4]
 8003048:	1e5a      	subs	r2, r3, #1
 800304a:	9201      	str	r2, [sp, #4]
 800304c:	2b00      	cmp	r3, #0
 800304e:	d1f9      	bne.n	8003044 <HAL_RCC_OscConfig+0xc0>
 8003050:	6823      	ldr	r3, [r4, #0]
 8003052:	075d      	lsls	r5, r3, #29
 8003054:	d569      	bpl.n	800312a <HAL_RCC_OscConfig+0x1a6>
 8003056:	4b79      	ldr	r3, [pc, #484]	; (800323c <HAL_RCC_OscConfig+0x2b8>)
 8003058:	69da      	ldr	r2, [r3, #28]
 800305a:	00d0      	lsls	r0, r2, #3
 800305c:	f100 80ec 	bmi.w	8003238 <HAL_RCC_OscConfig+0x2b4>
 8003060:	2501      	movs	r5, #1
 8003062:	69da      	ldr	r2, [r3, #28]
 8003064:	f042 5280 	orr.w	r2, r2, #268435456	; 0x10000000
 8003068:	61da      	str	r2, [r3, #28]
 800306a:	69db      	ldr	r3, [r3, #28]
 800306c:	f003 5380 	and.w	r3, r3, #268435456	; 0x10000000
 8003070:	9300      	str	r3, [sp, #0]
 8003072:	9b00      	ldr	r3, [sp, #0]
 8003074:	4b75      	ldr	r3, [pc, #468]	; (800324c <HAL_RCC_OscConfig+0x2c8>)
 8003076:	681a      	ldr	r2, [r3, #0]
 8003078:	05d1      	lsls	r1, r2, #23
 800307a:	f140 80a3 	bpl.w	80031c4 <HAL_RCC_OscConfig+0x240>
 800307e:	68e3      	ldr	r3, [r4, #12]
 8003080:	2b01      	cmp	r3, #1
 8003082:	d037      	beq.n	80030f4 <HAL_RCC_OscConfig+0x170>
 8003084:	2b00      	cmp	r3, #0
 8003086:	f000 80e7 	beq.w	8003258 <HAL_RCC_OscConfig+0x2d4>
 800308a:	2b05      	cmp	r3, #5
 800308c:	4b6b      	ldr	r3, [pc, #428]	; (800323c <HAL_RCC_OscConfig+0x2b8>)
 800308e:	6a1a      	ldr	r2, [r3, #32]
 8003090:	f000 811f 	beq.w	80032d2 <HAL_RCC_OscConfig+0x34e>
 8003094:	f022 0201 	bic.w	r2, r2, #1
 8003098:	621a      	str	r2, [r3, #32]
 800309a:	6a1a      	ldr	r2, [r3, #32]
 800309c:	f022 0204 	bic.w	r2, r2, #4
 80030a0:	621a      	str	r2, [r3, #32]
 80030a2:	e02c      	b.n	80030fe <HAL_RCC_OscConfig+0x17a>
 80030a4:	4a65      	ldr	r2, [pc, #404]	; (800323c <HAL_RCC_OscConfig+0x2b8>)
 80030a6:	6851      	ldr	r1, [r2, #4]
 80030a8:	f011 0f0c 	tst.w	r1, #12
 80030ac:	d061      	beq.n	8003172 <HAL_RCC_OscConfig+0x1ee>
 80030ae:	6851      	ldr	r1, [r2, #4]
 80030b0:	f001 010c 	and.w	r1, r1, #12
 80030b4:	2908      	cmp	r1, #8
 80030b6:	d059      	beq.n	800316c <HAL_RCC_OscConfig+0x1e8>
 80030b8:	6923      	ldr	r3, [r4, #16]
 80030ba:	2b00      	cmp	r3, #0
 80030bc:	f000 80eb 	beq.w	8003296 <HAL_RCC_OscConfig+0x312>
 80030c0:	2201      	movs	r2, #1
 80030c2:	4b63      	ldr	r3, [pc, #396]	; (8003250 <HAL_RCC_OscConfig+0x2cc>)
 80030c4:	4d5d      	ldr	r5, [pc, #372]	; (800323c <HAL_RCC_OscConfig+0x2b8>)
 80030c6:	601a      	str	r2, [r3, #0]
 80030c8:	f7ff fb70 	bl	80027ac <HAL_GetTick>
 80030cc:	4606      	mov	r6, r0
 80030ce:	e005      	b.n	80030dc <HAL_RCC_OscConfig+0x158>
 80030d0:	f7ff fb6c 	bl	80027ac <HAL_GetTick>
 80030d4:	1b80      	subs	r0, r0, r6
 80030d6:	2802      	cmp	r0, #2
 80030d8:	f200 8085 	bhi.w	80031e6 <HAL_RCC_OscConfig+0x262>
 80030dc:	682b      	ldr	r3, [r5, #0]
 80030de:	0798      	lsls	r0, r3, #30
 80030e0:	d5f6      	bpl.n	80030d0 <HAL_RCC_OscConfig+0x14c>
 80030e2:	682b      	ldr	r3, [r5, #0]
 80030e4:	6962      	ldr	r2, [r4, #20]
 80030e6:	f023 03f8 	bic.w	r3, r3, #248	; 0xf8
 80030ea:	ea43 03c2 	orr.w	r3, r3, r2, lsl #3
 80030ee:	602b      	str	r3, [r5, #0]
 80030f0:	6823      	ldr	r3, [r4, #0]
 80030f2:	e789      	b.n	8003008 <HAL_RCC_OscConfig+0x84>
 80030f4:	4a51      	ldr	r2, [pc, #324]	; (800323c <HAL_RCC_OscConfig+0x2b8>)
 80030f6:	6a13      	ldr	r3, [r2, #32]
 80030f8:	f043 0301 	orr.w	r3, r3, #1
 80030fc:	6213      	str	r3, [r2, #32]
 80030fe:	f7ff fb55 	bl	80027ac <HAL_GetTick>
 8003102:	4e4e      	ldr	r6, [pc, #312]	; (800323c <HAL_RCC_OscConfig+0x2b8>)
 8003104:	4680      	mov	r8, r0
 8003106:	f241 3788 	movw	r7, #5000	; 0x1388
 800310a:	e005      	b.n	8003118 <HAL_RCC_OscConfig+0x194>
 800310c:	f7ff fb4e 	bl	80027ac <HAL_GetTick>
 8003110:	eba0 0008 	sub.w	r0, r0, r8
 8003114:	42b8      	cmp	r0, r7
 8003116:	d866      	bhi.n	80031e6 <HAL_RCC_OscConfig+0x262>
 8003118:	6a33      	ldr	r3, [r6, #32]
 800311a:	079b      	lsls	r3, r3, #30
 800311c:	d5f6      	bpl.n	800310c <HAL_RCC_OscConfig+0x188>
 800311e:	b125      	cbz	r5, 800312a <HAL_RCC_OscConfig+0x1a6>
 8003120:	4a46      	ldr	r2, [pc, #280]	; (800323c <HAL_RCC_OscConfig+0x2b8>)
 8003122:	69d3      	ldr	r3, [r2, #28]
 8003124:	f023 5380 	bic.w	r3, r3, #268435456	; 0x10000000
 8003128:	61d3      	str	r3, [r2, #28]
 800312a:	69e0      	ldr	r0, [r4, #28]
 800312c:	b1d0      	cbz	r0, 8003164 <HAL_RCC_OscConfig+0x1e0>
 800312e:	4d43      	ldr	r5, [pc, #268]	; (800323c <HAL_RCC_OscConfig+0x2b8>)
 8003130:	686a      	ldr	r2, [r5, #4]
 8003132:	f002 020c 	and.w	r2, r2, #12
 8003136:	2a08      	cmp	r2, #8
 8003138:	f000 80d3 	beq.w	80032e2 <HAL_RCC_OscConfig+0x35e>
 800313c:	2802      	cmp	r0, #2
 800313e:	f04f 0100 	mov.w	r1, #0
 8003142:	4a44      	ldr	r2, [pc, #272]	; (8003254 <HAL_RCC_OscConfig+0x2d0>)
 8003144:	f000 80de 	beq.w	8003304 <HAL_RCC_OscConfig+0x380>
 8003148:	6011      	str	r1, [r2, #0]
 800314a:	f7ff fb2f 	bl	80027ac <HAL_GetTick>
 800314e:	462c      	mov	r4, r5
 8003150:	4605      	mov	r5, r0
 8003152:	e004      	b.n	800315e <HAL_RCC_OscConfig+0x1da>
 8003154:	f7ff fb2a 	bl	80027ac <HAL_GetTick>
 8003158:	1b40      	subs	r0, r0, r5
 800315a:	2802      	cmp	r0, #2
 800315c:	d843      	bhi.n	80031e6 <HAL_RCC_OscConfig+0x262>
 800315e:	6823      	ldr	r3, [r4, #0]
 8003160:	019b      	lsls	r3, r3, #6
 8003162:	d4f7      	bmi.n	8003154 <HAL_RCC_OscConfig+0x1d0>
 8003164:	2000      	movs	r0, #0
 8003166:	b002      	add	sp, #8
 8003168:	e8bd 81f0 	ldmia.w	sp!, {r4, r5, r6, r7, r8, pc}
 800316c:	6852      	ldr	r2, [r2, #4]
 800316e:	03d6      	lsls	r6, r2, #15
 8003170:	d4a2      	bmi.n	80030b8 <HAL_RCC_OscConfig+0x134>
 8003172:	4a32      	ldr	r2, [pc, #200]	; (800323c <HAL_RCC_OscConfig+0x2b8>)
 8003174:	6812      	ldr	r2, [r2, #0]
 8003176:	0795      	lsls	r5, r2, #30
 8003178:	d539      	bpl.n	80031ee <HAL_RCC_OscConfig+0x26a>
 800317a:	6922      	ldr	r2, [r4, #16]
 800317c:	2a01      	cmp	r2, #1
 800317e:	d036      	beq.n	80031ee <HAL_RCC_OscConfig+0x26a>
 8003180:	2001      	movs	r0, #1
 8003182:	b002      	add	sp, #8
 8003184:	e8bd 81f0 	ldmia.w	sp!, {r4, r5, r6, r7, r8, pc}
 8003188:	4a2d      	ldr	r2, [pc, #180]	; (8003240 <HAL_RCC_OscConfig+0x2bc>)
 800318a:	4d2c      	ldr	r5, [pc, #176]	; (800323c <HAL_RCC_OscConfig+0x2b8>)
 800318c:	6013      	str	r3, [r2, #0]
 800318e:	f7ff fb0d 	bl	80027ac <HAL_GetTick>
 8003192:	4606      	mov	r6, r0
 8003194:	e004      	b.n	80031a0 <HAL_RCC_OscConfig+0x21c>
 8003196:	f7ff fb09 	bl	80027ac <HAL_GetTick>
 800319a:	1b80      	subs	r0, r0, r6
 800319c:	2802      	cmp	r0, #2
 800319e:	d822      	bhi.n	80031e6 <HAL_RCC_OscConfig+0x262>
 80031a0:	6a6b      	ldr	r3, [r5, #36]	; 0x24
 80031a2:	079f      	lsls	r7, r3, #30
 80031a4:	d4f7      	bmi.n	8003196 <HAL_RCC_OscConfig+0x212>
 80031a6:	e753      	b.n	8003050 <HAL_RCC_OscConfig+0xcc>
 80031a8:	684a      	ldr	r2, [r1, #4]
 80031aa:	03d0      	lsls	r0, r2, #15
 80031ac:	f57f af01 	bpl.w	8002fb2 <HAL_RCC_OscConfig+0x2e>
 80031b0:	4a22      	ldr	r2, [pc, #136]	; (800323c <HAL_RCC_OscConfig+0x2b8>)
 80031b2:	6812      	ldr	r2, [r2, #0]
 80031b4:	0391      	lsls	r1, r2, #14
 80031b6:	f57f af25 	bpl.w	8003004 <HAL_RCC_OscConfig+0x80>
 80031ba:	6862      	ldr	r2, [r4, #4]
 80031bc:	2a00      	cmp	r2, #0
 80031be:	f47f af21 	bne.w	8003004 <HAL_RCC_OscConfig+0x80>
 80031c2:	e7dd      	b.n	8003180 <HAL_RCC_OscConfig+0x1fc>
 80031c4:	681a      	ldr	r2, [r3, #0]
 80031c6:	461e      	mov	r6, r3
 80031c8:	f442 7280 	orr.w	r2, r2, #256	; 0x100
 80031cc:	601a      	str	r2, [r3, #0]
 80031ce:	f7ff faed 	bl	80027ac <HAL_GetTick>
 80031d2:	4607      	mov	r7, r0
 80031d4:	6833      	ldr	r3, [r6, #0]
 80031d6:	05da      	lsls	r2, r3, #23
 80031d8:	f53f af51 	bmi.w	800307e <HAL_RCC_OscConfig+0xfa>
 80031dc:	f7ff fae6 	bl	80027ac <HAL_GetTick>
 80031e0:	1bc0      	subs	r0, r0, r7
 80031e2:	2864      	cmp	r0, #100	; 0x64
 80031e4:	d9f6      	bls.n	80031d4 <HAL_RCC_OscConfig+0x250>
 80031e6:	2003      	movs	r0, #3
 80031e8:	b002      	add	sp, #8
 80031ea:	e8bd 81f0 	ldmia.w	sp!, {r4, r5, r6, r7, r8, pc}
 80031ee:	4913      	ldr	r1, [pc, #76]	; (800323c <HAL_RCC_OscConfig+0x2b8>)
 80031f0:	6960      	ldr	r0, [r4, #20]
 80031f2:	680a      	ldr	r2, [r1, #0]
 80031f4:	f022 02f8 	bic.w	r2, r2, #248	; 0xf8
 80031f8:	ea42 02c0 	orr.w	r2, r2, r0, lsl #3
 80031fc:	600a      	str	r2, [r1, #0]
 80031fe:	e703      	b.n	8003008 <HAL_RCC_OscConfig+0x84>
 8003200:	f103 4380 	add.w	r3, r3, #1073741824	; 0x40000000
 8003204:	f503 3304 	add.w	r3, r3, #135168	; 0x21000
 8003208:	681a      	ldr	r2, [r3, #0]
 800320a:	461d      	mov	r5, r3
 800320c:	f422 3280 	bic.w	r2, r2, #65536	; 0x10000
 8003210:	601a      	str	r2, [r3, #0]
 8003212:	681a      	ldr	r2, [r3, #0]
 8003214:	f422 2280 	bic.w	r2, r2, #262144	; 0x40000
 8003218:	601a      	str	r2, [r3, #0]
 800321a:	f7ff fac7 	bl	80027ac <HAL_GetTick>
 800321e:	4606      	mov	r6, r0
 8003220:	e004      	b.n	800322c <HAL_RCC_OscConfig+0x2a8>
 8003222:	f7ff fac3 	bl	80027ac <HAL_GetTick>
 8003226:	1b80      	subs	r0, r0, r6
 8003228:	2864      	cmp	r0, #100	; 0x64
 800322a:	d8dc      	bhi.n	80031e6 <HAL_RCC_OscConfig+0x262>
 800322c:	682b      	ldr	r3, [r5, #0]
 800322e:	039b      	lsls	r3, r3, #14
 8003230:	d4f7      	bmi.n	8003222 <HAL_RCC_OscConfig+0x29e>
 8003232:	e6e6      	b.n	8003002 <HAL_RCC_OscConfig+0x7e>
 8003234:	2001      	movs	r0, #1
 8003236:	4770      	bx	lr
 8003238:	2500      	movs	r5, #0
 800323a:	e71b      	b.n	8003074 <HAL_RCC_OscConfig+0xf0>
 800323c:	40021000 	.word	0x40021000
 8003240:	42420480 	.word	0x42420480
 8003244:	2000056c 	.word	0x2000056c
 8003248:	10624dd3 	.word	0x10624dd3
 800324c:	40007000 	.word	0x40007000
 8003250:	42420000 	.word	0x42420000
 8003254:	42420060 	.word	0x42420060
 8003258:	f103 4380 	add.w	r3, r3, #1073741824	; 0x40000000
 800325c:	f503 3304 	add.w	r3, r3, #135168	; 0x21000
 8003260:	6a1a      	ldr	r2, [r3, #32]
 8003262:	461e      	mov	r6, r3
 8003264:	f022 0201 	bic.w	r2, r2, #1
 8003268:	621a      	str	r2, [r3, #32]
 800326a:	6a1a      	ldr	r2, [r3, #32]
 800326c:	f241 3888 	movw	r8, #5000	; 0x1388
 8003270:	f022 0204 	bic.w	r2, r2, #4
 8003274:	621a      	str	r2, [r3, #32]
 8003276:	f7ff fa99 	bl	80027ac <HAL_GetTick>
 800327a:	4607      	mov	r7, r0
 800327c:	e004      	b.n	8003288 <HAL_RCC_OscConfig+0x304>
 800327e:	f7ff fa95 	bl	80027ac <HAL_GetTick>
 8003282:	1bc0      	subs	r0, r0, r7
 8003284:	4540      	cmp	r0, r8
 8003286:	d8ae      	bhi.n	80031e6 <HAL_RCC_OscConfig+0x262>
 8003288:	6a33      	ldr	r3, [r6, #32]
 800328a:	0798      	lsls	r0, r3, #30
 800328c:	d4f7      	bmi.n	800327e <HAL_RCC_OscConfig+0x2fa>
 800328e:	2d00      	cmp	r5, #0
 8003290:	f43f af4b 	beq.w	800312a <HAL_RCC_OscConfig+0x1a6>
 8003294:	e744      	b.n	8003120 <HAL_RCC_OscConfig+0x19c>
 8003296:	4a34      	ldr	r2, [pc, #208]	; (8003368 <HAL_RCC_OscConfig+0x3e4>)
 8003298:	4d34      	ldr	r5, [pc, #208]	; (800336c <HAL_RCC_OscConfig+0x3e8>)
 800329a:	6013      	str	r3, [r2, #0]
 800329c:	f7ff fa86 	bl	80027ac <HAL_GetTick>
 80032a0:	4606      	mov	r6, r0
 80032a2:	e004      	b.n	80032ae <HAL_RCC_OscConfig+0x32a>
 80032a4:	f7ff fa82 	bl	80027ac <HAL_GetTick>
 80032a8:	1b80      	subs	r0, r0, r6
 80032aa:	2802      	cmp	r0, #2
 80032ac:	d89b      	bhi.n	80031e6 <HAL_RCC_OscConfig+0x262>
 80032ae:	682b      	ldr	r3, [r5, #0]
 80032b0:	0799      	lsls	r1, r3, #30
 80032b2:	d4f7      	bmi.n	80032a4 <HAL_RCC_OscConfig+0x320>
 80032b4:	6823      	ldr	r3, [r4, #0]
 80032b6:	e6a7      	b.n	8003008 <HAL_RCC_OscConfig+0x84>
 80032b8:	f103 4380 	add.w	r3, r3, #1073741824	; 0x40000000
 80032bc:	f5a3 333c 	sub.w	r3, r3, #192512	; 0x2f000
 80032c0:	681a      	ldr	r2, [r3, #0]
 80032c2:	f442 2280 	orr.w	r2, r2, #262144	; 0x40000
 80032c6:	601a      	str	r2, [r3, #0]
 80032c8:	681a      	ldr	r2, [r3, #0]
 80032ca:	f442 3280 	orr.w	r2, r2, #65536	; 0x10000
 80032ce:	601a      	str	r2, [r3, #0]
 80032d0:	e689      	b.n	8002fe6 <HAL_RCC_OscConfig+0x62>
 80032d2:	f042 0204 	orr.w	r2, r2, #4
 80032d6:	621a      	str	r2, [r3, #32]
 80032d8:	6a1a      	ldr	r2, [r3, #32]
 80032da:	f042 0201 	orr.w	r2, r2, #1
 80032de:	621a      	str	r2, [r3, #32]
 80032e0:	e70d      	b.n	80030fe <HAL_RCC_OscConfig+0x17a>
 80032e2:	2801      	cmp	r0, #1
 80032e4:	f43f af4d 	beq.w	8003182 <HAL_RCC_OscConfig+0x1fe>
 80032e8:	686b      	ldr	r3, [r5, #4]
 80032ea:	6a22      	ldr	r2, [r4, #32]
 80032ec:	f403 3180 	and.w	r1, r3, #65536	; 0x10000
 80032f0:	4291      	cmp	r1, r2
 80032f2:	f47f af45 	bne.w	8003180 <HAL_RCC_OscConfig+0x1fc>
 80032f6:	6a60      	ldr	r0, [r4, #36]	; 0x24
 80032f8:	f403 1370 	and.w	r3, r3, #3932160	; 0x3c0000
 80032fc:	1a18      	subs	r0, r3, r0
 80032fe:	bf18      	it	ne
 8003300:	2001      	movne	r0, #1
 8003302:	e73e      	b.n	8003182 <HAL_RCC_OscConfig+0x1fe>
 8003304:	6011      	str	r1, [r2, #0]
 8003306:	f7ff fa51 	bl	80027ac <HAL_GetTick>
 800330a:	4606      	mov	r6, r0
 800330c:	e005      	b.n	800331a <HAL_RCC_OscConfig+0x396>
 800330e:	f7ff fa4d 	bl	80027ac <HAL_GetTick>
 8003312:	1b80      	subs	r0, r0, r6
 8003314:	2802      	cmp	r0, #2
 8003316:	f63f af66 	bhi.w	80031e6 <HAL_RCC_OscConfig+0x262>
 800331a:	682b      	ldr	r3, [r5, #0]
 800331c:	0199      	lsls	r1, r3, #6
 800331e:	d4f6      	bmi.n	800330e <HAL_RCC_OscConfig+0x38a>
 8003320:	6a22      	ldr	r2, [r4, #32]
 8003322:	f5b2 3f80 	cmp.w	r2, #65536	; 0x10000
 8003326:	d105      	bne.n	8003334 <HAL_RCC_OscConfig+0x3b0>
 8003328:	686b      	ldr	r3, [r5, #4]
 800332a:	68a1      	ldr	r1, [r4, #8]
 800332c:	f423 3300 	bic.w	r3, r3, #131072	; 0x20000
 8003330:	430b      	orrs	r3, r1
 8003332:	606b      	str	r3, [r5, #4]
 8003334:	2501      	movs	r5, #1
 8003336:	4b0d      	ldr	r3, [pc, #52]	; (800336c <HAL_RCC_OscConfig+0x3e8>)
 8003338:	6a60      	ldr	r0, [r4, #36]	; 0x24
 800333a:	6859      	ldr	r1, [r3, #4]
 800333c:	4302      	orrs	r2, r0
 800333e:	f421 1174 	bic.w	r1, r1, #3997696	; 0x3d0000
 8003342:	480b      	ldr	r0, [pc, #44]	; (8003370 <HAL_RCC_OscConfig+0x3ec>)
 8003344:	430a      	orrs	r2, r1
 8003346:	605a      	str	r2, [r3, #4]
 8003348:	6005      	str	r5, [r0, #0]
 800334a:	461c      	mov	r4, r3
 800334c:	f7ff fa2e 	bl	80027ac <HAL_GetTick>
 8003350:	4605      	mov	r5, r0
 8003352:	e005      	b.n	8003360 <HAL_RCC_OscConfig+0x3dc>
 8003354:	f7ff fa2a 	bl	80027ac <HAL_GetTick>
 8003358:	1b40      	subs	r0, r0, r5
 800335a:	2802      	cmp	r0, #2
 800335c:	f63f af43 	bhi.w	80031e6 <HAL_RCC_OscConfig+0x262>
 8003360:	6823      	ldr	r3, [r4, #0]
 8003362:	019a      	lsls	r2, r3, #6
 8003364:	d5f6      	bpl.n	8003354 <HAL_RCC_OscConfig+0x3d0>
 8003366:	e6fd      	b.n	8003164 <HAL_RCC_OscConfig+0x1e0>
 8003368:	42420000 	.word	0x42420000
 800336c:	40021000 	.word	0x40021000
 8003370:	42420060 	.word	0x42420060

08003374 <HAL_RCC_ClockConfig>:
 8003374:	b178      	cbz	r0, 8003396 <HAL_RCC_ClockConfig+0x22>
 8003376:	4a5d      	ldr	r2, [pc, #372]	; (80034ec <HAL_RCC_ClockConfig+0x178>)
 8003378:	6813      	ldr	r3, [r2, #0]
 800337a:	f003 0307 	and.w	r3, r3, #7
 800337e:	428b      	cmp	r3, r1
 8003380:	d20b      	bcs.n	800339a <HAL_RCC_ClockConfig+0x26>
 8003382:	6813      	ldr	r3, [r2, #0]
 8003384:	f023 0307 	bic.w	r3, r3, #7
 8003388:	430b      	orrs	r3, r1
 800338a:	6013      	str	r3, [r2, #0]
 800338c:	6813      	ldr	r3, [r2, #0]
 800338e:	f003 0307 	and.w	r3, r3, #7
 8003392:	428b      	cmp	r3, r1
 8003394:	d001      	beq.n	800339a <HAL_RCC_ClockConfig+0x26>
 8003396:	2001      	movs	r0, #1
 8003398:	4770      	bx	lr
 800339a:	e92d 41f0 	stmdb	sp!, {r4, r5, r6, r7, r8, lr}
 800339e:	6803      	ldr	r3, [r0, #0]
 80033a0:	b086      	sub	sp, #24
 80033a2:	079d      	lsls	r5, r3, #30
 80033a4:	d514      	bpl.n	80033d0 <HAL_RCC_ClockConfig+0x5c>
 80033a6:	075c      	lsls	r4, r3, #29
 80033a8:	d504      	bpl.n	80033b4 <HAL_RCC_ClockConfig+0x40>
 80033aa:	4c51      	ldr	r4, [pc, #324]	; (80034f0 <HAL_RCC_ClockConfig+0x17c>)
 80033ac:	6862      	ldr	r2, [r4, #4]
 80033ae:	f442 62e0 	orr.w	r2, r2, #1792	; 0x700
 80033b2:	6062      	str	r2, [r4, #4]
 80033b4:	071a      	lsls	r2, r3, #28
 80033b6:	d504      	bpl.n	80033c2 <HAL_RCC_ClockConfig+0x4e>
 80033b8:	4c4d      	ldr	r4, [pc, #308]	; (80034f0 <HAL_RCC_ClockConfig+0x17c>)
 80033ba:	6862      	ldr	r2, [r4, #4]
 80033bc:	f442 5260 	orr.w	r2, r2, #14336	; 0x3800
 80033c0:	6062      	str	r2, [r4, #4]
 80033c2:	4c4b      	ldr	r4, [pc, #300]	; (80034f0 <HAL_RCC_ClockConfig+0x17c>)
 80033c4:	6885      	ldr	r5, [r0, #8]
 80033c6:	6862      	ldr	r2, [r4, #4]
 80033c8:	f022 02f0 	bic.w	r2, r2, #240	; 0xf0
 80033cc:	432a      	orrs	r2, r5
 80033ce:	6062      	str	r2, [r4, #4]
 80033d0:	07db      	lsls	r3, r3, #31
 80033d2:	4604      	mov	r4, r0
 80033d4:	460d      	mov	r5, r1
 80033d6:	d520      	bpl.n	800341a <HAL_RCC_ClockConfig+0xa6>
 80033d8:	6842      	ldr	r2, [r0, #4]
 80033da:	4b45      	ldr	r3, [pc, #276]	; (80034f0 <HAL_RCC_ClockConfig+0x17c>)
 80033dc:	2a01      	cmp	r2, #1
 80033de:	681b      	ldr	r3, [r3, #0]
 80033e0:	d06f      	beq.n	80034c2 <HAL_RCC_ClockConfig+0x14e>
 80033e2:	2a02      	cmp	r2, #2
 80033e4:	d07e      	beq.n	80034e4 <HAL_RCC_ClockConfig+0x170>
 80033e6:	0798      	lsls	r0, r3, #30
 80033e8:	d527      	bpl.n	800343a <HAL_RCC_ClockConfig+0xc6>
 80033ea:	4e41      	ldr	r6, [pc, #260]	; (80034f0 <HAL_RCC_ClockConfig+0x17c>)
 80033ec:	f241 3888 	movw	r8, #5000	; 0x1388
 80033f0:	6873      	ldr	r3, [r6, #4]
 80033f2:	f023 0303 	bic.w	r3, r3, #3
 80033f6:	4313      	orrs	r3, r2
 80033f8:	6073      	str	r3, [r6, #4]
 80033fa:	f7ff f9d7 	bl	80027ac <HAL_GetTick>
 80033fe:	4607      	mov	r7, r0
 8003400:	e004      	b.n	800340c <HAL_RCC_ClockConfig+0x98>
 8003402:	f7ff f9d3 	bl	80027ac <HAL_GetTick>
 8003406:	1bc0      	subs	r0, r0, r7
 8003408:	4540      	cmp	r0, r8
 800340a:	d869      	bhi.n	80034e0 <HAL_RCC_ClockConfig+0x16c>
 800340c:	6873      	ldr	r3, [r6, #4]
 800340e:	6862      	ldr	r2, [r4, #4]
 8003410:	f003 030c 	and.w	r3, r3, #12
 8003414:	ebb3 0f82 	cmp.w	r3, r2, lsl #2
 8003418:	d1f3      	bne.n	8003402 <HAL_RCC_ClockConfig+0x8e>
 800341a:	4a34      	ldr	r2, [pc, #208]	; (80034ec <HAL_RCC_ClockConfig+0x178>)
 800341c:	6813      	ldr	r3, [r2, #0]
 800341e:	f003 0307 	and.w	r3, r3, #7
 8003422:	42ab      	cmp	r3, r5
 8003424:	d90d      	bls.n	8003442 <HAL_RCC_ClockConfig+0xce>
 8003426:	6813      	ldr	r3, [r2, #0]
 8003428:	f023 0307 	bic.w	r3, r3, #7
 800342c:	432b      	orrs	r3, r5
 800342e:	6013      	str	r3, [r2, #0]
 8003430:	6813      	ldr	r3, [r2, #0]
 8003432:	f003 0307 	and.w	r3, r3, #7
 8003436:	42ab      	cmp	r3, r5
 8003438:	d003      	beq.n	8003442 <HAL_RCC_ClockConfig+0xce>
 800343a:	2001      	movs	r0, #1
 800343c:	b006      	add	sp, #24
 800343e:	e8bd 81f0 	ldmia.w	sp!, {r4, r5, r6, r7, r8, pc}
 8003442:	6823      	ldr	r3, [r4, #0]
 8003444:	0759      	lsls	r1, r3, #29
 8003446:	d506      	bpl.n	8003456 <HAL_RCC_ClockConfig+0xe2>
 8003448:	4929      	ldr	r1, [pc, #164]	; (80034f0 <HAL_RCC_ClockConfig+0x17c>)
 800344a:	68e0      	ldr	r0, [r4, #12]
 800344c:	684a      	ldr	r2, [r1, #4]
 800344e:	f422 62e0 	bic.w	r2, r2, #1792	; 0x700
 8003452:	4302      	orrs	r2, r0
 8003454:	604a      	str	r2, [r1, #4]
 8003456:	071a      	lsls	r2, r3, #28
 8003458:	d507      	bpl.n	800346a <HAL_RCC_ClockConfig+0xf6>
 800345a:	4a25      	ldr	r2, [pc, #148]	; (80034f0 <HAL_RCC_ClockConfig+0x17c>)
 800345c:	6921      	ldr	r1, [r4, #16]
 800345e:	6853      	ldr	r3, [r2, #4]
 8003460:	f423 5360 	bic.w	r3, r3, #14336	; 0x3800
 8003464:	ea43 03c1 	orr.w	r3, r3, r1, lsl #3
 8003468:	6053      	str	r3, [r2, #4]
 800346a:	f240 2201 	movw	r2, #513	; 0x201
 800346e:	4b21      	ldr	r3, [pc, #132]	; (80034f4 <HAL_RCC_ClockConfig+0x180>)
 8003470:	ac06      	add	r4, sp, #24
 8003472:	f8ad 2004 	strh.w	r2, [sp, #4]
 8003476:	cb0f      	ldmia	r3, {r0, r1, r2, r3}
 8003478:	e904 000f 	stmdb	r4, {r0, r1, r2, r3}
 800347c:	491c      	ldr	r1, [pc, #112]	; (80034f0 <HAL_RCC_ClockConfig+0x17c>)
 800347e:	684a      	ldr	r2, [r1, #4]
 8003480:	f002 030c 	and.w	r3, r2, #12
 8003484:	2b08      	cmp	r3, #8
 8003486:	d11a      	bne.n	80034be <HAL_RCC_ClockConfig+0x14a>
 8003488:	f3c2 4383 	ubfx	r3, r2, #18, #4
 800348c:	4423      	add	r3, r4
 800348e:	f813 0c10 	ldrb.w	r0, [r3, #-16]
 8003492:	03d3      	lsls	r3, r2, #15
 8003494:	d418      	bmi.n	80034c8 <HAL_RCC_ClockConfig+0x154>
 8003496:	4b18      	ldr	r3, [pc, #96]	; (80034f8 <HAL_RCC_ClockConfig+0x184>)
 8003498:	fb03 f300 	mul.w	r3, r3, r0
 800349c:	4a14      	ldr	r2, [pc, #80]	; (80034f0 <HAL_RCC_ClockConfig+0x17c>)
 800349e:	4817      	ldr	r0, [pc, #92]	; (80034fc <HAL_RCC_ClockConfig+0x188>)
 80034a0:	6852      	ldr	r2, [r2, #4]
 80034a2:	4917      	ldr	r1, [pc, #92]	; (8003500 <HAL_RCC_ClockConfig+0x18c>)
 80034a4:	f3c2 1203 	ubfx	r2, r2, #4, #4
 80034a8:	5c80      	ldrb	r0, [r0, r2]
 80034aa:	4a16      	ldr	r2, [pc, #88]	; (8003504 <HAL_RCC_ClockConfig+0x190>)
 80034ac:	40c3      	lsrs	r3, r0
 80034ae:	6808      	ldr	r0, [r1, #0]
 80034b0:	6013      	str	r3, [r2, #0]
 80034b2:	f7fe fd35 	bl	8001f20 <HAL_InitTick>
 80034b6:	2000      	movs	r0, #0
 80034b8:	b006      	add	sp, #24
 80034ba:	e8bd 81f0 	ldmia.w	sp!, {r4, r5, r6, r7, r8, pc}
 80034be:	4b12      	ldr	r3, [pc, #72]	; (8003508 <HAL_RCC_ClockConfig+0x194>)
 80034c0:	e7ec      	b.n	800349c <HAL_RCC_ClockConfig+0x128>
 80034c2:	039f      	lsls	r7, r3, #14
 80034c4:	d491      	bmi.n	80033ea <HAL_RCC_ClockConfig+0x76>
 80034c6:	e7b8      	b.n	800343a <HAL_RCC_ClockConfig+0xc6>
 80034c8:	684a      	ldr	r2, [r1, #4]
 80034ca:	4b0f      	ldr	r3, [pc, #60]	; (8003508 <HAL_RCC_ClockConfig+0x194>)
 80034cc:	f3c2 4240 	ubfx	r2, r2, #17, #1
 80034d0:	fb03 f300 	mul.w	r3, r3, r0
 80034d4:	4422      	add	r2, r4
 80034d6:	f812 2c14 	ldrb.w	r2, [r2, #-20]
 80034da:	fbb3 f3f2 	udiv	r3, r3, r2
 80034de:	e7dd      	b.n	800349c <HAL_RCC_ClockConfig+0x128>
 80034e0:	2003      	movs	r0, #3
 80034e2:	e7ab      	b.n	800343c <HAL_RCC_ClockConfig+0xc8>
 80034e4:	019e      	lsls	r6, r3, #6
 80034e6:	d480      	bmi.n	80033ea <HAL_RCC_ClockConfig+0x76>
 80034e8:	e7a7      	b.n	800343a <HAL_RCC_ClockConfig+0xc6>
 80034ea:	bf00      	nop
 80034ec:	40022000 	.word	0x40022000
 80034f0:	40021000 	.word	0x40021000
 80034f4:	08007c64 	.word	0x08007c64
 80034f8:	003d0900 	.word	0x003d0900
 80034fc:	08007fac 	.word	0x08007fac
 8003500:	20000574 	.word	0x20000574
 8003504:	2000056c 	.word	0x2000056c
 8003508:	007a1200 	.word	0x007a1200

0800350c <HAL_RCC_EnableCSS>:
 800350c:	2201      	movs	r2, #1
 800350e:	4b01      	ldr	r3, [pc, #4]	; (8003514 <HAL_RCC_EnableCSS+0x8>)
 8003510:	601a      	str	r2, [r3, #0]
 8003512:	4770      	bx	lr
 8003514:	4242004c 	.word	0x4242004c

08003518 <HAL_RCC_GetHCLKFreq>:
 8003518:	4b01      	ldr	r3, [pc, #4]	; (8003520 <HAL_RCC_GetHCLKFreq+0x8>)
 800351a:	6818      	ldr	r0, [r3, #0]
 800351c:	4770      	bx	lr
 800351e:	bf00      	nop
 8003520:	2000056c 	.word	0x2000056c

08003524 <HAL_RCC_GetPCLK1Freq>:
 8003524:	4b04      	ldr	r3, [pc, #16]	; (8003538 <HAL_RCC_GetPCLK1Freq+0x14>)
 8003526:	4905      	ldr	r1, [pc, #20]	; (800353c <HAL_RCC_GetPCLK1Freq+0x18>)
 8003528:	685b      	ldr	r3, [r3, #4]
 800352a:	4a05      	ldr	r2, [pc, #20]	; (8003540 <HAL_RCC_GetPCLK1Freq+0x1c>)
 800352c:	f3c3 2302 	ubfx	r3, r3, #8, #3
 8003530:	5ccb      	ldrb	r3, [r1, r3]
 8003532:	6810      	ldr	r0, [r2, #0]
 8003534:	40d8      	lsrs	r0, r3
 8003536:	4770      	bx	lr
 8003538:	40021000 	.word	0x40021000
 800353c:	08007fbc 	.word	0x08007fbc
 8003540:	2000056c 	.word	0x2000056c

08003544 <HAL_RCC_GetPCLK2Freq>:
 8003544:	4b04      	ldr	r3, [pc, #16]	; (8003558 <HAL_RCC_GetPCLK2Freq+0x14>)
 8003546:	4905      	ldr	r1, [pc, #20]	; (800355c <HAL_RCC_GetPCLK2Freq+0x18>)
 8003548:	685b      	ldr	r3, [r3, #4]
 800354a:	4a05      	ldr	r2, [pc, #20]	; (8003560 <HAL_RCC_GetPCLK2Freq+0x1c>)
 800354c:	f3c3 23c2 	ubfx	r3, r3, #11, #3
 8003550:	5ccb      	ldrb	r3, [r1, r3]
 8003552:	6810      	ldr	r0, [r2, #0]
 8003554:	40d8      	lsrs	r0, r3
 8003556:	4770      	bx	lr
 8003558:	40021000 	.word	0x40021000
 800355c:	08007fbc 	.word	0x08007fbc
 8003560:	2000056c 	.word	0x2000056c

08003564 <HAL_RCC_GetClockConfig>:
 8003564:	220f      	movs	r2, #15
 8003566:	4b0d      	ldr	r3, [pc, #52]	; (800359c <HAL_RCC_GetClockConfig+0x38>)
 8003568:	6002      	str	r2, [r0, #0]
 800356a:	685a      	ldr	r2, [r3, #4]
 800356c:	b410      	push	{r4}
 800356e:	f002 0203 	and.w	r2, r2, #3
 8003572:	6042      	str	r2, [r0, #4]
 8003574:	685a      	ldr	r2, [r3, #4]
 8003576:	4c0a      	ldr	r4, [pc, #40]	; (80035a0 <HAL_RCC_GetClockConfig+0x3c>)
 8003578:	f002 02f0 	and.w	r2, r2, #240	; 0xf0
 800357c:	6082      	str	r2, [r0, #8]
 800357e:	685a      	ldr	r2, [r3, #4]
 8003580:	f402 62e0 	and.w	r2, r2, #1792	; 0x700
 8003584:	60c2      	str	r2, [r0, #12]
 8003586:	685b      	ldr	r3, [r3, #4]
 8003588:	08db      	lsrs	r3, r3, #3
 800358a:	f403 63e0 	and.w	r3, r3, #1792	; 0x700
 800358e:	6103      	str	r3, [r0, #16]
 8003590:	6823      	ldr	r3, [r4, #0]
 8003592:	bc10      	pop	{r4}
 8003594:	f003 0307 	and.w	r3, r3, #7
 8003598:	600b      	str	r3, [r1, #0]
 800359a:	4770      	bx	lr
 800359c:	40021000 	.word	0x40021000
 80035a0:	40022000 	.word	0x40022000

080035a4 <HAL_RCCEx_PeriphCLKConfig>:
 80035a4:	e92d 41f0 	stmdb	sp!, {r4, r5, r6, r7, r8, lr}
 80035a8:	4604      	mov	r4, r0
 80035aa:	6800      	ldr	r0, [r0, #0]
 80035ac:	b082      	sub	sp, #8
 80035ae:	07c5      	lsls	r5, r0, #31
 80035b0:	d52a      	bpl.n	8003608 <HAL_RCCEx_PeriphCLKConfig+0x64>
 80035b2:	4b3a      	ldr	r3, [pc, #232]	; (800369c <HAL_RCCEx_PeriphCLKConfig+0xf8>)
 80035b4:	69da      	ldr	r2, [r3, #28]
 80035b6:	00d1      	lsls	r1, r2, #3
 80035b8:	d53d      	bpl.n	8003636 <HAL_RCCEx_PeriphCLKConfig+0x92>
 80035ba:	4b39      	ldr	r3, [pc, #228]	; (80036a0 <HAL_RCCEx_PeriphCLKConfig+0xfc>)
 80035bc:	2500      	movs	r5, #0
 80035be:	681a      	ldr	r2, [r3, #0]
 80035c0:	05d2      	lsls	r2, r2, #23
 80035c2:	d546      	bpl.n	8003652 <HAL_RCCEx_PeriphCLKConfig+0xae>
 80035c4:	4935      	ldr	r1, [pc, #212]	; (800369c <HAL_RCCEx_PeriphCLKConfig+0xf8>)
 80035c6:	6860      	ldr	r0, [r4, #4]
 80035c8:	6a0a      	ldr	r2, [r1, #32]
 80035ca:	f412 7240 	ands.w	r2, r2, #768	; 0x300
 80035ce:	d00f      	beq.n	80035f0 <HAL_RCCEx_PeriphCLKConfig+0x4c>
 80035d0:	f400 7340 	and.w	r3, r0, #768	; 0x300
 80035d4:	4293      	cmp	r3, r2
 80035d6:	d00b      	beq.n	80035f0 <HAL_RCCEx_PeriphCLKConfig+0x4c>
 80035d8:	2701      	movs	r7, #1
 80035da:	2600      	movs	r6, #0
 80035dc:	6a0b      	ldr	r3, [r1, #32]
 80035de:	4a31      	ldr	r2, [pc, #196]	; (80036a4 <HAL_RCCEx_PeriphCLKConfig+0x100>)
 80035e0:	f423 7040 	bic.w	r0, r3, #768	; 0x300
 80035e4:	6017      	str	r7, [r2, #0]
 80035e6:	6016      	str	r6, [r2, #0]
 80035e8:	6208      	str	r0, [r1, #32]
 80035ea:	07d8      	lsls	r0, r3, #31
 80035ec:	d445      	bmi.n	800367a <HAL_RCCEx_PeriphCLKConfig+0xd6>
 80035ee:	6860      	ldr	r0, [r4, #4]
 80035f0:	4a2a      	ldr	r2, [pc, #168]	; (800369c <HAL_RCCEx_PeriphCLKConfig+0xf8>)
 80035f2:	6a13      	ldr	r3, [r2, #32]
 80035f4:	f423 7340 	bic.w	r3, r3, #768	; 0x300
 80035f8:	4303      	orrs	r3, r0
 80035fa:	6213      	str	r3, [r2, #32]
 80035fc:	b11d      	cbz	r5, 8003606 <HAL_RCCEx_PeriphCLKConfig+0x62>
 80035fe:	69d3      	ldr	r3, [r2, #28]
 8003600:	f023 5380 	bic.w	r3, r3, #268435456	; 0x10000000
 8003604:	61d3      	str	r3, [r2, #28]
 8003606:	6820      	ldr	r0, [r4, #0]
 8003608:	0783      	lsls	r3, r0, #30
 800360a:	d506      	bpl.n	800361a <HAL_RCCEx_PeriphCLKConfig+0x76>
 800360c:	4a23      	ldr	r2, [pc, #140]	; (800369c <HAL_RCCEx_PeriphCLKConfig+0xf8>)
 800360e:	68a1      	ldr	r1, [r4, #8]
 8003610:	6853      	ldr	r3, [r2, #4]
 8003612:	f423 4340 	bic.w	r3, r3, #49152	; 0xc000
 8003616:	430b      	orrs	r3, r1
 8003618:	6053      	str	r3, [r2, #4]
 800361a:	f010 0010 	ands.w	r0, r0, #16
 800361e:	d007      	beq.n	8003630 <HAL_RCCEx_PeriphCLKConfig+0x8c>
 8003620:	2000      	movs	r0, #0
 8003622:	4a1e      	ldr	r2, [pc, #120]	; (800369c <HAL_RCCEx_PeriphCLKConfig+0xf8>)
 8003624:	68e1      	ldr	r1, [r4, #12]
 8003626:	6853      	ldr	r3, [r2, #4]
 8003628:	f423 0380 	bic.w	r3, r3, #4194304	; 0x400000
 800362c:	430b      	orrs	r3, r1
 800362e:	6053      	str	r3, [r2, #4]
 8003630:	b002      	add	sp, #8
 8003632:	e8bd 81f0 	ldmia.w	sp!, {r4, r5, r6, r7, r8, pc}
 8003636:	69da      	ldr	r2, [r3, #28]
 8003638:	2501      	movs	r5, #1
 800363a:	f042 5280 	orr.w	r2, r2, #268435456	; 0x10000000
 800363e:	61da      	str	r2, [r3, #28]
 8003640:	69db      	ldr	r3, [r3, #28]
 8003642:	f003 5380 	and.w	r3, r3, #268435456	; 0x10000000
 8003646:	9301      	str	r3, [sp, #4]
 8003648:	9b01      	ldr	r3, [sp, #4]
 800364a:	4b15      	ldr	r3, [pc, #84]	; (80036a0 <HAL_RCCEx_PeriphCLKConfig+0xfc>)
 800364c:	681a      	ldr	r2, [r3, #0]
 800364e:	05d2      	lsls	r2, r2, #23
 8003650:	d4b8      	bmi.n	80035c4 <HAL_RCCEx_PeriphCLKConfig+0x20>
 8003652:	681a      	ldr	r2, [r3, #0]
 8003654:	461e      	mov	r6, r3
 8003656:	f442 7280 	orr.w	r2, r2, #256	; 0x100
 800365a:	601a      	str	r2, [r3, #0]
 800365c:	f7ff f8a6 	bl	80027ac <HAL_GetTick>
 8003660:	4607      	mov	r7, r0
 8003662:	6833      	ldr	r3, [r6, #0]
 8003664:	05db      	lsls	r3, r3, #23
 8003666:	d4ad      	bmi.n	80035c4 <HAL_RCCEx_PeriphCLKConfig+0x20>
 8003668:	f7ff f8a0 	bl	80027ac <HAL_GetTick>
 800366c:	1bc0      	subs	r0, r0, r7
 800366e:	2864      	cmp	r0, #100	; 0x64
 8003670:	d9f7      	bls.n	8003662 <HAL_RCCEx_PeriphCLKConfig+0xbe>
 8003672:	2003      	movs	r0, #3
 8003674:	b002      	add	sp, #8
 8003676:	e8bd 81f0 	ldmia.w	sp!, {r4, r5, r6, r7, r8, pc}
 800367a:	460e      	mov	r6, r1
 800367c:	f7ff f896 	bl	80027ac <HAL_GetTick>
 8003680:	f241 3788 	movw	r7, #5000	; 0x1388
 8003684:	4680      	mov	r8, r0
 8003686:	6a33      	ldr	r3, [r6, #32]
 8003688:	079a      	lsls	r2, r3, #30
 800368a:	d4b0      	bmi.n	80035ee <HAL_RCCEx_PeriphCLKConfig+0x4a>
 800368c:	f7ff f88e 	bl	80027ac <HAL_GetTick>
 8003690:	eba0 0008 	sub.w	r0, r0, r8
 8003694:	42b8      	cmp	r0, r7
 8003696:	d9f6      	bls.n	8003686 <HAL_RCCEx_PeriphCLKConfig+0xe2>
 8003698:	e7eb      	b.n	8003672 <HAL_RCCEx_PeriphCLKConfig+0xce>
 800369a:	bf00      	nop
 800369c:	40021000 	.word	0x40021000
 80036a0:	40007000 	.word	0x40007000
 80036a4:	42420440 	.word	0x42420440

080036a8 <HAL_TIM_Base_Init>:
 80036a8:	2800      	cmp	r0, #0
 80036aa:	d048      	beq.n	800373e <HAL_TIM_Base_Init+0x96>
 80036ac:	f890 303d 	ldrb.w	r3, [r0, #61]	; 0x3d
 80036b0:	b570      	push	{r4, r5, r6, lr}
 80036b2:	f003 02ff 	and.w	r2, r3, #255	; 0xff
 80036b6:	4604      	mov	r4, r0
 80036b8:	b39b      	cbz	r3, 8003722 <HAL_TIM_Base_Init+0x7a>
 80036ba:	2302      	movs	r3, #2
 80036bc:	6822      	ldr	r2, [r4, #0]
 80036be:	4e29      	ldr	r6, [pc, #164]	; (8003764 <HAL_TIM_Base_Init+0xbc>)
 80036c0:	f884 303d 	strb.w	r3, [r4, #61]	; 0x3d
 80036c4:	42b2      	cmp	r2, r6
 80036c6:	6813      	ldr	r3, [r2, #0]
 80036c8:	69a5      	ldr	r5, [r4, #24]
 80036ca:	68e0      	ldr	r0, [r4, #12]
 80036cc:	6861      	ldr	r1, [r4, #4]
 80036ce:	d038      	beq.n	8003742 <HAL_TIM_Base_Init+0x9a>
 80036d0:	f1b2 4f80 	cmp.w	r2, #1073741824	; 0x40000000
 80036d4:	d02a      	beq.n	800372c <HAL_TIM_Base_Init+0x84>
 80036d6:	f5a6 3694 	sub.w	r6, r6, #75776	; 0x12800
 80036da:	42b2      	cmp	r2, r6
 80036dc:	d026      	beq.n	800372c <HAL_TIM_Base_Init+0x84>
 80036de:	f506 6680 	add.w	r6, r6, #1024	; 0x400
 80036e2:	42b2      	cmp	r2, r6
 80036e4:	d022      	beq.n	800372c <HAL_TIM_Base_Init+0x84>
 80036e6:	f023 0380 	bic.w	r3, r3, #128	; 0x80
 80036ea:	432b      	orrs	r3, r5
 80036ec:	6013      	str	r3, [r2, #0]
 80036ee:	62d0      	str	r0, [r2, #44]	; 0x2c
 80036f0:	6291      	str	r1, [r2, #40]	; 0x28
 80036f2:	2301      	movs	r3, #1
 80036f4:	2000      	movs	r0, #0
 80036f6:	6153      	str	r3, [r2, #20]
 80036f8:	f884 3046 	strb.w	r3, [r4, #70]	; 0x46
 80036fc:	f884 303e 	strb.w	r3, [r4, #62]	; 0x3e
 8003700:	f884 303f 	strb.w	r3, [r4, #63]	; 0x3f
 8003704:	f884 3040 	strb.w	r3, [r4, #64]	; 0x40
 8003708:	f884 3041 	strb.w	r3, [r4, #65]	; 0x41
 800370c:	f884 3042 	strb.w	r3, [r4, #66]	; 0x42
 8003710:	f884 3043 	strb.w	r3, [r4, #67]	; 0x43
 8003714:	f884 3044 	strb.w	r3, [r4, #68]	; 0x44
 8003718:	f884 3045 	strb.w	r3, [r4, #69]	; 0x45
 800371c:	f884 303d 	strb.w	r3, [r4, #61]	; 0x3d
 8003720:	bd70      	pop	{r4, r5, r6, pc}
 8003722:	f880 203c 	strb.w	r2, [r0, #60]	; 0x3c
 8003726:	f7fe fb35 	bl	8001d94 <HAL_TIM_Base_MspInit>
 800372a:	e7c6      	b.n	80036ba <HAL_TIM_Base_Init+0x12>
 800372c:	68a6      	ldr	r6, [r4, #8]
 800372e:	f023 0370 	bic.w	r3, r3, #112	; 0x70
 8003732:	4333      	orrs	r3, r6
 8003734:	6926      	ldr	r6, [r4, #16]
 8003736:	f423 7340 	bic.w	r3, r3, #768	; 0x300
 800373a:	4333      	orrs	r3, r6
 800373c:	e7d3      	b.n	80036e6 <HAL_TIM_Base_Init+0x3e>
 800373e:	2001      	movs	r0, #1
 8003740:	4770      	bx	lr
 8003742:	68a6      	ldr	r6, [r4, #8]
 8003744:	f023 0370 	bic.w	r3, r3, #112	; 0x70
 8003748:	4333      	orrs	r3, r6
 800374a:	6926      	ldr	r6, [r4, #16]
 800374c:	f423 7340 	bic.w	r3, r3, #768	; 0x300
 8003750:	4333      	orrs	r3, r6
 8003752:	f023 0380 	bic.w	r3, r3, #128	; 0x80
 8003756:	432b      	orrs	r3, r5
 8003758:	6013      	str	r3, [r2, #0]
 800375a:	62d0      	str	r0, [r2, #44]	; 0x2c
 800375c:	6291      	str	r1, [r2, #40]	; 0x28
 800375e:	6963      	ldr	r3, [r4, #20]
 8003760:	6313      	str	r3, [r2, #48]	; 0x30
 8003762:	e7c6      	b.n	80036f2 <HAL_TIM_Base_Init+0x4a>
 8003764:	40012c00 	.word	0x40012c00

08003768 <HAL_TIM_Base_Start_IT>:
 8003768:	f890 303d 	ldrb.w	r3, [r0, #61]	; 0x3d
 800376c:	2b01      	cmp	r3, #1
 800376e:	d001      	beq.n	8003774 <HAL_TIM_Base_Start_IT+0xc>
 8003770:	2001      	movs	r0, #1
 8003772:	4770      	bx	lr
 8003774:	2202      	movs	r2, #2
 8003776:	6803      	ldr	r3, [r0, #0]
 8003778:	f880 203d 	strb.w	r2, [r0, #61]	; 0x3d
 800377c:	68da      	ldr	r2, [r3, #12]
 800377e:	490e      	ldr	r1, [pc, #56]	; (80037b8 <HAL_TIM_Base_Start_IT+0x50>)
 8003780:	f042 0201 	orr.w	r2, r2, #1
 8003784:	428b      	cmp	r3, r1
 8003786:	60da      	str	r2, [r3, #12]
 8003788:	d00f      	beq.n	80037aa <HAL_TIM_Base_Start_IT+0x42>
 800378a:	f1b3 4f80 	cmp.w	r3, #1073741824	; 0x40000000
 800378e:	d00c      	beq.n	80037aa <HAL_TIM_Base_Start_IT+0x42>
 8003790:	4a0a      	ldr	r2, [pc, #40]	; (80037bc <HAL_TIM_Base_Start_IT+0x54>)
 8003792:	4293      	cmp	r3, r2
 8003794:	d009      	beq.n	80037aa <HAL_TIM_Base_Start_IT+0x42>
 8003796:	f502 6280 	add.w	r2, r2, #1024	; 0x400
 800379a:	4293      	cmp	r3, r2
 800379c:	d005      	beq.n	80037aa <HAL_TIM_Base_Start_IT+0x42>
 800379e:	681a      	ldr	r2, [r3, #0]
 80037a0:	2000      	movs	r0, #0
 80037a2:	f042 0201 	orr.w	r2, r2, #1
 80037a6:	601a      	str	r2, [r3, #0]
 80037a8:	4770      	bx	lr
 80037aa:	689a      	ldr	r2, [r3, #8]
 80037ac:	f002 0207 	and.w	r2, r2, #7
 80037b0:	2a06      	cmp	r2, #6
 80037b2:	d1f4      	bne.n	800379e <HAL_TIM_Base_Start_IT+0x36>
 80037b4:	2000      	movs	r0, #0
 80037b6:	4770      	bx	lr
 80037b8:	40012c00 	.word	0x40012c00
 80037bc:	40000400 	.word	0x40000400

080037c0 <HAL_TIM_PWM_MspInit>:
 80037c0:	4770      	bx	lr
 80037c2:	bf00      	nop

080037c4 <HAL_TIM_PWM_Init>:
 80037c4:	2800      	cmp	r0, #0
 80037c6:	d048      	beq.n	800385a <HAL_TIM_PWM_Init+0x96>
 80037c8:	f890 303d 	ldrb.w	r3, [r0, #61]	; 0x3d
 80037cc:	b570      	push	{r4, r5, r6, lr}
 80037ce:	f003 02ff 	and.w	r2, r3, #255	; 0xff
 80037d2:	4604      	mov	r4, r0
 80037d4:	b39b      	cbz	r3, 800383e <HAL_TIM_PWM_Init+0x7a>
 80037d6:	2302      	movs	r3, #2
 80037d8:	6822      	ldr	r2, [r4, #0]
 80037da:	4e29      	ldr	r6, [pc, #164]	; (8003880 <HAL_TIM_PWM_Init+0xbc>)
 80037dc:	f884 303d 	strb.w	r3, [r4, #61]	; 0x3d
 80037e0:	42b2      	cmp	r2, r6
 80037e2:	6813      	ldr	r3, [r2, #0]
 80037e4:	69a5      	ldr	r5, [r4, #24]
 80037e6:	68e0      	ldr	r0, [r4, #12]
 80037e8:	6861      	ldr	r1, [r4, #4]
 80037ea:	d038      	beq.n	800385e <HAL_TIM_PWM_Init+0x9a>
 80037ec:	f1b2 4f80 	cmp.w	r2, #1073741824	; 0x40000000
 80037f0:	d02a      	beq.n	8003848 <HAL_TIM_PWM_Init+0x84>
 80037f2:	f5a6 3694 	sub.w	r6, r6, #75776	; 0x12800
 80037f6:	42b2      	cmp	r2, r6
 80037f8:	d026      	beq.n	8003848 <HAL_TIM_PWM_Init+0x84>
 80037fa:	f506 6680 	add.w	r6, r6, #1024	; 0x400
 80037fe:	42b2      	cmp	r2, r6
 8003800:	d022      	beq.n	8003848 <HAL_TIM_PWM_Init+0x84>
 8003802:	f023 0380 	bic.w	r3, r3, #128	; 0x80
 8003806:	432b      	orrs	r3, r5
 8003808:	6013      	str	r3, [r2, #0]
 800380a:	62d0      	str	r0, [r2, #44]	; 0x2c
 800380c:	6291      	str	r1, [r2, #40]	; 0x28
 800380e:	2301      	movs	r3, #1
 8003810:	2000      	movs	r0, #0
 8003812:	6153      	str	r3, [r2, #20]
 8003814:	f884 3046 	strb.w	r3, [r4, #70]	; 0x46
 8003818:	f884 303e 	strb.w	r3, [r4, #62]	; 0x3e
 800381c:	f884 303f 	strb.w	r3, [r4, #63]	; 0x3f
 8003820:	f884 3040 	strb.w	r3, [r4, #64]	; 0x40
 8003824:	f884 3041 	strb.w	r3, [r4, #65]	; 0x41
 8003828:	f884 3042 	strb.w	r3, [r4, #66]	; 0x42
 800382c:	f884 3043 	strb.w	r3, [r4, #67]	; 0x43
 8003830:	f884 3044 	strb.w	r3, [r4, #68]	; 0x44
 8003834:	f884 3045 	strb.w	r3, [r4, #69]	; 0x45
 8003838:	f884 303d 	strb.w	r3, [r4, #61]	; 0x3d
 800383c:	bd70      	pop	{r4, r5, r6, pc}
 800383e:	f880 203c 	strb.w	r2, [r0, #60]	; 0x3c
 8003842:	f7ff ffbd 	bl	80037c0 <HAL_TIM_PWM_MspInit>
 8003846:	e7c6      	b.n	80037d6 <HAL_TIM_PWM_Init+0x12>
 8003848:	68a6      	ldr	r6, [r4, #8]
 800384a:	f023 0370 	bic.w	r3, r3, #112	; 0x70
 800384e:	4333      	orrs	r3, r6
 8003850:	6926      	ldr	r6, [r4, #16]
 8003852:	f423 7340 	bic.w	r3, r3, #768	; 0x300
 8003856:	4333      	orrs	r3, r6
 8003858:	e7d3      	b.n	8003802 <HAL_TIM_PWM_Init+0x3e>
 800385a:	2001      	movs	r0, #1
 800385c:	4770      	bx	lr
 800385e:	68a6      	ldr	r6, [r4, #8]
 8003860:	f023 0370 	bic.w	r3, r3, #112	; 0x70
 8003864:	4333      	orrs	r3, r6
 8003866:	6926      	ldr	r6, [r4, #16]
 8003868:	f423 7340 	bic.w	r3, r3, #768	; 0x300
 800386c:	4333      	orrs	r3, r6
 800386e:	f023 0380 	bic.w	r3, r3, #128	; 0x80
 8003872:	432b      	orrs	r3, r5
 8003874:	6013      	str	r3, [r2, #0]
 8003876:	62d0      	str	r0, [r2, #44]	; 0x2c
 8003878:	6291      	str	r1, [r2, #40]	; 0x28
 800387a:	6963      	ldr	r3, [r4, #20]
 800387c:	6313      	str	r3, [r2, #48]	; 0x30
 800387e:	e7c6      	b.n	800380e <HAL_TIM_PWM_Init+0x4a>
 8003880:	40012c00 	.word	0x40012c00

08003884 <HAL_TIM_PWM_ConfigChannel>:
 8003884:	f890 303c 	ldrb.w	r3, [r0, #60]	; 0x3c
 8003888:	2b01      	cmp	r3, #1
 800388a:	f000 80cf 	beq.w	8003a2c <HAL_TIM_PWM_ConfigChannel+0x1a8>
 800388e:	2301      	movs	r3, #1
 8003890:	b4f0      	push	{r4, r5, r6, r7}
 8003892:	f880 303c 	strb.w	r3, [r0, #60]	; 0x3c
 8003896:	2a0c      	cmp	r2, #12
 8003898:	d836      	bhi.n	8003908 <HAL_TIM_PWM_ConfigChannel+0x84>
 800389a:	e8df f002 	tbb	[pc, r2]
 800389e:	353b      	.short	0x353b
 80038a0:	356a3535 	.word	0x356a3535
 80038a4:	35993535 	.word	0x35993535
 80038a8:	3535      	.short	0x3535
 80038aa:	07          	.byte	0x07
 80038ab:	00          	.byte	0x00
 80038ac:	6803      	ldr	r3, [r0, #0]
 80038ae:	688f      	ldr	r7, [r1, #8]
 80038b0:	6a1d      	ldr	r5, [r3, #32]
 80038b2:	680e      	ldr	r6, [r1, #0]
 80038b4:	f425 5580 	bic.w	r5, r5, #4096	; 0x1000
 80038b8:	621d      	str	r5, [r3, #32]
 80038ba:	6a1a      	ldr	r2, [r3, #32]
 80038bc:	4d72      	ldr	r5, [pc, #456]	; (8003a88 <HAL_TIM_PWM_ConfigChannel+0x204>)
 80038be:	f8d3 c004 	ldr.w	ip, [r3, #4]
 80038c2:	69dc      	ldr	r4, [r3, #28]
 80038c4:	f422 5200 	bic.w	r2, r2, #8192	; 0x2000
 80038c8:	f424 44e6 	bic.w	r4, r4, #29440	; 0x7300
 80038cc:	42ab      	cmp	r3, r5
 80038ce:	ea42 3207 	orr.w	r2, r2, r7, lsl #12
 80038d2:	ea44 2406 	orr.w	r4, r4, r6, lsl #8
 80038d6:	d104      	bne.n	80038e2 <HAL_TIM_PWM_ConfigChannel+0x5e>
 80038d8:	694d      	ldr	r5, [r1, #20]
 80038da:	f42c 4c80 	bic.w	ip, ip, #16384	; 0x4000
 80038de:	ea4c 1c85 	orr.w	ip, ip, r5, lsl #6
 80038e2:	684d      	ldr	r5, [r1, #4]
 80038e4:	f8c3 c004 	str.w	ip, [r3, #4]
 80038e8:	61dc      	str	r4, [r3, #28]
 80038ea:	641d      	str	r5, [r3, #64]	; 0x40
 80038ec:	621a      	str	r2, [r3, #32]
 80038ee:	69dc      	ldr	r4, [r3, #28]
 80038f0:	690d      	ldr	r5, [r1, #16]
 80038f2:	f444 6400 	orr.w	r4, r4, #2048	; 0x800
 80038f6:	61dc      	str	r4, [r3, #28]
 80038f8:	69d9      	ldr	r1, [r3, #28]
 80038fa:	f421 6180 	bic.w	r1, r1, #1024	; 0x400
 80038fe:	61d9      	str	r1, [r3, #28]
 8003900:	69da      	ldr	r2, [r3, #28]
 8003902:	ea42 2205 	orr.w	r2, r2, r5, lsl #8
 8003906:	61da      	str	r2, [r3, #28]
 8003908:	2300      	movs	r3, #0
 800390a:	bcf0      	pop	{r4, r5, r6, r7}
 800390c:	f880 303c 	strb.w	r3, [r0, #60]	; 0x3c
 8003910:	4618      	mov	r0, r3
 8003912:	4770      	bx	lr
 8003914:	6803      	ldr	r3, [r0, #0]
 8003916:	688f      	ldr	r7, [r1, #8]
 8003918:	6a1d      	ldr	r5, [r3, #32]
 800391a:	680e      	ldr	r6, [r1, #0]
 800391c:	f025 0501 	bic.w	r5, r5, #1
 8003920:	621d      	str	r5, [r3, #32]
 8003922:	6a1a      	ldr	r2, [r3, #32]
 8003924:	4d58      	ldr	r5, [pc, #352]	; (8003a88 <HAL_TIM_PWM_ConfigChannel+0x204>)
 8003926:	f8d3 c004 	ldr.w	ip, [r3, #4]
 800392a:	699c      	ldr	r4, [r3, #24]
 800392c:	f022 0202 	bic.w	r2, r2, #2
 8003930:	f024 0473 	bic.w	r4, r4, #115	; 0x73
 8003934:	42ab      	cmp	r3, r5
 8003936:	ea42 0207 	orr.w	r2, r2, r7
 800393a:	ea44 0406 	orr.w	r4, r4, r6
 800393e:	f000 8086 	beq.w	8003a4e <HAL_TIM_PWM_ConfigChannel+0x1ca>
 8003942:	684d      	ldr	r5, [r1, #4]
 8003944:	f8c3 c004 	str.w	ip, [r3, #4]
 8003948:	619c      	str	r4, [r3, #24]
 800394a:	635d      	str	r5, [r3, #52]	; 0x34
 800394c:	621a      	str	r2, [r3, #32]
 800394e:	699c      	ldr	r4, [r3, #24]
 8003950:	690d      	ldr	r5, [r1, #16]
 8003952:	f044 0408 	orr.w	r4, r4, #8
 8003956:	619c      	str	r4, [r3, #24]
 8003958:	6999      	ldr	r1, [r3, #24]
 800395a:	f021 0104 	bic.w	r1, r1, #4
 800395e:	6199      	str	r1, [r3, #24]
 8003960:	699a      	ldr	r2, [r3, #24]
 8003962:	432a      	orrs	r2, r5
 8003964:	619a      	str	r2, [r3, #24]
 8003966:	2300      	movs	r3, #0
 8003968:	bcf0      	pop	{r4, r5, r6, r7}
 800396a:	f880 303c 	strb.w	r3, [r0, #60]	; 0x3c
 800396e:	4618      	mov	r0, r3
 8003970:	4770      	bx	lr
 8003972:	6803      	ldr	r3, [r0, #0]
 8003974:	688f      	ldr	r7, [r1, #8]
 8003976:	6a1d      	ldr	r5, [r3, #32]
 8003978:	680e      	ldr	r6, [r1, #0]
 800397a:	f025 0510 	bic.w	r5, r5, #16
 800397e:	621d      	str	r5, [r3, #32]
 8003980:	6a1a      	ldr	r2, [r3, #32]
 8003982:	4d41      	ldr	r5, [pc, #260]	; (8003a88 <HAL_TIM_PWM_ConfigChannel+0x204>)
 8003984:	f8d3 c004 	ldr.w	ip, [r3, #4]
 8003988:	699c      	ldr	r4, [r3, #24]
 800398a:	f022 0220 	bic.w	r2, r2, #32
 800398e:	f424 44e6 	bic.w	r4, r4, #29440	; 0x7300
 8003992:	42ab      	cmp	r3, r5
 8003994:	ea42 1207 	orr.w	r2, r2, r7, lsl #4
 8003998:	ea44 2406 	orr.w	r4, r4, r6, lsl #8
 800399c:	d065      	beq.n	8003a6a <HAL_TIM_PWM_ConfigChannel+0x1e6>
 800399e:	684d      	ldr	r5, [r1, #4]
 80039a0:	f8c3 c004 	str.w	ip, [r3, #4]
 80039a4:	619c      	str	r4, [r3, #24]
 80039a6:	639d      	str	r5, [r3, #56]	; 0x38
 80039a8:	621a      	str	r2, [r3, #32]
 80039aa:	699c      	ldr	r4, [r3, #24]
 80039ac:	690d      	ldr	r5, [r1, #16]
 80039ae:	f444 6400 	orr.w	r4, r4, #2048	; 0x800
 80039b2:	619c      	str	r4, [r3, #24]
 80039b4:	6999      	ldr	r1, [r3, #24]
 80039b6:	f421 6180 	bic.w	r1, r1, #1024	; 0x400
 80039ba:	6199      	str	r1, [r3, #24]
 80039bc:	699a      	ldr	r2, [r3, #24]
 80039be:	ea42 2205 	orr.w	r2, r2, r5, lsl #8
 80039c2:	619a      	str	r2, [r3, #24]
 80039c4:	2300      	movs	r3, #0
 80039c6:	bcf0      	pop	{r4, r5, r6, r7}
 80039c8:	f880 303c 	strb.w	r3, [r0, #60]	; 0x3c
 80039cc:	4618      	mov	r0, r3
 80039ce:	4770      	bx	lr
 80039d0:	6803      	ldr	r3, [r0, #0]
 80039d2:	688f      	ldr	r7, [r1, #8]
 80039d4:	6a1d      	ldr	r5, [r3, #32]
 80039d6:	680e      	ldr	r6, [r1, #0]
 80039d8:	f425 7580 	bic.w	r5, r5, #256	; 0x100
 80039dc:	621d      	str	r5, [r3, #32]
 80039de:	6a1a      	ldr	r2, [r3, #32]
 80039e0:	4d29      	ldr	r5, [pc, #164]	; (8003a88 <HAL_TIM_PWM_ConfigChannel+0x204>)
 80039e2:	f8d3 c004 	ldr.w	ip, [r3, #4]
 80039e6:	69dc      	ldr	r4, [r3, #28]
 80039e8:	f422 7200 	bic.w	r2, r2, #512	; 0x200
 80039ec:	f024 0473 	bic.w	r4, r4, #115	; 0x73
 80039f0:	42ab      	cmp	r3, r5
 80039f2:	ea42 2207 	orr.w	r2, r2, r7, lsl #8
 80039f6:	ea44 0406 	orr.w	r4, r4, r6
 80039fa:	d019      	beq.n	8003a30 <HAL_TIM_PWM_ConfigChannel+0x1ac>
 80039fc:	684d      	ldr	r5, [r1, #4]
 80039fe:	f8c3 c004 	str.w	ip, [r3, #4]
 8003a02:	61dc      	str	r4, [r3, #28]
 8003a04:	63dd      	str	r5, [r3, #60]	; 0x3c
 8003a06:	621a      	str	r2, [r3, #32]
 8003a08:	69dc      	ldr	r4, [r3, #28]
 8003a0a:	690d      	ldr	r5, [r1, #16]
 8003a0c:	f044 0408 	orr.w	r4, r4, #8
 8003a10:	61dc      	str	r4, [r3, #28]
 8003a12:	69d9      	ldr	r1, [r3, #28]
 8003a14:	f021 0104 	bic.w	r1, r1, #4
 8003a18:	61d9      	str	r1, [r3, #28]
 8003a1a:	69da      	ldr	r2, [r3, #28]
 8003a1c:	432a      	orrs	r2, r5
 8003a1e:	61da      	str	r2, [r3, #28]
 8003a20:	2300      	movs	r3, #0
 8003a22:	bcf0      	pop	{r4, r5, r6, r7}
 8003a24:	f880 303c 	strb.w	r3, [r0, #60]	; 0x3c
 8003a28:	4618      	mov	r0, r3
 8003a2a:	4770      	bx	lr
 8003a2c:	2002      	movs	r0, #2
 8003a2e:	4770      	bx	lr
 8003a30:	68ce      	ldr	r6, [r1, #12]
 8003a32:	f422 6200 	bic.w	r2, r2, #2048	; 0x800
 8003a36:	e9d1 7505 	ldrd	r7, r5, [r1, #20]
 8003a3a:	f42c 5c40 	bic.w	ip, ip, #12288	; 0x3000
 8003a3e:	ea42 2206 	orr.w	r2, r2, r6, lsl #8
 8003a42:	433d      	orrs	r5, r7
 8003a44:	f422 6280 	bic.w	r2, r2, #1024	; 0x400
 8003a48:	ea4c 1c05 	orr.w	ip, ip, r5, lsl #4
 8003a4c:	e7d6      	b.n	80039fc <HAL_TIM_PWM_ConfigChannel+0x178>
 8003a4e:	68cf      	ldr	r7, [r1, #12]
 8003a50:	f022 0208 	bic.w	r2, r2, #8
 8003a54:	e9d1 5605 	ldrd	r5, r6, [r1, #20]
 8003a58:	f42c 7c40 	bic.w	ip, ip, #768	; 0x300
 8003a5c:	433a      	orrs	r2, r7
 8003a5e:	4335      	orrs	r5, r6
 8003a60:	f022 0204 	bic.w	r2, r2, #4
 8003a64:	ea45 0c0c 	orr.w	ip, r5, ip
 8003a68:	e76b      	b.n	8003942 <HAL_TIM_PWM_ConfigChannel+0xbe>
 8003a6a:	68ce      	ldr	r6, [r1, #12]
 8003a6c:	f022 0280 	bic.w	r2, r2, #128	; 0x80
 8003a70:	e9d1 7505 	ldrd	r7, r5, [r1, #20]
 8003a74:	f42c 6c40 	bic.w	ip, ip, #3072	; 0xc00
 8003a78:	ea42 1206 	orr.w	r2, r2, r6, lsl #4
 8003a7c:	433d      	orrs	r5, r7
 8003a7e:	f022 0240 	bic.w	r2, r2, #64	; 0x40
 8003a82:	ea4c 0c85 	orr.w	ip, ip, r5, lsl #2
 8003a86:	e78a      	b.n	800399e <HAL_TIM_PWM_ConfigChannel+0x11a>
 8003a88:	40012c00 	.word	0x40012c00

08003a8c <HAL_TIM_ConfigClockSource>:
 8003a8c:	f890 303c 	ldrb.w	r3, [r0, #60]	; 0x3c
 8003a90:	2b01      	cmp	r3, #1
 8003a92:	d05a      	beq.n	8003b4a <HAL_TIM_ConfigClockSource+0xbe>
 8003a94:	2202      	movs	r2, #2
 8003a96:	b4f0      	push	{r4, r5, r6, r7}
 8003a98:	2501      	movs	r5, #1
 8003a9a:	6803      	ldr	r3, [r0, #0]
 8003a9c:	f880 203d 	strb.w	r2, [r0, #61]	; 0x3d
 8003aa0:	689a      	ldr	r2, [r3, #8]
 8003aa2:	680c      	ldr	r4, [r1, #0]
 8003aa4:	f422 427f 	bic.w	r2, r2, #65280	; 0xff00
 8003aa8:	f022 0277 	bic.w	r2, r2, #119	; 0x77
 8003aac:	2c40      	cmp	r4, #64	; 0x40
 8003aae:	f880 503c 	strb.w	r5, [r0, #60]	; 0x3c
 8003ab2:	609a      	str	r2, [r3, #8]
 8003ab4:	d074      	beq.n	8003ba0 <HAL_TIM_ConfigClockSource+0x114>
 8003ab6:	d94a      	bls.n	8003b4e <HAL_TIM_ConfigClockSource+0xc2>
 8003ab8:	2c60      	cmp	r4, #96	; 0x60
 8003aba:	d02d      	beq.n	8003b18 <HAL_TIM_ConfigClockSource+0x8c>
 8003abc:	d956      	bls.n	8003b6c <HAL_TIM_ConfigClockSource+0xe0>
 8003abe:	2c70      	cmp	r4, #112	; 0x70
 8003ac0:	d01a      	beq.n	8003af8 <HAL_TIM_ConfigClockSource+0x6c>
 8003ac2:	f5b4 5f00 	cmp.w	r4, #8192	; 0x2000
 8003ac6:	d10e      	bne.n	8003ae6 <HAL_TIM_ConfigClockSource+0x5a>
 8003ac8:	e9d1 5201 	ldrd	r5, r2, [r1, #4]
 8003acc:	68cc      	ldr	r4, [r1, #12]
 8003ace:	6899      	ldr	r1, [r3, #8]
 8003ad0:	432a      	orrs	r2, r5
 8003ad2:	ea42 2204 	orr.w	r2, r2, r4, lsl #8
 8003ad6:	f421 417f 	bic.w	r1, r1, #65280	; 0xff00
 8003ada:	430a      	orrs	r2, r1
 8003adc:	609a      	str	r2, [r3, #8]
 8003ade:	689a      	ldr	r2, [r3, #8]
 8003ae0:	f442 4280 	orr.w	r2, r2, #16384	; 0x4000
 8003ae4:	609a      	str	r2, [r3, #8]
 8003ae6:	2300      	movs	r3, #0
 8003ae8:	bcf0      	pop	{r4, r5, r6, r7}
 8003aea:	2201      	movs	r2, #1
 8003aec:	f880 303c 	strb.w	r3, [r0, #60]	; 0x3c
 8003af0:	f880 203d 	strb.w	r2, [r0, #61]	; 0x3d
 8003af4:	4618      	mov	r0, r3
 8003af6:	4770      	bx	lr
 8003af8:	e9d1 5201 	ldrd	r5, r2, [r1, #4]
 8003afc:	68cc      	ldr	r4, [r1, #12]
 8003afe:	6899      	ldr	r1, [r3, #8]
 8003b00:	432a      	orrs	r2, r5
 8003b02:	ea42 2204 	orr.w	r2, r2, r4, lsl #8
 8003b06:	f421 417f 	bic.w	r1, r1, #65280	; 0xff00
 8003b0a:	430a      	orrs	r2, r1
 8003b0c:	609a      	str	r2, [r3, #8]
 8003b0e:	689a      	ldr	r2, [r3, #8]
 8003b10:	f042 0277 	orr.w	r2, r2, #119	; 0x77
 8003b14:	609a      	str	r2, [r3, #8]
 8003b16:	e7e6      	b.n	8003ae6 <HAL_TIM_ConfigClockSource+0x5a>
 8003b18:	6a1c      	ldr	r4, [r3, #32]
 8003b1a:	684d      	ldr	r5, [r1, #4]
 8003b1c:	f024 0410 	bic.w	r4, r4, #16
 8003b20:	68ce      	ldr	r6, [r1, #12]
 8003b22:	621c      	str	r4, [r3, #32]
 8003b24:	6999      	ldr	r1, [r3, #24]
 8003b26:	6a1a      	ldr	r2, [r3, #32]
 8003b28:	f421 4170 	bic.w	r1, r1, #61440	; 0xf000
 8003b2c:	f022 02a0 	bic.w	r2, r2, #160	; 0xa0
 8003b30:	ea42 1205 	orr.w	r2, r2, r5, lsl #4
 8003b34:	ea41 3106 	orr.w	r1, r1, r6, lsl #12
 8003b38:	6199      	str	r1, [r3, #24]
 8003b3a:	621a      	str	r2, [r3, #32]
 8003b3c:	689a      	ldr	r2, [r3, #8]
 8003b3e:	f022 0270 	bic.w	r2, r2, #112	; 0x70
 8003b42:	f042 0267 	orr.w	r2, r2, #103	; 0x67
 8003b46:	609a      	str	r2, [r3, #8]
 8003b48:	e7cd      	b.n	8003ae6 <HAL_TIM_ConfigClockSource+0x5a>
 8003b4a:	2002      	movs	r0, #2
 8003b4c:	4770      	bx	lr
 8003b4e:	2c10      	cmp	r4, #16
 8003b50:	d004      	beq.n	8003b5c <HAL_TIM_ConfigClockSource+0xd0>
 8003b52:	d93d      	bls.n	8003bd0 <HAL_TIM_ConfigClockSource+0x144>
 8003b54:	2c20      	cmp	r4, #32
 8003b56:	d001      	beq.n	8003b5c <HAL_TIM_ConfigClockSource+0xd0>
 8003b58:	2c30      	cmp	r4, #48	; 0x30
 8003b5a:	d1c4      	bne.n	8003ae6 <HAL_TIM_ConfigClockSource+0x5a>
 8003b5c:	689a      	ldr	r2, [r3, #8]
 8003b5e:	f044 0407 	orr.w	r4, r4, #7
 8003b62:	f022 0270 	bic.w	r2, r2, #112	; 0x70
 8003b66:	4314      	orrs	r4, r2
 8003b68:	609c      	str	r4, [r3, #8]
 8003b6a:	e7bc      	b.n	8003ae6 <HAL_TIM_ConfigClockSource+0x5a>
 8003b6c:	2c50      	cmp	r4, #80	; 0x50
 8003b6e:	d1ba      	bne.n	8003ae6 <HAL_TIM_ConfigClockSource+0x5a>
 8003b70:	6a1d      	ldr	r5, [r3, #32]
 8003b72:	6a1e      	ldr	r6, [r3, #32]
 8003b74:	684c      	ldr	r4, [r1, #4]
 8003b76:	f026 0601 	bic.w	r6, r6, #1
 8003b7a:	68cf      	ldr	r7, [r1, #12]
 8003b7c:	621e      	str	r6, [r3, #32]
 8003b7e:	699a      	ldr	r2, [r3, #24]
 8003b80:	f025 010a 	bic.w	r1, r5, #10
 8003b84:	f022 02f0 	bic.w	r2, r2, #240	; 0xf0
 8003b88:	ea42 1207 	orr.w	r2, r2, r7, lsl #4
 8003b8c:	4321      	orrs	r1, r4
 8003b8e:	619a      	str	r2, [r3, #24]
 8003b90:	6219      	str	r1, [r3, #32]
 8003b92:	689a      	ldr	r2, [r3, #8]
 8003b94:	f022 0270 	bic.w	r2, r2, #112	; 0x70
 8003b98:	f042 0257 	orr.w	r2, r2, #87	; 0x57
 8003b9c:	609a      	str	r2, [r3, #8]
 8003b9e:	e7a2      	b.n	8003ae6 <HAL_TIM_ConfigClockSource+0x5a>
 8003ba0:	6a1d      	ldr	r5, [r3, #32]
 8003ba2:	6a1e      	ldr	r6, [r3, #32]
 8003ba4:	684c      	ldr	r4, [r1, #4]
 8003ba6:	f026 0601 	bic.w	r6, r6, #1
 8003baa:	68cf      	ldr	r7, [r1, #12]
 8003bac:	621e      	str	r6, [r3, #32]
 8003bae:	699a      	ldr	r2, [r3, #24]
 8003bb0:	f025 010a 	bic.w	r1, r5, #10
 8003bb4:	f022 02f0 	bic.w	r2, r2, #240	; 0xf0
 8003bb8:	ea42 1207 	orr.w	r2, r2, r7, lsl #4
 8003bbc:	4321      	orrs	r1, r4
 8003bbe:	619a      	str	r2, [r3, #24]
 8003bc0:	6219      	str	r1, [r3, #32]
 8003bc2:	689a      	ldr	r2, [r3, #8]
 8003bc4:	f022 0270 	bic.w	r2, r2, #112	; 0x70
 8003bc8:	f042 0247 	orr.w	r2, r2, #71	; 0x47
 8003bcc:	609a      	str	r2, [r3, #8]
 8003bce:	e78a      	b.n	8003ae6 <HAL_TIM_ConfigClockSource+0x5a>
 8003bd0:	2c00      	cmp	r4, #0
 8003bd2:	d0c3      	beq.n	8003b5c <HAL_TIM_ConfigClockSource+0xd0>
 8003bd4:	e787      	b.n	8003ae6 <HAL_TIM_ConfigClockSource+0x5a>
 8003bd6:	bf00      	nop

08003bd8 <HAL_TIM_SlaveConfigSynchro>:
 8003bd8:	f890 303c 	ldrb.w	r3, [r0, #60]	; 0x3c
 8003bdc:	2b01      	cmp	r3, #1
 8003bde:	d047      	beq.n	8003c70 <HAL_TIM_SlaveConfigSynchro+0x98>
 8003be0:	b4f0      	push	{r4, r5, r6, r7}
 8003be2:	4604      	mov	r4, r0
 8003be4:	2302      	movs	r3, #2
 8003be6:	2001      	movs	r0, #1
 8003be8:	6822      	ldr	r2, [r4, #0]
 8003bea:	f884 303d 	strb.w	r3, [r4, #61]	; 0x3d
 8003bee:	6893      	ldr	r3, [r2, #8]
 8003bf0:	684d      	ldr	r5, [r1, #4]
 8003bf2:	f023 0370 	bic.w	r3, r3, #112	; 0x70
 8003bf6:	680e      	ldr	r6, [r1, #0]
 8003bf8:	432b      	orrs	r3, r5
 8003bfa:	f023 0307 	bic.w	r3, r3, #7
 8003bfe:	4333      	orrs	r3, r6
 8003c00:	2d50      	cmp	r5, #80	; 0x50
 8003c02:	f884 003c 	strb.w	r0, [r4, #60]	; 0x3c
 8003c06:	6093      	str	r3, [r2, #8]
 8003c08:	d04e      	beq.n	8003ca8 <HAL_TIM_SlaveConfigSynchro+0xd0>
 8003c0a:	d91f      	bls.n	8003c4c <HAL_TIM_SlaveConfigSynchro+0x74>
 8003c0c:	2d60      	cmp	r5, #96	; 0x60
 8003c0e:	d038      	beq.n	8003c82 <HAL_TIM_SlaveConfigSynchro+0xaa>
 8003c10:	2d70      	cmp	r5, #112	; 0x70
 8003c12:	d10a      	bne.n	8003c2a <HAL_TIM_SlaveConfigSynchro+0x52>
 8003c14:	e9d1 5302 	ldrd	r5, r3, [r1, #8]
 8003c18:	6908      	ldr	r0, [r1, #16]
 8003c1a:	6891      	ldr	r1, [r2, #8]
 8003c1c:	432b      	orrs	r3, r5
 8003c1e:	ea43 2300 	orr.w	r3, r3, r0, lsl #8
 8003c22:	f421 417f 	bic.w	r1, r1, #65280	; 0xff00
 8003c26:	430b      	orrs	r3, r1
 8003c28:	6093      	str	r3, [r2, #8]
 8003c2a:	2501      	movs	r5, #1
 8003c2c:	2100      	movs	r1, #0
 8003c2e:	68d3      	ldr	r3, [r2, #12]
 8003c30:	4608      	mov	r0, r1
 8003c32:	f023 0340 	bic.w	r3, r3, #64	; 0x40
 8003c36:	60d3      	str	r3, [r2, #12]
 8003c38:	68d3      	ldr	r3, [r2, #12]
 8003c3a:	f423 4380 	bic.w	r3, r3, #16384	; 0x4000
 8003c3e:	60d3      	str	r3, [r2, #12]
 8003c40:	f884 503d 	strb.w	r5, [r4, #61]	; 0x3d
 8003c44:	f884 103c 	strb.w	r1, [r4, #60]	; 0x3c
 8003c48:	bcf0      	pop	{r4, r5, r6, r7}
 8003c4a:	4770      	bx	lr
 8003c4c:	2d40      	cmp	r5, #64	; 0x40
 8003c4e:	d1ec      	bne.n	8003c2a <HAL_TIM_SlaveConfigSynchro+0x52>
 8003c50:	2e05      	cmp	r6, #5
 8003c52:	d00f      	beq.n	8003c74 <HAL_TIM_SlaveConfigSynchro+0x9c>
 8003c54:	6a15      	ldr	r5, [r2, #32]
 8003c56:	6a10      	ldr	r0, [r2, #32]
 8003c58:	690e      	ldr	r6, [r1, #16]
 8003c5a:	f020 0001 	bic.w	r0, r0, #1
 8003c5e:	6210      	str	r0, [r2, #32]
 8003c60:	6993      	ldr	r3, [r2, #24]
 8003c62:	f023 03f0 	bic.w	r3, r3, #240	; 0xf0
 8003c66:	ea43 1306 	orr.w	r3, r3, r6, lsl #4
 8003c6a:	6193      	str	r3, [r2, #24]
 8003c6c:	6215      	str	r5, [r2, #32]
 8003c6e:	e7dc      	b.n	8003c2a <HAL_TIM_SlaveConfigSynchro+0x52>
 8003c70:	2002      	movs	r0, #2
 8003c72:	4770      	bx	lr
 8003c74:	2300      	movs	r3, #0
 8003c76:	f884 003d 	strb.w	r0, [r4, #61]	; 0x3d
 8003c7a:	f884 303c 	strb.w	r3, [r4, #60]	; 0x3c
 8003c7e:	bcf0      	pop	{r4, r5, r6, r7}
 8003c80:	4770      	bx	lr
 8003c82:	6a10      	ldr	r0, [r2, #32]
 8003c84:	688d      	ldr	r5, [r1, #8]
 8003c86:	f020 0010 	bic.w	r0, r0, #16
 8003c8a:	690e      	ldr	r6, [r1, #16]
 8003c8c:	6210      	str	r0, [r2, #32]
 8003c8e:	6991      	ldr	r1, [r2, #24]
 8003c90:	6a13      	ldr	r3, [r2, #32]
 8003c92:	f421 4170 	bic.w	r1, r1, #61440	; 0xf000
 8003c96:	f023 03a0 	bic.w	r3, r3, #160	; 0xa0
 8003c9a:	ea41 3106 	orr.w	r1, r1, r6, lsl #12
 8003c9e:	ea43 1305 	orr.w	r3, r3, r5, lsl #4
 8003ca2:	6191      	str	r1, [r2, #24]
 8003ca4:	6213      	str	r3, [r2, #32]
 8003ca6:	e7c0      	b.n	8003c2a <HAL_TIM_SlaveConfigSynchro+0x52>
 8003ca8:	6a15      	ldr	r5, [r2, #32]
 8003caa:	6a16      	ldr	r6, [r2, #32]
 8003cac:	6888      	ldr	r0, [r1, #8]
 8003cae:	f026 0601 	bic.w	r6, r6, #1
 8003cb2:	690f      	ldr	r7, [r1, #16]
 8003cb4:	6216      	str	r6, [r2, #32]
 8003cb6:	6993      	ldr	r3, [r2, #24]
 8003cb8:	f025 010a 	bic.w	r1, r5, #10
 8003cbc:	f023 03f0 	bic.w	r3, r3, #240	; 0xf0
 8003cc0:	4301      	orrs	r1, r0
 8003cc2:	ea43 1307 	orr.w	r3, r3, r7, lsl #4
 8003cc6:	6193      	str	r3, [r2, #24]
 8003cc8:	6211      	str	r1, [r2, #32]
 8003cca:	e7ae      	b.n	8003c2a <HAL_TIM_SlaveConfigSynchro+0x52>

08003ccc <HAL_TIM_OC_DelayElapsedCallback>:
 8003ccc:	4770      	bx	lr
 8003cce:	bf00      	nop

08003cd0 <HAL_TIM_IC_CaptureCallback>:
 8003cd0:	4770      	bx	lr
 8003cd2:	bf00      	nop

08003cd4 <HAL_TIM_PWM_PulseFinishedCallback>:
 8003cd4:	4770      	bx	lr
 8003cd6:	bf00      	nop

08003cd8 <HAL_TIM_TriggerCallback>:
 8003cd8:	4770      	bx	lr
 8003cda:	bf00      	nop

08003cdc <HAL_TIM_IRQHandler>:
 8003cdc:	6803      	ldr	r3, [r0, #0]
 8003cde:	b510      	push	{r4, lr}
 8003ce0:	691a      	ldr	r2, [r3, #16]
 8003ce2:	4604      	mov	r4, r0
 8003ce4:	0791      	lsls	r1, r2, #30
 8003ce6:	d502      	bpl.n	8003cee <HAL_TIM_IRQHandler+0x12>
 8003ce8:	68da      	ldr	r2, [r3, #12]
 8003cea:	0792      	lsls	r2, r2, #30
 8003cec:	d45f      	bmi.n	8003dae <HAL_TIM_IRQHandler+0xd2>
 8003cee:	691a      	ldr	r2, [r3, #16]
 8003cf0:	0750      	lsls	r0, r2, #29
 8003cf2:	d502      	bpl.n	8003cfa <HAL_TIM_IRQHandler+0x1e>
 8003cf4:	68da      	ldr	r2, [r3, #12]
 8003cf6:	0751      	lsls	r1, r2, #29
 8003cf8:	d446      	bmi.n	8003d88 <HAL_TIM_IRQHandler+0xac>
 8003cfa:	691a      	ldr	r2, [r3, #16]
 8003cfc:	0712      	lsls	r2, r2, #28
 8003cfe:	d502      	bpl.n	8003d06 <HAL_TIM_IRQHandler+0x2a>
 8003d00:	68da      	ldr	r2, [r3, #12]
 8003d02:	0710      	lsls	r0, r2, #28
 8003d04:	d42e      	bmi.n	8003d64 <HAL_TIM_IRQHandler+0x88>
 8003d06:	691a      	ldr	r2, [r3, #16]
 8003d08:	06d2      	lsls	r2, r2, #27
 8003d0a:	d502      	bpl.n	8003d12 <HAL_TIM_IRQHandler+0x36>
 8003d0c:	68da      	ldr	r2, [r3, #12]
 8003d0e:	06d0      	lsls	r0, r2, #27
 8003d10:	d418      	bmi.n	8003d44 <HAL_TIM_IRQHandler+0x68>
 8003d12:	691a      	ldr	r2, [r3, #16]
 8003d14:	07d1      	lsls	r1, r2, #31
 8003d16:	d502      	bpl.n	8003d1e <HAL_TIM_IRQHandler+0x42>
 8003d18:	68da      	ldr	r2, [r3, #12]
 8003d1a:	07d2      	lsls	r2, r2, #31
 8003d1c:	d45d      	bmi.n	8003dda <HAL_TIM_IRQHandler+0xfe>
 8003d1e:	691a      	ldr	r2, [r3, #16]
 8003d20:	0610      	lsls	r0, r2, #24
 8003d22:	d502      	bpl.n	8003d2a <HAL_TIM_IRQHandler+0x4e>
 8003d24:	68da      	ldr	r2, [r3, #12]
 8003d26:	0611      	lsls	r1, r2, #24
 8003d28:	d45f      	bmi.n	8003dea <HAL_TIM_IRQHandler+0x10e>
 8003d2a:	691a      	ldr	r2, [r3, #16]
 8003d2c:	0652      	lsls	r2, r2, #25
 8003d2e:	d502      	bpl.n	8003d36 <HAL_TIM_IRQHandler+0x5a>
 8003d30:	68da      	ldr	r2, [r3, #12]
 8003d32:	0650      	lsls	r0, r2, #25
 8003d34:	d461      	bmi.n	8003dfa <HAL_TIM_IRQHandler+0x11e>
 8003d36:	691a      	ldr	r2, [r3, #16]
 8003d38:	0691      	lsls	r1, r2, #26
 8003d3a:	d502      	bpl.n	8003d42 <HAL_TIM_IRQHandler+0x66>
 8003d3c:	68da      	ldr	r2, [r3, #12]
 8003d3e:	0692      	lsls	r2, r2, #26
 8003d40:	d443      	bmi.n	8003dca <HAL_TIM_IRQHandler+0xee>
 8003d42:	bd10      	pop	{r4, pc}
 8003d44:	f06f 0110 	mvn.w	r1, #16
 8003d48:	2208      	movs	r2, #8
 8003d4a:	6119      	str	r1, [r3, #16]
 8003d4c:	69db      	ldr	r3, [r3, #28]
 8003d4e:	4620      	mov	r0, r4
 8003d50:	f413 7f40 	tst.w	r3, #768	; 0x300
 8003d54:	7722      	strb	r2, [r4, #28]
 8003d56:	d064      	beq.n	8003e22 <HAL_TIM_IRQHandler+0x146>
 8003d58:	f7ff ffba 	bl	8003cd0 <HAL_TIM_IC_CaptureCallback>
 8003d5c:	2200      	movs	r2, #0
 8003d5e:	6823      	ldr	r3, [r4, #0]
 8003d60:	7722      	strb	r2, [r4, #28]
 8003d62:	e7d6      	b.n	8003d12 <HAL_TIM_IRQHandler+0x36>
 8003d64:	f06f 0108 	mvn.w	r1, #8
 8003d68:	2204      	movs	r2, #4
 8003d6a:	6119      	str	r1, [r3, #16]
 8003d6c:	69db      	ldr	r3, [r3, #28]
 8003d6e:	4620      	mov	r0, r4
 8003d70:	0799      	lsls	r1, r3, #30
 8003d72:	7722      	strb	r2, [r4, #28]
 8003d74:	d152      	bne.n	8003e1c <HAL_TIM_IRQHandler+0x140>
 8003d76:	f7ff ffa9 	bl	8003ccc <HAL_TIM_OC_DelayElapsedCallback>
 8003d7a:	4620      	mov	r0, r4
 8003d7c:	f7ff ffaa 	bl	8003cd4 <HAL_TIM_PWM_PulseFinishedCallback>
 8003d80:	2200      	movs	r2, #0
 8003d82:	6823      	ldr	r3, [r4, #0]
 8003d84:	7722      	strb	r2, [r4, #28]
 8003d86:	e7be      	b.n	8003d06 <HAL_TIM_IRQHandler+0x2a>
 8003d88:	f06f 0104 	mvn.w	r1, #4
 8003d8c:	2202      	movs	r2, #2
 8003d8e:	6119      	str	r1, [r3, #16]
 8003d90:	699b      	ldr	r3, [r3, #24]
 8003d92:	4620      	mov	r0, r4
 8003d94:	f413 7f40 	tst.w	r3, #768	; 0x300
 8003d98:	7722      	strb	r2, [r4, #28]
 8003d9a:	d13c      	bne.n	8003e16 <HAL_TIM_IRQHandler+0x13a>
 8003d9c:	f7ff ff96 	bl	8003ccc <HAL_TIM_OC_DelayElapsedCallback>
 8003da0:	4620      	mov	r0, r4
 8003da2:	f7ff ff97 	bl	8003cd4 <HAL_TIM_PWM_PulseFinishedCallback>
 8003da6:	2200      	movs	r2, #0
 8003da8:	6823      	ldr	r3, [r4, #0]
 8003daa:	7722      	strb	r2, [r4, #28]
 8003dac:	e7a5      	b.n	8003cfa <HAL_TIM_IRQHandler+0x1e>
 8003dae:	f06f 0102 	mvn.w	r1, #2
 8003db2:	2201      	movs	r2, #1
 8003db4:	6119      	str	r1, [r3, #16]
 8003db6:	699b      	ldr	r3, [r3, #24]
 8003db8:	7702      	strb	r2, [r0, #28]
 8003dba:	079b      	lsls	r3, r3, #30
 8003dbc:	d025      	beq.n	8003e0a <HAL_TIM_IRQHandler+0x12e>
 8003dbe:	f7ff ff87 	bl	8003cd0 <HAL_TIM_IC_CaptureCallback>
 8003dc2:	2200      	movs	r2, #0
 8003dc4:	6823      	ldr	r3, [r4, #0]
 8003dc6:	7722      	strb	r2, [r4, #28]
 8003dc8:	e791      	b.n	8003cee <HAL_TIM_IRQHandler+0x12>
 8003dca:	f06f 0220 	mvn.w	r2, #32
 8003dce:	4620      	mov	r0, r4
 8003dd0:	e8bd 4010 	ldmia.w	sp!, {r4, lr}
 8003dd4:	611a      	str	r2, [r3, #16]
 8003dd6:	f000 b985 	b.w	80040e4 <HAL_TIMEx_CommutCallback>
 8003dda:	f06f 0201 	mvn.w	r2, #1
 8003dde:	4620      	mov	r0, r4
 8003de0:	611a      	str	r2, [r3, #16]
 8003de2:	f7fc fc7d 	bl	80006e0 <HAL_TIM_PeriodElapsedCallback>
 8003de6:	6823      	ldr	r3, [r4, #0]
 8003de8:	e799      	b.n	8003d1e <HAL_TIM_IRQHandler+0x42>
 8003dea:	f06f 0280 	mvn.w	r2, #128	; 0x80
 8003dee:	4620      	mov	r0, r4
 8003df0:	611a      	str	r2, [r3, #16]
 8003df2:	f000 f979 	bl	80040e8 <HAL_TIMEx_BreakCallback>
 8003df6:	6823      	ldr	r3, [r4, #0]
 8003df8:	e797      	b.n	8003d2a <HAL_TIM_IRQHandler+0x4e>
 8003dfa:	f06f 0240 	mvn.w	r2, #64	; 0x40
 8003dfe:	4620      	mov	r0, r4
 8003e00:	611a      	str	r2, [r3, #16]
 8003e02:	f7ff ff69 	bl	8003cd8 <HAL_TIM_TriggerCallback>
 8003e06:	6823      	ldr	r3, [r4, #0]
 8003e08:	e795      	b.n	8003d36 <HAL_TIM_IRQHandler+0x5a>
 8003e0a:	f7ff ff5f 	bl	8003ccc <HAL_TIM_OC_DelayElapsedCallback>
 8003e0e:	4620      	mov	r0, r4
 8003e10:	f7ff ff60 	bl	8003cd4 <HAL_TIM_PWM_PulseFinishedCallback>
 8003e14:	e7d5      	b.n	8003dc2 <HAL_TIM_IRQHandler+0xe6>
 8003e16:	f7ff ff5b 	bl	8003cd0 <HAL_TIM_IC_CaptureCallback>
 8003e1a:	e7c4      	b.n	8003da6 <HAL_TIM_IRQHandler+0xca>
 8003e1c:	f7ff ff58 	bl	8003cd0 <HAL_TIM_IC_CaptureCallback>
 8003e20:	e7ae      	b.n	8003d80 <HAL_TIM_IRQHandler+0xa4>
 8003e22:	f7ff ff53 	bl	8003ccc <HAL_TIM_OC_DelayElapsedCallback>
 8003e26:	4620      	mov	r0, r4
 8003e28:	f7ff ff54 	bl	8003cd4 <HAL_TIM_PWM_PulseFinishedCallback>
 8003e2c:	e796      	b.n	8003d5c <HAL_TIM_IRQHandler+0x80>
 8003e2e:	bf00      	nop

08003e30 <TIM_Base_SetConfig>:
 8003e30:	b470      	push	{r4, r5, r6}
 8003e32:	4e1c      	ldr	r6, [pc, #112]	; (8003ea4 <TIM_Base_SetConfig+0x74>)
 8003e34:	6803      	ldr	r3, [r0, #0]
 8003e36:	42b0      	cmp	r0, r6
 8003e38:	694d      	ldr	r5, [r1, #20]
 8003e3a:	688c      	ldr	r4, [r1, #8]
 8003e3c:	680a      	ldr	r2, [r1, #0]
 8003e3e:	d01d      	beq.n	8003e7c <TIM_Base_SetConfig+0x4c>
 8003e40:	f1b0 4f80 	cmp.w	r0, #1073741824	; 0x40000000
 8003e44:	d011      	beq.n	8003e6a <TIM_Base_SetConfig+0x3a>
 8003e46:	f5a6 3694 	sub.w	r6, r6, #75776	; 0x12800
 8003e4a:	42b0      	cmp	r0, r6
 8003e4c:	d00d      	beq.n	8003e6a <TIM_Base_SetConfig+0x3a>
 8003e4e:	f506 6680 	add.w	r6, r6, #1024	; 0x400
 8003e52:	42b0      	cmp	r0, r6
 8003e54:	d009      	beq.n	8003e6a <TIM_Base_SetConfig+0x3a>
 8003e56:	f023 0380 	bic.w	r3, r3, #128	; 0x80
 8003e5a:	432b      	orrs	r3, r5
 8003e5c:	6003      	str	r3, [r0, #0]
 8003e5e:	2301      	movs	r3, #1
 8003e60:	62c4      	str	r4, [r0, #44]	; 0x2c
 8003e62:	6282      	str	r2, [r0, #40]	; 0x28
 8003e64:	bc70      	pop	{r4, r5, r6}
 8003e66:	6143      	str	r3, [r0, #20]
 8003e68:	4770      	bx	lr
 8003e6a:	684e      	ldr	r6, [r1, #4]
 8003e6c:	f023 0370 	bic.w	r3, r3, #112	; 0x70
 8003e70:	4333      	orrs	r3, r6
 8003e72:	68c9      	ldr	r1, [r1, #12]
 8003e74:	f423 7340 	bic.w	r3, r3, #768	; 0x300
 8003e78:	430b      	orrs	r3, r1
 8003e7a:	e7ec      	b.n	8003e56 <TIM_Base_SetConfig+0x26>
 8003e7c:	684e      	ldr	r6, [r1, #4]
 8003e7e:	f023 0370 	bic.w	r3, r3, #112	; 0x70
 8003e82:	4333      	orrs	r3, r6
 8003e84:	68ce      	ldr	r6, [r1, #12]
 8003e86:	f423 7340 	bic.w	r3, r3, #768	; 0x300
 8003e8a:	4333      	orrs	r3, r6
 8003e8c:	f023 0380 	bic.w	r3, r3, #128	; 0x80
 8003e90:	432b      	orrs	r3, r5
 8003e92:	6003      	str	r3, [r0, #0]
 8003e94:	62c4      	str	r4, [r0, #44]	; 0x2c
 8003e96:	6282      	str	r2, [r0, #40]	; 0x28
 8003e98:	690b      	ldr	r3, [r1, #16]
 8003e9a:	bc70      	pop	{r4, r5, r6}
 8003e9c:	6303      	str	r3, [r0, #48]	; 0x30
 8003e9e:	2301      	movs	r3, #1
 8003ea0:	6143      	str	r3, [r0, #20]
 8003ea2:	4770      	bx	lr
 8003ea4:	40012c00 	.word	0x40012c00

08003ea8 <TIM_OC2_SetConfig>:
 8003ea8:	6a02      	ldr	r2, [r0, #32]
 8003eaa:	b4f0      	push	{r4, r5, r6, r7}
 8003eac:	f022 0210 	bic.w	r2, r2, #16
 8003eb0:	688d      	ldr	r5, [r1, #8]
 8003eb2:	6202      	str	r2, [r0, #32]
 8003eb4:	6a03      	ldr	r3, [r0, #32]
 8003eb6:	6847      	ldr	r7, [r0, #4]
 8003eb8:	f023 0320 	bic.w	r3, r3, #32
 8003ebc:	6982      	ldr	r2, [r0, #24]
 8003ebe:	ea43 1305 	orr.w	r3, r3, r5, lsl #4
 8003ec2:	4d0f      	ldr	r5, [pc, #60]	; (8003f00 <TIM_OC2_SetConfig+0x58>)
 8003ec4:	680c      	ldr	r4, [r1, #0]
 8003ec6:	f422 42e6 	bic.w	r2, r2, #29440	; 0x7300
 8003eca:	42a8      	cmp	r0, r5
 8003ecc:	ea42 2204 	orr.w	r2, r2, r4, lsl #8
 8003ed0:	d006      	beq.n	8003ee0 <TIM_OC2_SetConfig+0x38>
 8003ed2:	6849      	ldr	r1, [r1, #4]
 8003ed4:	6047      	str	r7, [r0, #4]
 8003ed6:	6182      	str	r2, [r0, #24]
 8003ed8:	bcf0      	pop	{r4, r5, r6, r7}
 8003eda:	6381      	str	r1, [r0, #56]	; 0x38
 8003edc:	6203      	str	r3, [r0, #32]
 8003ede:	4770      	bx	lr
 8003ee0:	68ce      	ldr	r6, [r1, #12]
 8003ee2:	f023 0380 	bic.w	r3, r3, #128	; 0x80
 8003ee6:	e9d1 4505 	ldrd	r4, r5, [r1, #20]
 8003eea:	f427 6740 	bic.w	r7, r7, #3072	; 0xc00
 8003eee:	ea43 1306 	orr.w	r3, r3, r6, lsl #4
 8003ef2:	432c      	orrs	r4, r5
 8003ef4:	f023 0340 	bic.w	r3, r3, #64	; 0x40
 8003ef8:	ea47 0784 	orr.w	r7, r7, r4, lsl #2
 8003efc:	e7e9      	b.n	8003ed2 <TIM_OC2_SetConfig+0x2a>
 8003efe:	bf00      	nop
 8003f00:	40012c00 	.word	0x40012c00

08003f04 <TIM_TI1_SetConfig>:
 8003f04:	b470      	push	{r4, r5, r6}
 8003f06:	6a04      	ldr	r4, [r0, #32]
 8003f08:	4e13      	ldr	r6, [pc, #76]	; (8003f58 <TIM_TI1_SetConfig+0x54>)
 8003f0a:	f024 0401 	bic.w	r4, r4, #1
 8003f0e:	6204      	str	r4, [r0, #32]
 8003f10:	42b0      	cmp	r0, r6
 8003f12:	6984      	ldr	r4, [r0, #24]
 8003f14:	6a05      	ldr	r5, [r0, #32]
 8003f16:	d00d      	beq.n	8003f34 <TIM_TI1_SetConfig+0x30>
 8003f18:	f1b0 4f80 	cmp.w	r0, #1073741824	; 0x40000000
 8003f1c:	d00a      	beq.n	8003f34 <TIM_TI1_SetConfig+0x30>
 8003f1e:	f5a6 3694 	sub.w	r6, r6, #75776	; 0x12800
 8003f22:	42b0      	cmp	r0, r6
 8003f24:	d006      	beq.n	8003f34 <TIM_TI1_SetConfig+0x30>
 8003f26:	f506 6680 	add.w	r6, r6, #1024	; 0x400
 8003f2a:	42b0      	cmp	r0, r6
 8003f2c:	d002      	beq.n	8003f34 <TIM_TI1_SetConfig+0x30>
 8003f2e:	f044 0201 	orr.w	r2, r4, #1
 8003f32:	e002      	b.n	8003f3a <TIM_TI1_SetConfig+0x36>
 8003f34:	f024 0403 	bic.w	r4, r4, #3
 8003f38:	4322      	orrs	r2, r4
 8003f3a:	011b      	lsls	r3, r3, #4
 8003f3c:	f025 040a 	bic.w	r4, r5, #10
 8003f40:	b2db      	uxtb	r3, r3
 8003f42:	f022 02f0 	bic.w	r2, r2, #240	; 0xf0
 8003f46:	f001 010a 	and.w	r1, r1, #10
 8003f4a:	4321      	orrs	r1, r4
 8003f4c:	4313      	orrs	r3, r2
 8003f4e:	6183      	str	r3, [r0, #24]
 8003f50:	bc70      	pop	{r4, r5, r6}
 8003f52:	6201      	str	r1, [r0, #32]
 8003f54:	4770      	bx	lr
 8003f56:	bf00      	nop
 8003f58:	40012c00 	.word	0x40012c00

08003f5c <HAL_TIMEx_HallSensor_MspInit>:
 8003f5c:	4770      	bx	lr
 8003f5e:	bf00      	nop

08003f60 <HAL_TIMEx_HallSensor_Init>:
 8003f60:	2800      	cmp	r0, #0
 8003f62:	d05f      	beq.n	8004024 <HAL_TIMEx_HallSensor_Init+0xc4>
 8003f64:	b5f0      	push	{r4, r5, r6, r7, lr}
 8003f66:	f890 303d 	ldrb.w	r3, [r0, #61]	; 0x3d
 8003f6a:	b089      	sub	sp, #36	; 0x24
 8003f6c:	4604      	mov	r4, r0
 8003f6e:	460e      	mov	r6, r1
 8003f70:	f003 02ff 	and.w	r2, r3, #255	; 0xff
 8003f74:	2b00      	cmp	r3, #0
 8003f76:	d050      	beq.n	800401a <HAL_TIMEx_HallSensor_Init+0xba>
 8003f78:	2302      	movs	r3, #2
 8003f7a:	2500      	movs	r5, #0
 8003f7c:	1d21      	adds	r1, r4, #4
 8003f7e:	f884 303d 	strb.w	r3, [r4, #61]	; 0x3d
 8003f82:	6820      	ldr	r0, [r4, #0]
 8003f84:	2770      	movs	r7, #112	; 0x70
 8003f86:	f7ff ff53 	bl	8003e30 <TIM_Base_SetConfig>
 8003f8a:	68b3      	ldr	r3, [r6, #8]
 8003f8c:	6831      	ldr	r1, [r6, #0]
 8003f8e:	6820      	ldr	r0, [r4, #0]
 8003f90:	2203      	movs	r2, #3
 8003f92:	f7ff ffb7 	bl	8003f04 <TIM_TI1_SetConfig>
 8003f96:	6823      	ldr	r3, [r4, #0]
 8003f98:	6870      	ldr	r0, [r6, #4]
 8003f9a:	6999      	ldr	r1, [r3, #24]
 8003f9c:	68f6      	ldr	r6, [r6, #12]
 8003f9e:	f021 010c 	bic.w	r1, r1, #12
 8003fa2:	6199      	str	r1, [r3, #24]
 8003fa4:	699a      	ldr	r2, [r3, #24]
 8003fa6:	a901      	add	r1, sp, #4
 8003fa8:	4302      	orrs	r2, r0
 8003faa:	619a      	str	r2, [r3, #24]
 8003fac:	685a      	ldr	r2, [r3, #4]
 8003fae:	4618      	mov	r0, r3
 8003fb0:	f042 0280 	orr.w	r2, r2, #128	; 0x80
 8003fb4:	605a      	str	r2, [r3, #4]
 8003fb6:	689a      	ldr	r2, [r3, #8]
 8003fb8:	9701      	str	r7, [sp, #4]
 8003fba:	f022 0270 	bic.w	r2, r2, #112	; 0x70
 8003fbe:	609a      	str	r2, [r3, #8]
 8003fc0:	689a      	ldr	r2, [r3, #8]
 8003fc2:	9602      	str	r6, [sp, #8]
 8003fc4:	f042 0240 	orr.w	r2, r2, #64	; 0x40
 8003fc8:	609a      	str	r2, [r3, #8]
 8003fca:	689a      	ldr	r2, [r3, #8]
 8003fcc:	f022 0207 	bic.w	r2, r2, #7
 8003fd0:	609a      	str	r2, [r3, #8]
 8003fd2:	689a      	ldr	r2, [r3, #8]
 8003fd4:	f042 0204 	orr.w	r2, r2, #4
 8003fd8:	609a      	str	r2, [r3, #8]
 8003fda:	e9cd 5505 	strd	r5, r5, [sp, #20]
 8003fde:	9507      	str	r5, [sp, #28]
 8003fe0:	e9cd 5503 	strd	r5, r5, [sp, #12]
 8003fe4:	f7ff ff60 	bl	8003ea8 <TIM_OC2_SetConfig>
 8003fe8:	2301      	movs	r3, #1
 8003fea:	4628      	mov	r0, r5
 8003fec:	6822      	ldr	r2, [r4, #0]
 8003fee:	6851      	ldr	r1, [r2, #4]
 8003ff0:	f021 0170 	bic.w	r1, r1, #112	; 0x70
 8003ff4:	6051      	str	r1, [r2, #4]
 8003ff6:	6851      	ldr	r1, [r2, #4]
 8003ff8:	f041 0150 	orr.w	r1, r1, #80	; 0x50
 8003ffc:	6051      	str	r1, [r2, #4]
 8003ffe:	f884 3046 	strb.w	r3, [r4, #70]	; 0x46
 8004002:	f884 303e 	strb.w	r3, [r4, #62]	; 0x3e
 8004006:	f884 303f 	strb.w	r3, [r4, #63]	; 0x3f
 800400a:	f884 3042 	strb.w	r3, [r4, #66]	; 0x42
 800400e:	f884 3043 	strb.w	r3, [r4, #67]	; 0x43
 8004012:	f884 303d 	strb.w	r3, [r4, #61]	; 0x3d
 8004016:	b009      	add	sp, #36	; 0x24
 8004018:	bdf0      	pop	{r4, r5, r6, r7, pc}
 800401a:	f880 203c 	strb.w	r2, [r0, #60]	; 0x3c
 800401e:	f7ff ff9d 	bl	8003f5c <HAL_TIMEx_HallSensor_MspInit>
 8004022:	e7a9      	b.n	8003f78 <HAL_TIMEx_HallSensor_Init+0x18>
 8004024:	2001      	movs	r0, #1
 8004026:	4770      	bx	lr

08004028 <HAL_TIMEx_MasterConfigSynchronization>:
 8004028:	f890 303c 	ldrb.w	r3, [r0, #60]	; 0x3c
 800402c:	2b01      	cmp	r3, #1
 800402e:	d029      	beq.n	8004084 <HAL_TIMEx_MasterConfigSynchronization+0x5c>
 8004030:	2202      	movs	r2, #2
 8004032:	b470      	push	{r4, r5, r6}
 8004034:	2601      	movs	r6, #1
 8004036:	6803      	ldr	r3, [r0, #0]
 8004038:	f880 203d 	strb.w	r2, [r0, #61]	; 0x3d
 800403c:	685a      	ldr	r2, [r3, #4]
 800403e:	680c      	ldr	r4, [r1, #0]
 8004040:	4d11      	ldr	r5, [pc, #68]	; (8004088 <HAL_TIMEx_MasterConfigSynchronization+0x60>)
 8004042:	f022 0270 	bic.w	r2, r2, #112	; 0x70
 8004046:	4322      	orrs	r2, r4
 8004048:	42ab      	cmp	r3, r5
 800404a:	689c      	ldr	r4, [r3, #8]
 800404c:	f880 603c 	strb.w	r6, [r0, #60]	; 0x3c
 8004050:	605a      	str	r2, [r3, #4]
 8004052:	d009      	beq.n	8004068 <HAL_TIMEx_MasterConfigSynchronization+0x40>
 8004054:	f1b3 4f80 	cmp.w	r3, #1073741824	; 0x40000000
 8004058:	d006      	beq.n	8004068 <HAL_TIMEx_MasterConfigSynchronization+0x40>
 800405a:	4a0c      	ldr	r2, [pc, #48]	; (800408c <HAL_TIMEx_MasterConfigSynchronization+0x64>)
 800405c:	4293      	cmp	r3, r2
 800405e:	d003      	beq.n	8004068 <HAL_TIMEx_MasterConfigSynchronization+0x40>
 8004060:	f502 6280 	add.w	r2, r2, #1024	; 0x400
 8004064:	4293      	cmp	r3, r2
 8004066:	d104      	bne.n	8004072 <HAL_TIMEx_MasterConfigSynchronization+0x4a>
 8004068:	684a      	ldr	r2, [r1, #4]
 800406a:	f024 0480 	bic.w	r4, r4, #128	; 0x80
 800406e:	4314      	orrs	r4, r2
 8004070:	609c      	str	r4, [r3, #8]
 8004072:	2300      	movs	r3, #0
 8004074:	bc70      	pop	{r4, r5, r6}
 8004076:	2201      	movs	r2, #1
 8004078:	f880 303c 	strb.w	r3, [r0, #60]	; 0x3c
 800407c:	f880 203d 	strb.w	r2, [r0, #61]	; 0x3d
 8004080:	4618      	mov	r0, r3
 8004082:	4770      	bx	lr
 8004084:	2002      	movs	r0, #2
 8004086:	4770      	bx	lr
 8004088:	40012c00 	.word	0x40012c00
 800408c:	40000400 	.word	0x40000400

08004090 <HAL_TIMEx_ConfigBreakDeadTime>:
 8004090:	f890 303c 	ldrb.w	r3, [r0, #60]	; 0x3c
 8004094:	2b01      	cmp	r3, #1
 8004096:	d022      	beq.n	80040de <HAL_TIMEx_ConfigBreakDeadTime+0x4e>
 8004098:	4602      	mov	r2, r0
 800409a:	e9d1 0302 	ldrd	r0, r3, [r1, #8]
 800409e:	b410      	push	{r4}
 80040a0:	2400      	movs	r4, #0
 80040a2:	f423 7340 	bic.w	r3, r3, #768	; 0x300
 80040a6:	4303      	orrs	r3, r0
 80040a8:	6848      	ldr	r0, [r1, #4]
 80040aa:	f423 6380 	bic.w	r3, r3, #1024	; 0x400
 80040ae:	4303      	orrs	r3, r0
 80040b0:	6808      	ldr	r0, [r1, #0]
 80040b2:	f423 6300 	bic.w	r3, r3, #2048	; 0x800
 80040b6:	4303      	orrs	r3, r0
 80040b8:	6908      	ldr	r0, [r1, #16]
 80040ba:	f423 5380 	bic.w	r3, r3, #4096	; 0x1000
 80040be:	4303      	orrs	r3, r0
 80040c0:	6948      	ldr	r0, [r1, #20]
 80040c2:	f423 5300 	bic.w	r3, r3, #8192	; 0x2000
 80040c6:	4303      	orrs	r3, r0
 80040c8:	69c8      	ldr	r0, [r1, #28]
 80040ca:	f423 4380 	bic.w	r3, r3, #16384	; 0x4000
 80040ce:	6811      	ldr	r1, [r2, #0]
 80040d0:	4303      	orrs	r3, r0
 80040d2:	644b      	str	r3, [r1, #68]	; 0x44
 80040d4:	4620      	mov	r0, r4
 80040d6:	f882 403c 	strb.w	r4, [r2, #60]	; 0x3c
 80040da:	bc10      	pop	{r4}
 80040dc:	4770      	bx	lr
 80040de:	2002      	movs	r0, #2
 80040e0:	4770      	bx	lr
 80040e2:	bf00      	nop

080040e4 <HAL_TIMEx_CommutCallback>:
 80040e4:	4770      	bx	lr
 80040e6:	bf00      	nop

080040e8 <HAL_TIMEx_BreakCallback>:
 80040e8:	4770      	bx	lr
 80040ea:	bf00      	nop

080040ec <HAL_UART_Init>:
 80040ec:	2800      	cmp	r0, #0
 80040ee:	d05e      	beq.n	80041ae <HAL_UART_Init+0xc2>
 80040f0:	f890 3039 	ldrb.w	r3, [r0, #57]	; 0x39
 80040f4:	b570      	push	{r4, r5, r6, lr}
 80040f6:	f003 02ff 	and.w	r2, r3, #255	; 0xff
 80040fa:	4604      	mov	r4, r0
 80040fc:	2b00      	cmp	r3, #0
 80040fe:	d051      	beq.n	80041a4 <HAL_UART_Init+0xb8>
 8004100:	2224      	movs	r2, #36	; 0x24
 8004102:	6823      	ldr	r3, [r4, #0]
 8004104:	f884 2039 	strb.w	r2, [r4, #57]	; 0x39
 8004108:	68da      	ldr	r2, [r3, #12]
 800410a:	68e0      	ldr	r0, [r4, #12]
 800410c:	f422 5200 	bic.w	r2, r2, #8192	; 0x2000
 8004110:	60da      	str	r2, [r3, #12]
 8004112:	6919      	ldr	r1, [r3, #16]
 8004114:	68a2      	ldr	r2, [r4, #8]
 8004116:	f421 5140 	bic.w	r1, r1, #12288	; 0x3000
 800411a:	4301      	orrs	r1, r0
 800411c:	6119      	str	r1, [r3, #16]
 800411e:	68d9      	ldr	r1, [r3, #12]
 8004120:	e9d4 5004 	ldrd	r5, r0, [r4, #16]
 8004124:	f421 51b0 	bic.w	r1, r1, #5632	; 0x1600
 8004128:	432a      	orrs	r2, r5
 800412a:	f021 010c 	bic.w	r1, r1, #12
 800412e:	4302      	orrs	r2, r0
 8004130:	430a      	orrs	r2, r1
 8004132:	60da      	str	r2, [r3, #12]
 8004134:	695a      	ldr	r2, [r3, #20]
 8004136:	69a0      	ldr	r0, [r4, #24]
 8004138:	491f      	ldr	r1, [pc, #124]	; (80041b8 <HAL_UART_Init+0xcc>)
 800413a:	f422 7240 	bic.w	r2, r2, #768	; 0x300
 800413e:	4302      	orrs	r2, r0
 8004140:	428b      	cmp	r3, r1
 8004142:	615a      	str	r2, [r3, #20]
 8004144:	d035      	beq.n	80041b2 <HAL_UART_Init+0xc6>
 8004146:	f7ff f9ed 	bl	8003524 <HAL_RCC_GetPCLK1Freq>
 800414a:	6863      	ldr	r3, [r4, #4]
 800414c:	eb00 0080 	add.w	r0, r0, r0, lsl #2
 8004150:	009b      	lsls	r3, r3, #2
 8004152:	eb00 0080 	add.w	r0, r0, r0, lsl #2
 8004156:	fbb0 f0f3 	udiv	r0, r0, r3
 800415a:	2364      	movs	r3, #100	; 0x64
 800415c:	2500      	movs	r5, #0
 800415e:	2120      	movs	r1, #32
 8004160:	4e16      	ldr	r6, [pc, #88]	; (80041bc <HAL_UART_Init+0xd0>)
 8004162:	fba6 c200 	umull	ip, r2, r6, r0
 8004166:	0952      	lsrs	r2, r2, #5
 8004168:	fb03 0012 	mls	r0, r3, r2, r0
 800416c:	0100      	lsls	r0, r0, #4
 800416e:	3032      	adds	r0, #50	; 0x32
 8004170:	fba6 3000 	umull	r3, r0, r6, r0
 8004174:	0112      	lsls	r2, r2, #4
 8004176:	6823      	ldr	r3, [r4, #0]
 8004178:	eb02 1050 	add.w	r0, r2, r0, lsr #5
 800417c:	6098      	str	r0, [r3, #8]
 800417e:	691a      	ldr	r2, [r3, #16]
 8004180:	4628      	mov	r0, r5
 8004182:	f422 4290 	bic.w	r2, r2, #18432	; 0x4800
 8004186:	611a      	str	r2, [r3, #16]
 8004188:	695a      	ldr	r2, [r3, #20]
 800418a:	f022 022a 	bic.w	r2, r2, #42	; 0x2a
 800418e:	615a      	str	r2, [r3, #20]
 8004190:	68da      	ldr	r2, [r3, #12]
 8004192:	f442 5200 	orr.w	r2, r2, #8192	; 0x2000
 8004196:	60da      	str	r2, [r3, #12]
 8004198:	63e5      	str	r5, [r4, #60]	; 0x3c
 800419a:	f884 1039 	strb.w	r1, [r4, #57]	; 0x39
 800419e:	f884 103a 	strb.w	r1, [r4, #58]	; 0x3a
 80041a2:	bd70      	pop	{r4, r5, r6, pc}
 80041a4:	f880 2038 	strb.w	r2, [r0, #56]	; 0x38
 80041a8:	f7fd fe80 	bl	8001eac <HAL_UART_MspInit>
 80041ac:	e7a8      	b.n	8004100 <HAL_UART_Init+0x14>
 80041ae:	2001      	movs	r0, #1
 80041b0:	4770      	bx	lr
 80041b2:	f7ff f9c7 	bl	8003544 <HAL_RCC_GetPCLK2Freq>
 80041b6:	e7c8      	b.n	800414a <HAL_UART_Init+0x5e>
 80041b8:	40013800 	.word	0x40013800
 80041bc:	51eb851f 	.word	0x51eb851f

080041c0 <osKernelInitialize>:
 80041c0:	f3ef 8305 	mrs	r3, IPSR
 80041c4:	b983      	cbnz	r3, 80041e8 <osKernelInitialize+0x28>
 80041c6:	f3ef 8310 	mrs	r3, PRIMASK
 80041ca:	b96b      	cbnz	r3, 80041e8 <osKernelInitialize+0x28>
 80041cc:	4b08      	ldr	r3, [pc, #32]	; (80041f0 <osKernelInitialize+0x30>)
 80041ce:	6818      	ldr	r0, [r3, #0]
 80041d0:	2802      	cmp	r0, #2
 80041d2:	d003      	beq.n	80041dc <osKernelInitialize+0x1c>
 80041d4:	b928      	cbnz	r0, 80041e2 <osKernelInitialize+0x22>
 80041d6:	2201      	movs	r2, #1
 80041d8:	601a      	str	r2, [r3, #0]
 80041da:	4770      	bx	lr
 80041dc:	f3ef 8311 	mrs	r3, BASEPRI
 80041e0:	b913      	cbnz	r3, 80041e8 <osKernelInitialize+0x28>
 80041e2:	f04f 30ff 	mov.w	r0, #4294967295
 80041e6:	4770      	bx	lr
 80041e8:	f06f 0005 	mvn.w	r0, #5
 80041ec:	4770      	bx	lr
 80041ee:	bf00      	nop
 80041f0:	20000824 	.word	0x20000824

080041f4 <osKernelStart>:
 80041f4:	f3ef 8305 	mrs	r3, IPSR
 80041f8:	b9c3      	cbnz	r3, 800422c <osKernelStart+0x38>
 80041fa:	b510      	push	{r4, lr}
 80041fc:	f3ef 8410 	mrs	r4, PRIMASK
 8004200:	b98c      	cbnz	r4, 8004226 <osKernelStart+0x32>
 8004202:	4b0c      	ldr	r3, [pc, #48]	; (8004234 <osKernelStart+0x40>)
 8004204:	681a      	ldr	r2, [r3, #0]
 8004206:	2a02      	cmp	r2, #2
 8004208:	d007      	beq.n	800421a <osKernelStart+0x26>
 800420a:	2a01      	cmp	r2, #1
 800420c:	d108      	bne.n	8004220 <osKernelStart+0x2c>
 800420e:	2202      	movs	r2, #2
 8004210:	601a      	str	r2, [r3, #0]
 8004212:	f001 f995 	bl	8005540 <vTaskStartScheduler>
 8004216:	4620      	mov	r0, r4
 8004218:	bd10      	pop	{r4, pc}
 800421a:	f3ef 8311 	mrs	r3, BASEPRI
 800421e:	b913      	cbnz	r3, 8004226 <osKernelStart+0x32>
 8004220:	f04f 30ff 	mov.w	r0, #4294967295
 8004224:	bd10      	pop	{r4, pc}
 8004226:	f06f 0005 	mvn.w	r0, #5
 800422a:	bd10      	pop	{r4, pc}
 800422c:	f06f 0005 	mvn.w	r0, #5
 8004230:	4770      	bx	lr
 8004232:	bf00      	nop
 8004234:	20000824 	.word	0x20000824

08004238 <osThreadNew>:
 8004238:	b5f0      	push	{r4, r5, r6, r7, lr}
 800423a:	2400      	movs	r4, #0
 800423c:	b087      	sub	sp, #28
 800423e:	9405      	str	r4, [sp, #20]
 8004240:	f3ef 8505 	mrs	r5, IPSR
 8004244:	2d00      	cmp	r5, #0
 8004246:	d135      	bne.n	80042b4 <osThreadNew+0x7c>
 8004248:	f3ef 8310 	mrs	r3, PRIMASK
 800424c:	2b00      	cmp	r3, #0
 800424e:	d138      	bne.n	80042c2 <osThreadNew+0x8a>
 8004250:	4b25      	ldr	r3, [pc, #148]	; (80042e8 <osThreadNew+0xb0>)
 8004252:	681b      	ldr	r3, [r3, #0]
 8004254:	2b02      	cmp	r3, #2
 8004256:	d030      	beq.n	80042ba <osThreadNew+0x82>
 8004258:	b398      	cbz	r0, 80042c2 <osThreadNew+0x8a>
 800425a:	460b      	mov	r3, r1
 800425c:	2100      	movs	r1, #0
 800425e:	f88d 1013 	strb.w	r1, [sp, #19]
 8004262:	b1e2      	cbz	r2, 800429e <osThreadNew+0x66>
 8004264:	6811      	ldr	r1, [r2, #0]
 8004266:	b399      	cbz	r1, 80042d0 <osThreadNew+0x98>
 8004268:	6994      	ldr	r4, [r2, #24]
 800426a:	b36c      	cbz	r4, 80042c8 <osThreadNew+0x90>
 800426c:	1e65      	subs	r5, r4, #1
 800426e:	2d37      	cmp	r5, #55	; 0x37
 8004270:	d820      	bhi.n	80042b4 <osThreadNew+0x7c>
 8004272:	6855      	ldr	r5, [r2, #4]
 8004274:	07ed      	lsls	r5, r5, #31
 8004276:	d41d      	bmi.n	80042b4 <osThreadNew+0x7c>
 8004278:	6955      	ldr	r5, [r2, #20]
 800427a:	bb3d      	cbnz	r5, 80042cc <osThreadNew+0x94>
 800427c:	2780      	movs	r7, #128	; 0x80
 800427e:	e9d2 6c02 	ldrd	r6, ip, [r2, #8]
 8004282:	b346      	cbz	r6, 80042d6 <osThreadNew+0x9e>
 8004284:	f1bc 0f5b 	cmp.w	ip, #91	; 0x5b
 8004288:	d91b      	bls.n	80042c2 <osThreadNew+0x8a>
 800428a:	6912      	ldr	r2, [r2, #16]
 800428c:	b1ca      	cbz	r2, 80042c2 <osThreadNew+0x8a>
 800428e:	b1c5      	cbz	r5, 80042c2 <osThreadNew+0x8a>
 8004290:	e9cd 2601 	strd	r2, r6, [sp, #4]
 8004294:	9400      	str	r4, [sp, #0]
 8004296:	463a      	mov	r2, r7
 8004298:	f001 f870 	bl	800537c <xTaskCreateStatic>
 800429c:	e00b      	b.n	80042b6 <osThreadNew+0x7e>
 800429e:	2280      	movs	r2, #128	; 0x80
 80042a0:	2418      	movs	r4, #24
 80042a2:	f10d 0113 	add.w	r1, sp, #19
 80042a6:	ad05      	add	r5, sp, #20
 80042a8:	e9cd 4500 	strd	r4, r5, [sp]
 80042ac:	f001 f89e 	bl	80053ec <xTaskCreate>
 80042b0:	2801      	cmp	r0, #1
 80042b2:	d006      	beq.n	80042c2 <osThreadNew+0x8a>
 80042b4:	2000      	movs	r0, #0
 80042b6:	b007      	add	sp, #28
 80042b8:	bdf0      	pop	{r4, r5, r6, r7, pc}
 80042ba:	f3ef 8311 	mrs	r3, BASEPRI
 80042be:	2b00      	cmp	r3, #0
 80042c0:	d0ca      	beq.n	8004258 <osThreadNew+0x20>
 80042c2:	9805      	ldr	r0, [sp, #20]
 80042c4:	b007      	add	sp, #28
 80042c6:	bdf0      	pop	{r4, r5, r6, r7, pc}
 80042c8:	2418      	movs	r4, #24
 80042ca:	e7d2      	b.n	8004272 <osThreadNew+0x3a>
 80042cc:	08af      	lsrs	r7, r5, #2
 80042ce:	e7d6      	b.n	800427e <osThreadNew+0x46>
 80042d0:	f10d 0113 	add.w	r1, sp, #19
 80042d4:	e7c8      	b.n	8004268 <osThreadNew+0x30>
 80042d6:	f1bc 0f00 	cmp.w	ip, #0
 80042da:	d1f2      	bne.n	80042c2 <osThreadNew+0x8a>
 80042dc:	6912      	ldr	r2, [r2, #16]
 80042de:	2a00      	cmp	r2, #0
 80042e0:	d1ef      	bne.n	80042c2 <osThreadNew+0x8a>
 80042e2:	b2ba      	uxth	r2, r7
 80042e4:	e7df      	b.n	80042a6 <osThreadNew+0x6e>
 80042e6:	bf00      	nop
 80042e8:	20000824 	.word	0x20000824

080042ec <osDelay>:
 80042ec:	b508      	push	{r3, lr}
 80042ee:	f3ef 8305 	mrs	r3, IPSR
 80042f2:	b983      	cbnz	r3, 8004316 <osDelay+0x2a>
 80042f4:	f3ef 8310 	mrs	r3, PRIMASK
 80042f8:	b96b      	cbnz	r3, 8004316 <osDelay+0x2a>
 80042fa:	4b08      	ldr	r3, [pc, #32]	; (800431c <osDelay+0x30>)
 80042fc:	681b      	ldr	r3, [r3, #0]
 80042fe:	2b02      	cmp	r3, #2
 8004300:	d005      	beq.n	800430e <osDelay+0x22>
 8004302:	b900      	cbnz	r0, 8004306 <osDelay+0x1a>
 8004304:	bd08      	pop	{r3, pc}
 8004306:	f001 fac3 	bl	8005890 <vTaskDelay>
 800430a:	2000      	movs	r0, #0
 800430c:	bd08      	pop	{r3, pc}
 800430e:	f3ef 8311 	mrs	r3, BASEPRI
 8004312:	2b00      	cmp	r3, #0
 8004314:	d0f5      	beq.n	8004302 <osDelay+0x16>
 8004316:	f06f 0005 	mvn.w	r0, #5
 800431a:	bd08      	pop	{r3, pc}
 800431c:	20000824 	.word	0x20000824

08004320 <vApplicationGetIdleTaskMemory>:
 8004320:	2380      	movs	r3, #128	; 0x80
 8004322:	b430      	push	{r4, r5}
 8004324:	4d03      	ldr	r5, [pc, #12]	; (8004334 <vApplicationGetIdleTaskMemory+0x14>)
 8004326:	4c04      	ldr	r4, [pc, #16]	; (8004338 <vApplicationGetIdleTaskMemory+0x18>)
 8004328:	6005      	str	r5, [r0, #0]
 800432a:	600c      	str	r4, [r1, #0]
 800432c:	6013      	str	r3, [r2, #0]
 800432e:	bc30      	pop	{r4, r5}
 8004330:	4770      	bx	lr
 8004332:	bf00      	nop
 8004334:	200007c8 	.word	0x200007c8
 8004338:	200005c8 	.word	0x200005c8

0800433c <vApplicationGetTimerTaskMemory>:
 800433c:	f44f 7380 	mov.w	r3, #256	; 0x100
 8004340:	b430      	push	{r4, r5}
 8004342:	4d03      	ldr	r5, [pc, #12]	; (8004350 <vApplicationGetTimerTaskMemory+0x14>)
 8004344:	4c03      	ldr	r4, [pc, #12]	; (8004354 <vApplicationGetTimerTaskMemory+0x18>)
 8004346:	6005      	str	r5, [r0, #0]
 8004348:	600c      	str	r4, [r1, #0]
 800434a:	6013      	str	r3, [r2, #0]
 800434c:	bc30      	pop	{r4, r5}
 800434e:	4770      	bx	lr
 8004350:	20000c28 	.word	0x20000c28
 8004354:	20000828 	.word	0x20000828

08004358 <prvInsertBlockIntoFreeList>:
 8004358:	b430      	push	{r4, r5}
 800435a:	4b11      	ldr	r3, [pc, #68]	; (80043a0 <prvInsertBlockIntoFreeList+0x48>)
 800435c:	681a      	ldr	r2, [r3, #0]
 800435e:	4282      	cmp	r2, r0
 8004360:	d201      	bcs.n	8004366 <prvInsertBlockIntoFreeList+0xe>
 8004362:	4613      	mov	r3, r2
 8004364:	e7fa      	b.n	800435c <prvInsertBlockIntoFreeList+0x4>
 8004366:	685c      	ldr	r4, [r3, #4]
 8004368:	1919      	adds	r1, r3, r4
 800436a:	4288      	cmp	r0, r1
 800436c:	d103      	bne.n	8004376 <prvInsertBlockIntoFreeList+0x1e>
 800436e:	6841      	ldr	r1, [r0, #4]
 8004370:	4618      	mov	r0, r3
 8004372:	4421      	add	r1, r4
 8004374:	6059      	str	r1, [r3, #4]
 8004376:	6844      	ldr	r4, [r0, #4]
 8004378:	1901      	adds	r1, r0, r4
 800437a:	428a      	cmp	r2, r1
 800437c:	d109      	bne.n	8004392 <prvInsertBlockIntoFreeList+0x3a>
 800437e:	4909      	ldr	r1, [pc, #36]	; (80043a4 <prvInsertBlockIntoFreeList+0x4c>)
 8004380:	6809      	ldr	r1, [r1, #0]
 8004382:	428a      	cmp	r2, r1
 8004384:	d005      	beq.n	8004392 <prvInsertBlockIntoFreeList+0x3a>
 8004386:	e9d2 5100 	ldrd	r5, r1, [r2]
 800438a:	4421      	add	r1, r4
 800438c:	e9c0 5100 	strd	r5, r1, [r0]
 8004390:	e000      	b.n	8004394 <prvInsertBlockIntoFreeList+0x3c>
 8004392:	6002      	str	r2, [r0, #0]
 8004394:	4298      	cmp	r0, r3
 8004396:	bf18      	it	ne
 8004398:	6018      	strne	r0, [r3, #0]
 800439a:	bc30      	pop	{r4, r5}
 800439c:	4770      	bx	lr
 800439e:	bf00      	nop
 80043a0:	20001894 	.word	0x20001894
 80043a4:	20000c84 	.word	0x20000c84

080043a8 <pvPortMalloc>:
 80043a8:	e92d 41f0 	stmdb	sp!, {r4, r5, r6, r7, r8, lr}
 80043ac:	4f41      	ldr	r7, [pc, #260]	; (80044b4 <pvPortMalloc+0x10c>)
 80043ae:	4604      	mov	r4, r0
 80043b0:	f001 f936 	bl	8005620 <vTaskSuspendAll>
 80043b4:	683a      	ldr	r2, [r7, #0]
 80043b6:	2a00      	cmp	r2, #0
 80043b8:	d05a      	beq.n	8004470 <pvPortMalloc+0xc8>
 80043ba:	4b3f      	ldr	r3, [pc, #252]	; (80044b8 <pvPortMalloc+0x110>)
 80043bc:	681e      	ldr	r6, [r3, #0]
 80043be:	4234      	tst	r4, r6
 80043c0:	d150      	bne.n	8004464 <pvPortMalloc+0xbc>
 80043c2:	2c00      	cmp	r4, #0
 80043c4:	d04e      	beq.n	8004464 <pvPortMalloc+0xbc>
 80043c6:	f104 0308 	add.w	r3, r4, #8
 80043ca:	0758      	lsls	r0, r3, #29
 80043cc:	bf1c      	itt	ne
 80043ce:	f023 0307 	bicne.w	r3, r3, #7
 80043d2:	3308      	addne	r3, #8
 80043d4:	2b00      	cmp	r3, #0
 80043d6:	d045      	beq.n	8004464 <pvPortMalloc+0xbc>
 80043d8:	f8df 80f0 	ldr.w	r8, [pc, #240]	; 80044cc <pvPortMalloc+0x124>
 80043dc:	f8d8 5000 	ldr.w	r5, [r8]
 80043e0:	429d      	cmp	r5, r3
 80043e2:	d33f      	bcc.n	8004464 <pvPortMalloc+0xbc>
 80043e4:	4835      	ldr	r0, [pc, #212]	; (80044bc <pvPortMalloc+0x114>)
 80043e6:	6804      	ldr	r4, [r0, #0]
 80043e8:	e006      	b.n	80043f8 <pvPortMalloc+0x50>
 80043ea:	f8d4 c000 	ldr.w	ip, [r4]
 80043ee:	f1bc 0f00 	cmp.w	ip, #0
 80043f2:	d004      	beq.n	80043fe <pvPortMalloc+0x56>
 80043f4:	4620      	mov	r0, r4
 80043f6:	4664      	mov	r4, ip
 80043f8:	6861      	ldr	r1, [r4, #4]
 80043fa:	4299      	cmp	r1, r3
 80043fc:	d3f5      	bcc.n	80043ea <pvPortMalloc+0x42>
 80043fe:	4294      	cmp	r4, r2
 8004400:	d030      	beq.n	8004464 <pvPortMalloc+0xbc>
 8004402:	1aca      	subs	r2, r1, r3
 8004404:	6827      	ldr	r7, [r4, #0]
 8004406:	2a10      	cmp	r2, #16
 8004408:	6007      	str	r7, [r0, #0]
 800440a:	d910      	bls.n	800442e <pvPortMalloc+0x86>
 800440c:	18e0      	adds	r0, r4, r3
 800440e:	0741      	lsls	r1, r0, #29
 8004410:	d008      	beq.n	8004424 <pvPortMalloc+0x7c>
 8004412:	f04f 0350 	mov.w	r3, #80	; 0x50
 8004416:	f383 8811 	msr	BASEPRI, r3
 800441a:	f3bf 8f6f 	isb	sy
 800441e:	f3bf 8f4f 	dsb	sy
 8004422:	e7fe      	b.n	8004422 <pvPortMalloc+0x7a>
 8004424:	6042      	str	r2, [r0, #4]
 8004426:	6063      	str	r3, [r4, #4]
 8004428:	f7ff ff96 	bl	8004358 <prvInsertBlockIntoFreeList>
 800442c:	6861      	ldr	r1, [r4, #4]
 800442e:	2300      	movs	r3, #0
 8004430:	4a23      	ldr	r2, [pc, #140]	; (80044c0 <pvPortMalloc+0x118>)
 8004432:	1a6d      	subs	r5, r5, r1
 8004434:	6810      	ldr	r0, [r2, #0]
 8004436:	4331      	orrs	r1, r6
 8004438:	4285      	cmp	r5, r0
 800443a:	e9c4 3100 	strd	r3, r1, [r4]
 800443e:	f104 0408 	add.w	r4, r4, #8
 8004442:	bf38      	it	cc
 8004444:	6015      	strcc	r5, [r2, #0]
 8004446:	f8c8 5000 	str.w	r5, [r8]
 800444a:	f001 f99b 	bl	8005784 <xTaskResumeAll>
 800444e:	0763      	lsls	r3, r4, #29
 8004450:	d00b      	beq.n	800446a <pvPortMalloc+0xc2>
 8004452:	f04f 0350 	mov.w	r3, #80	; 0x50
 8004456:	f383 8811 	msr	BASEPRI, r3
 800445a:	f3bf 8f6f 	isb	sy
 800445e:	f3bf 8f4f 	dsb	sy
 8004462:	e7fe      	b.n	8004462 <pvPortMalloc+0xba>
 8004464:	f001 f98e 	bl	8005784 <xTaskResumeAll>
 8004468:	2400      	movs	r4, #0
 800446a:	4620      	mov	r0, r4
 800446c:	e8bd 81f0 	ldmia.w	sp!, {r4, r5, r6, r7, r8, pc}
 8004470:	4b14      	ldr	r3, [pc, #80]	; (80044c4 <pvPortMalloc+0x11c>)
 8004472:	2000      	movs	r0, #0
 8004474:	075d      	lsls	r5, r3, #29
 8004476:	bf1c      	itt	ne
 8004478:	3307      	addne	r3, #7
 800447a:	f023 0307 	bicne.w	r3, r3, #7
 800447e:	4619      	mov	r1, r3
 8004480:	f04f 4500 	mov.w	r5, #2147483648	; 0x80000000
 8004484:	4a10      	ldr	r2, [pc, #64]	; (80044c8 <pvPortMalloc+0x120>)
 8004486:	f8df c034 	ldr.w	ip, [pc, #52]	; 80044bc <pvPortMalloc+0x114>
 800448a:	f022 0207 	bic.w	r2, r2, #7
 800448e:	1ad3      	subs	r3, r2, r3
 8004490:	f8cc 0004 	str.w	r0, [ip, #4]
 8004494:	f8cc 1000 	str.w	r1, [ip]
 8004498:	603a      	str	r2, [r7, #0]
 800449a:	e9c2 0000 	strd	r0, r0, [r2]
 800449e:	4f08      	ldr	r7, [pc, #32]	; (80044c0 <pvPortMalloc+0x118>)
 80044a0:	e9c1 2300 	strd	r2, r3, [r1]
 80044a4:	4809      	ldr	r0, [pc, #36]	; (80044cc <pvPortMalloc+0x124>)
 80044a6:	4904      	ldr	r1, [pc, #16]	; (80044b8 <pvPortMalloc+0x110>)
 80044a8:	462e      	mov	r6, r5
 80044aa:	603b      	str	r3, [r7, #0]
 80044ac:	6003      	str	r3, [r0, #0]
 80044ae:	600d      	str	r5, [r1, #0]
 80044b0:	e785      	b.n	80043be <pvPortMalloc+0x16>
 80044b2:	bf00      	nop
 80044b4:	20000c84 	.word	0x20000c84
 80044b8:	20001888 	.word	0x20001888
 80044bc:	20001894 	.word	0x20001894
 80044c0:	20001890 	.word	0x20001890
 80044c4:	20000c88 	.word	0x20000c88
 80044c8:	20001880 	.word	0x20001880
 80044cc:	2000188c 	.word	0x2000188c

080044d0 <vPortFree>:
 80044d0:	b1d0      	cbz	r0, 8004508 <vPortFree+0x38>
 80044d2:	4a19      	ldr	r2, [pc, #100]	; (8004538 <vPortFree+0x68>)
 80044d4:	f850 3c04 	ldr.w	r3, [r0, #-4]
 80044d8:	6812      	ldr	r2, [r2, #0]
 80044da:	4213      	tst	r3, r2
 80044dc:	d108      	bne.n	80044f0 <vPortFree+0x20>
 80044de:	f04f 0350 	mov.w	r3, #80	; 0x50
 80044e2:	f383 8811 	msr	BASEPRI, r3
 80044e6:	f3bf 8f6f 	isb	sy
 80044ea:	f3bf 8f4f 	dsb	sy
 80044ee:	e7fe      	b.n	80044ee <vPortFree+0x1e>
 80044f0:	f850 1c08 	ldr.w	r1, [r0, #-8]
 80044f4:	b149      	cbz	r1, 800450a <vPortFree+0x3a>
 80044f6:	f04f 0350 	mov.w	r3, #80	; 0x50
 80044fa:	f383 8811 	msr	BASEPRI, r3
 80044fe:	f3bf 8f6f 	isb	sy
 8004502:	f3bf 8f4f 	dsb	sy
 8004506:	e7fe      	b.n	8004506 <vPortFree+0x36>
 8004508:	4770      	bx	lr
 800450a:	b510      	push	{r4, lr}
 800450c:	4604      	mov	r4, r0
 800450e:	ea23 0302 	bic.w	r3, r3, r2
 8004512:	f840 3c04 	str.w	r3, [r0, #-4]
 8004516:	f001 f883 	bl	8005620 <vTaskSuspendAll>
 800451a:	4a08      	ldr	r2, [pc, #32]	; (800453c <vPortFree+0x6c>)
 800451c:	f854 3c04 	ldr.w	r3, [r4, #-4]
 8004520:	6811      	ldr	r1, [r2, #0]
 8004522:	f1a4 0008 	sub.w	r0, r4, #8
 8004526:	440b      	add	r3, r1
 8004528:	6013      	str	r3, [r2, #0]
 800452a:	f7ff ff15 	bl	8004358 <prvInsertBlockIntoFreeList>
 800452e:	e8bd 4010 	ldmia.w	sp!, {r4, lr}
 8004532:	f001 b927 	b.w	8005784 <xTaskResumeAll>
 8004536:	bf00      	nop
 8004538:	20001888 	.word	0x20001888
 800453c:	2000188c 	.word	0x2000188c

08004540 <vListInitialise>:
 8004540:	f04f 31ff 	mov.w	r1, #4294967295
 8004544:	2200      	movs	r2, #0
 8004546:	f100 0308 	add.w	r3, r0, #8
 800454a:	6081      	str	r1, [r0, #8]
 800454c:	6002      	str	r2, [r0, #0]
 800454e:	6043      	str	r3, [r0, #4]
 8004550:	e9c0 3303 	strd	r3, r3, [r0, #12]
 8004554:	4770      	bx	lr
 8004556:	bf00      	nop

08004558 <vListInitialiseItem>:
 8004558:	2300      	movs	r3, #0
 800455a:	6103      	str	r3, [r0, #16]
 800455c:	4770      	bx	lr
 800455e:	bf00      	nop

08004560 <vListInsertEnd>:
 8004560:	6843      	ldr	r3, [r0, #4]
 8004562:	b410      	push	{r4}
 8004564:	689c      	ldr	r4, [r3, #8]
 8004566:	6802      	ldr	r2, [r0, #0]
 8004568:	608c      	str	r4, [r1, #8]
 800456a:	689c      	ldr	r4, [r3, #8]
 800456c:	3201      	adds	r2, #1
 800456e:	604b      	str	r3, [r1, #4]
 8004570:	6061      	str	r1, [r4, #4]
 8004572:	6099      	str	r1, [r3, #8]
 8004574:	bc10      	pop	{r4}
 8004576:	6108      	str	r0, [r1, #16]
 8004578:	6002      	str	r2, [r0, #0]
 800457a:	4770      	bx	lr

0800457c <vListInsert>:
 800457c:	b430      	push	{r4, r5}
 800457e:	680d      	ldr	r5, [r1, #0]
 8004580:	1c6b      	adds	r3, r5, #1
 8004582:	d011      	beq.n	80045a8 <vListInsert+0x2c>
 8004584:	f100 0208 	add.w	r2, r0, #8
 8004588:	e000      	b.n	800458c <vListInsert+0x10>
 800458a:	461a      	mov	r2, r3
 800458c:	6853      	ldr	r3, [r2, #4]
 800458e:	681c      	ldr	r4, [r3, #0]
 8004590:	42ac      	cmp	r4, r5
 8004592:	d9fa      	bls.n	800458a <vListInsert+0xe>
 8004594:	6804      	ldr	r4, [r0, #0]
 8004596:	604b      	str	r3, [r1, #4]
 8004598:	3401      	adds	r4, #1
 800459a:	6099      	str	r1, [r3, #8]
 800459c:	608a      	str	r2, [r1, #8]
 800459e:	6051      	str	r1, [r2, #4]
 80045a0:	6108      	str	r0, [r1, #16]
 80045a2:	6004      	str	r4, [r0, #0]
 80045a4:	bc30      	pop	{r4, r5}
 80045a6:	4770      	bx	lr
 80045a8:	6902      	ldr	r2, [r0, #16]
 80045aa:	6853      	ldr	r3, [r2, #4]
 80045ac:	e7f2      	b.n	8004594 <vListInsert+0x18>
 80045ae:	bf00      	nop

080045b0 <uxListRemove>:
 80045b0:	6903      	ldr	r3, [r0, #16]
 80045b2:	b410      	push	{r4}
 80045b4:	e9d0 2101 	ldrd	r2, r1, [r0, #4]
 80045b8:	685c      	ldr	r4, [r3, #4]
 80045ba:	6091      	str	r1, [r2, #8]
 80045bc:	6881      	ldr	r1, [r0, #8]
 80045be:	4284      	cmp	r4, r0
 80045c0:	604a      	str	r2, [r1, #4]
 80045c2:	bf08      	it	eq
 80045c4:	6059      	streq	r1, [r3, #4]
 80045c6:	2100      	movs	r1, #0
 80045c8:	681a      	ldr	r2, [r3, #0]
 80045ca:	6101      	str	r1, [r0, #16]
 80045cc:	3a01      	subs	r2, #1
 80045ce:	601a      	str	r2, [r3, #0]
 80045d0:	6818      	ldr	r0, [r3, #0]
 80045d2:	bc10      	pop	{r4}
 80045d4:	4770      	bx	lr
 80045d6:	bf00      	nop

080045d8 <prvTaskExitError>:
 80045d8:	2200      	movs	r2, #0
 80045da:	4b0e      	ldr	r3, [pc, #56]	; (8004614 <prvTaskExitError+0x3c>)
 80045dc:	b082      	sub	sp, #8
 80045de:	681b      	ldr	r3, [r3, #0]
 80045e0:	9201      	str	r2, [sp, #4]
 80045e2:	3301      	adds	r3, #1
 80045e4:	d008      	beq.n	80045f8 <prvTaskExitError+0x20>
 80045e6:	f04f 0350 	mov.w	r3, #80	; 0x50
 80045ea:	f383 8811 	msr	BASEPRI, r3
 80045ee:	f3bf 8f6f 	isb	sy
 80045f2:	f3bf 8f4f 	dsb	sy
 80045f6:	e7fe      	b.n	80045f6 <prvTaskExitError+0x1e>
 80045f8:	f04f 0350 	mov.w	r3, #80	; 0x50
 80045fc:	f383 8811 	msr	BASEPRI, r3
 8004600:	f3bf 8f6f 	isb	sy
 8004604:	f3bf 8f4f 	dsb	sy
 8004608:	9b01      	ldr	r3, [sp, #4]
 800460a:	2b00      	cmp	r3, #0
 800460c:	d0fc      	beq.n	8004608 <prvTaskExitError+0x30>
 800460e:	b002      	add	sp, #8
 8004610:	4770      	bx	lr
 8004612:	bf00      	nop
 8004614:	20000578 	.word	0x20000578

08004618 <prvPortStartFirstTask>:
 8004618:	4806      	ldr	r0, [pc, #24]	; (8004634 <prvPortStartFirstTask+0x1c>)
 800461a:	6800      	ldr	r0, [r0, #0]
 800461c:	6800      	ldr	r0, [r0, #0]
 800461e:	f380 8808 	msr	MSP, r0
 8004622:	b662      	cpsie	i
 8004624:	b661      	cpsie	f
 8004626:	f3bf 8f4f 	dsb	sy
 800462a:	f3bf 8f6f 	isb	sy
 800462e:	df00      	svc	0
 8004630:	bf00      	nop
 8004632:	0000      	.short	0x0000
 8004634:	e000ed08 	.word	0xe000ed08

08004638 <pxPortInitialiseStack>:
 8004638:	b410      	push	{r4}
 800463a:	f04f 7480 	mov.w	r4, #16777216	; 0x1000000
 800463e:	4b06      	ldr	r3, [pc, #24]	; (8004658 <pxPortInitialiseStack+0x20>)
 8004640:	f021 0101 	bic.w	r1, r1, #1
 8004644:	f840 2c20 	str.w	r2, [r0, #-32]
 8004648:	e940 1402 	strd	r1, r4, [r0, #-8]
 800464c:	f840 3c0c 	str.w	r3, [r0, #-12]
 8004650:	bc10      	pop	{r4}
 8004652:	3840      	subs	r0, #64	; 0x40
 8004654:	4770      	bx	lr
 8004656:	bf00      	nop
 8004658:	080045d9 	.word	0x080045d9
 800465c:	00000000 	.word	0x00000000

08004660 <SVC_Handler>:
 8004660:	4b07      	ldr	r3, [pc, #28]	; (8004680 <pxCurrentTCBConst2>)
 8004662:	6819      	ldr	r1, [r3, #0]
 8004664:	6808      	ldr	r0, [r1, #0]
 8004666:	e8b0 0ff0 	ldmia.w	r0!, {r4, r5, r6, r7, r8, r9, sl, fp}
 800466a:	f380 8809 	msr	PSP, r0
 800466e:	f3bf 8f6f 	isb	sy
 8004672:	f04f 0000 	mov.w	r0, #0
 8004676:	f380 8811 	msr	BASEPRI, r0
 800467a:	f04e 0e0d 	orr.w	lr, lr, #13
 800467e:	4770      	bx	lr

08004680 <pxCurrentTCBConst2>:
 8004680:	200018a4 	.word	0x200018a4

08004684 <vPortEnterCritical>:
 8004684:	f04f 0350 	mov.w	r3, #80	; 0x50
 8004688:	f383 8811 	msr	BASEPRI, r3
 800468c:	f3bf 8f6f 	isb	sy
 8004690:	f3bf 8f4f 	dsb	sy
 8004694:	4a0a      	ldr	r2, [pc, #40]	; (80046c0 <vPortEnterCritical+0x3c>)
 8004696:	6813      	ldr	r3, [r2, #0]
 8004698:	3301      	adds	r3, #1
 800469a:	2b01      	cmp	r3, #1
 800469c:	6013      	str	r3, [r2, #0]
 800469e:	d000      	beq.n	80046a2 <vPortEnterCritical+0x1e>
 80046a0:	4770      	bx	lr
 80046a2:	4b08      	ldr	r3, [pc, #32]	; (80046c4 <vPortEnterCritical+0x40>)
 80046a4:	681b      	ldr	r3, [r3, #0]
 80046a6:	f013 0fff 	tst.w	r3, #255	; 0xff
 80046aa:	d0f9      	beq.n	80046a0 <vPortEnterCritical+0x1c>
 80046ac:	f04f 0350 	mov.w	r3, #80	; 0x50
 80046b0:	f383 8811 	msr	BASEPRI, r3
 80046b4:	f3bf 8f6f 	isb	sy
 80046b8:	f3bf 8f4f 	dsb	sy
 80046bc:	e7fe      	b.n	80046bc <vPortEnterCritical+0x38>
 80046be:	bf00      	nop
 80046c0:	20000578 	.word	0x20000578
 80046c4:	e000ed04 	.word	0xe000ed04

080046c8 <vPortExitCritical>:
 80046c8:	4a08      	ldr	r2, [pc, #32]	; (80046ec <vPortExitCritical+0x24>)
 80046ca:	6813      	ldr	r3, [r2, #0]
 80046cc:	b943      	cbnz	r3, 80046e0 <vPortExitCritical+0x18>
 80046ce:	f04f 0350 	mov.w	r3, #80	; 0x50
 80046d2:	f383 8811 	msr	BASEPRI, r3
 80046d6:	f3bf 8f6f 	isb	sy
 80046da:	f3bf 8f4f 	dsb	sy
 80046de:	e7fe      	b.n	80046de <vPortExitCritical+0x16>
 80046e0:	3b01      	subs	r3, #1
 80046e2:	6013      	str	r3, [r2, #0]
 80046e4:	b90b      	cbnz	r3, 80046ea <vPortExitCritical+0x22>
 80046e6:	f383 8811 	msr	BASEPRI, r3
 80046ea:	4770      	bx	lr
 80046ec:	20000578 	.word	0x20000578

080046f0 <PendSV_Handler>:
 80046f0:	f3ef 8009 	mrs	r0, PSP
 80046f4:	f3bf 8f6f 	isb	sy
 80046f8:	4b0d      	ldr	r3, [pc, #52]	; (8004730 <pxCurrentTCBConst>)
 80046fa:	681a      	ldr	r2, [r3, #0]
 80046fc:	e920 0ff0 	stmdb	r0!, {r4, r5, r6, r7, r8, r9, sl, fp}
 8004700:	6010      	str	r0, [r2, #0]
 8004702:	e92d 4008 	stmdb	sp!, {r3, lr}
 8004706:	f04f 0050 	mov.w	r0, #80	; 0x50
 800470a:	f380 8811 	msr	BASEPRI, r0
 800470e:	f001 f8e3 	bl	80058d8 <vTaskSwitchContext>
 8004712:	f04f 0000 	mov.w	r0, #0
 8004716:	f380 8811 	msr	BASEPRI, r0
 800471a:	e8bd 4008 	ldmia.w	sp!, {r3, lr}
 800471e:	6819      	ldr	r1, [r3, #0]
 8004720:	6808      	ldr	r0, [r1, #0]
 8004722:	e8b0 0ff0 	ldmia.w	r0!, {r4, r5, r6, r7, r8, r9, sl, fp}
 8004726:	f380 8809 	msr	PSP, r0
 800472a:	f3bf 8f6f 	isb	sy
 800472e:	4770      	bx	lr

08004730 <pxCurrentTCBConst>:
 8004730:	200018a4 	.word	0x200018a4

08004734 <SysTick_Handler>:
 8004734:	b508      	push	{r3, lr}
 8004736:	f04f 0350 	mov.w	r3, #80	; 0x50
 800473a:	f383 8811 	msr	BASEPRI, r3
 800473e:	f3bf 8f6f 	isb	sy
 8004742:	f3bf 8f4f 	dsb	sy
 8004746:	f000 ff79 	bl	800563c <xTaskIncrementTick>
 800474a:	b118      	cbz	r0, 8004754 <SysTick_Handler+0x20>
 800474c:	f04f 5280 	mov.w	r2, #268435456	; 0x10000000
 8004750:	4b02      	ldr	r3, [pc, #8]	; (800475c <SysTick_Handler+0x28>)
 8004752:	601a      	str	r2, [r3, #0]
 8004754:	2300      	movs	r3, #0
 8004756:	f383 8811 	msr	BASEPRI, r3
 800475a:	bd08      	pop	{r3, pc}
 800475c:	e000ed04 	.word	0xe000ed04

08004760 <xPortStartScheduler>:
 8004760:	b530      	push	{r4, r5, lr}
 8004762:	25ff      	movs	r5, #255	; 0xff
 8004764:	2407      	movs	r4, #7
 8004766:	4b27      	ldr	r3, [pc, #156]	; (8004804 <xPortStartScheduler+0xa4>)
 8004768:	b083      	sub	sp, #12
 800476a:	781a      	ldrb	r2, [r3, #0]
 800476c:	4926      	ldr	r1, [pc, #152]	; (8004808 <xPortStartScheduler+0xa8>)
 800476e:	b2d2      	uxtb	r2, r2
 8004770:	9201      	str	r2, [sp, #4]
 8004772:	701d      	strb	r5, [r3, #0]
 8004774:	781b      	ldrb	r3, [r3, #0]
 8004776:	4825      	ldr	r0, [pc, #148]	; (800480c <xPortStartScheduler+0xac>)
 8004778:	b2db      	uxtb	r3, r3
 800477a:	f88d 3003 	strb.w	r3, [sp, #3]
 800477e:	f89d 3003 	ldrb.w	r3, [sp, #3]
 8004782:	f89d 2003 	ldrb.w	r2, [sp, #3]
 8004786:	f003 0350 	and.w	r3, r3, #80	; 0x50
 800478a:	700b      	strb	r3, [r1, #0]
 800478c:	0611      	lsls	r1, r2, #24
 800478e:	6004      	str	r4, [r0, #0]
 8004790:	d510      	bpl.n	80047b4 <xPortStartScheduler+0x54>
 8004792:	2306      	movs	r3, #6
 8004794:	e000      	b.n	8004798 <xPortStartScheduler+0x38>
 8004796:	460b      	mov	r3, r1
 8004798:	f89d 2003 	ldrb.w	r2, [sp, #3]
 800479c:	1e59      	subs	r1, r3, #1
 800479e:	0052      	lsls	r2, r2, #1
 80047a0:	b2d2      	uxtb	r2, r2
 80047a2:	f88d 2003 	strb.w	r2, [sp, #3]
 80047a6:	f89d 2003 	ldrb.w	r2, [sp, #3]
 80047aa:	0612      	lsls	r2, r2, #24
 80047ac:	d4f3      	bmi.n	8004796 <xPortStartScheduler+0x36>
 80047ae:	2b03      	cmp	r3, #3
 80047b0:	6003      	str	r3, [r0, #0]
 80047b2:	d008      	beq.n	80047c6 <xPortStartScheduler+0x66>
 80047b4:	f04f 0350 	mov.w	r3, #80	; 0x50
 80047b8:	f383 8811 	msr	BASEPRI, r3
 80047bc:	f3bf 8f6f 	isb	sy
 80047c0:	f3bf 8f4f 	dsb	sy
 80047c4:	e7fe      	b.n	80047c4 <xPortStartScheduler+0x64>
 80047c6:	2400      	movs	r4, #0
 80047c8:	9901      	ldr	r1, [sp, #4]
 80047ca:	4d0e      	ldr	r5, [pc, #56]	; (8004804 <xPortStartScheduler+0xa4>)
 80047cc:	021b      	lsls	r3, r3, #8
 80047ce:	4a10      	ldr	r2, [pc, #64]	; (8004810 <xPortStartScheduler+0xb0>)
 80047d0:	b2c9      	uxtb	r1, r1
 80047d2:	f403 63e0 	and.w	r3, r3, #1792	; 0x700
 80047d6:	6003      	str	r3, [r0, #0]
 80047d8:	7029      	strb	r1, [r5, #0]
 80047da:	6813      	ldr	r3, [r2, #0]
 80047dc:	f443 0370 	orr.w	r3, r3, #15728640	; 0xf00000
 80047e0:	6013      	str	r3, [r2, #0]
 80047e2:	6813      	ldr	r3, [r2, #0]
 80047e4:	f043 4370 	orr.w	r3, r3, #4026531840	; 0xf0000000
 80047e8:	6013      	str	r3, [r2, #0]
 80047ea:	f7fd f82f 	bl	800184c <vPortSetupTimerInterrupt>
 80047ee:	4b09      	ldr	r3, [pc, #36]	; (8004814 <xPortStartScheduler+0xb4>)
 80047f0:	601c      	str	r4, [r3, #0]
 80047f2:	f7ff ff11 	bl	8004618 <prvPortStartFirstTask>
 80047f6:	f001 f86f 	bl	80058d8 <vTaskSwitchContext>
 80047fa:	f7ff feed 	bl	80045d8 <prvTaskExitError>
 80047fe:	4620      	mov	r0, r4
 8004800:	b003      	add	sp, #12
 8004802:	bd30      	pop	{r4, r5, pc}
 8004804:	e000e400 	.word	0xe000e400
 8004808:	2000189c 	.word	0x2000189c
 800480c:	200018a0 	.word	0x200018a0
 8004810:	e000ed20 	.word	0xe000ed20
 8004814:	20000578 	.word	0x20000578

08004818 <xQueueGenericReset>:
 8004818:	b1e8      	cbz	r0, 8004856 <xQueueGenericReset+0x3e>
 800481a:	b570      	push	{r4, r5, r6, lr}
 800481c:	4604      	mov	r4, r0
 800481e:	460d      	mov	r5, r1
 8004820:	2600      	movs	r6, #0
 8004822:	f7ff ff2f 	bl	8004684 <vPortEnterCritical>
 8004826:	e9d4 320f 	ldrd	r3, r2, [r4, #60]	; 0x3c
 800482a:	20ff      	movs	r0, #255	; 0xff
 800482c:	fb03 f302 	mul.w	r3, r3, r2
 8004830:	6821      	ldr	r1, [r4, #0]
 8004832:	1a9a      	subs	r2, r3, r2
 8004834:	440a      	add	r2, r1
 8004836:	440b      	add	r3, r1
 8004838:	63a6      	str	r6, [r4, #56]	; 0x38
 800483a:	60e2      	str	r2, [r4, #12]
 800483c:	f884 0044 	strb.w	r0, [r4, #68]	; 0x44
 8004840:	e9c4 3101 	strd	r3, r1, [r4, #4]
 8004844:	f884 0045 	strb.w	r0, [r4, #69]	; 0x45
 8004848:	b975      	cbnz	r5, 8004868 <xQueueGenericReset+0x50>
 800484a:	6923      	ldr	r3, [r4, #16]
 800484c:	b9ab      	cbnz	r3, 800487a <xQueueGenericReset+0x62>
 800484e:	f7ff ff3b 	bl	80046c8 <vPortExitCritical>
 8004852:	2001      	movs	r0, #1
 8004854:	bd70      	pop	{r4, r5, r6, pc}
 8004856:	f04f 0350 	mov.w	r3, #80	; 0x50
 800485a:	f383 8811 	msr	BASEPRI, r3
 800485e:	f3bf 8f6f 	isb	sy
 8004862:	f3bf 8f4f 	dsb	sy
 8004866:	e7fe      	b.n	8004866 <xQueueGenericReset+0x4e>
 8004868:	f104 0010 	add.w	r0, r4, #16
 800486c:	f7ff fe68 	bl	8004540 <vListInitialise>
 8004870:	f104 0024 	add.w	r0, r4, #36	; 0x24
 8004874:	f7ff fe64 	bl	8004540 <vListInitialise>
 8004878:	e7e9      	b.n	800484e <xQueueGenericReset+0x36>
 800487a:	f104 0010 	add.w	r0, r4, #16
 800487e:	f001 f8fd 	bl	8005a7c <xTaskRemoveFromEventList>
 8004882:	2800      	cmp	r0, #0
 8004884:	d0e3      	beq.n	800484e <xQueueGenericReset+0x36>
 8004886:	f04f 5280 	mov.w	r2, #268435456	; 0x10000000
 800488a:	4b03      	ldr	r3, [pc, #12]	; (8004898 <xQueueGenericReset+0x80>)
 800488c:	601a      	str	r2, [r3, #0]
 800488e:	f3bf 8f4f 	dsb	sy
 8004892:	f3bf 8f6f 	isb	sy
 8004896:	e7da      	b.n	800484e <xQueueGenericReset+0x36>
 8004898:	e000ed04 	.word	0xe000ed04

0800489c <xQueueGenericCreateStatic>:
 800489c:	b530      	push	{r4, r5, lr}
 800489e:	b083      	sub	sp, #12
 80048a0:	f89d 5018 	ldrb.w	r5, [sp, #24]
 80048a4:	b940      	cbnz	r0, 80048b8 <xQueueGenericCreateStatic+0x1c>
 80048a6:	f04f 0350 	mov.w	r3, #80	; 0x50
 80048aa:	f383 8811 	msr	BASEPRI, r3
 80048ae:	f3bf 8f6f 	isb	sy
 80048b2:	f3bf 8f4f 	dsb	sy
 80048b6:	e7fe      	b.n	80048b6 <xQueueGenericCreateStatic+0x1a>
 80048b8:	461c      	mov	r4, r3
 80048ba:	b17b      	cbz	r3, 80048dc <xQueueGenericCreateStatic+0x40>
 80048bc:	b37a      	cbz	r2, 800491e <xQueueGenericCreateStatic+0x82>
 80048be:	b1b1      	cbz	r1, 80048ee <xQueueGenericCreateStatic+0x52>
 80048c0:	2350      	movs	r3, #80	; 0x50
 80048c2:	9301      	str	r3, [sp, #4]
 80048c4:	9b01      	ldr	r3, [sp, #4]
 80048c6:	2b50      	cmp	r3, #80	; 0x50
 80048c8:	d01a      	beq.n	8004900 <xQueueGenericCreateStatic+0x64>
 80048ca:	f04f 0350 	mov.w	r3, #80	; 0x50
 80048ce:	f383 8811 	msr	BASEPRI, r3
 80048d2:	f3bf 8f6f 	isb	sy
 80048d6:	f3bf 8f4f 	dsb	sy
 80048da:	e7fe      	b.n	80048da <xQueueGenericCreateStatic+0x3e>
 80048dc:	f04f 0350 	mov.w	r3, #80	; 0x50
 80048e0:	f383 8811 	msr	BASEPRI, r3
 80048e4:	f3bf 8f6f 	isb	sy
 80048e8:	f3bf 8f4f 	dsb	sy
 80048ec:	e7fe      	b.n	80048ec <xQueueGenericCreateStatic+0x50>
 80048ee:	f04f 0350 	mov.w	r3, #80	; 0x50
 80048f2:	f383 8811 	msr	BASEPRI, r3
 80048f6:	f3bf 8f6f 	isb	sy
 80048fa:	f3bf 8f4f 	dsb	sy
 80048fe:	e7fe      	b.n	80048fe <xQueueGenericCreateStatic+0x62>
 8004900:	2301      	movs	r3, #1
 8004902:	f884 3046 	strb.w	r3, [r4, #70]	; 0x46
 8004906:	e9c4 010f 	strd	r0, r1, [r4, #60]	; 0x3c
 800490a:	6022      	str	r2, [r4, #0]
 800490c:	2101      	movs	r1, #1
 800490e:	4620      	mov	r0, r4
 8004910:	f7ff ff82 	bl	8004818 <xQueueGenericReset>
 8004914:	4620      	mov	r0, r4
 8004916:	f884 504c 	strb.w	r5, [r4, #76]	; 0x4c
 800491a:	b003      	add	sp, #12
 800491c:	bd30      	pop	{r4, r5, pc}
 800491e:	b141      	cbz	r1, 8004932 <xQueueGenericCreateStatic+0x96>
 8004920:	f04f 0350 	mov.w	r3, #80	; 0x50
 8004924:	f383 8811 	msr	BASEPRI, r3
 8004928:	f3bf 8f6f 	isb	sy
 800492c:	f3bf 8f4f 	dsb	sy
 8004930:	e7fe      	b.n	8004930 <xQueueGenericCreateStatic+0x94>
 8004932:	2350      	movs	r3, #80	; 0x50
 8004934:	9301      	str	r3, [sp, #4]
 8004936:	9b01      	ldr	r3, [sp, #4]
 8004938:	2b50      	cmp	r3, #80	; 0x50
 800493a:	d1c6      	bne.n	80048ca <xQueueGenericCreateStatic+0x2e>
 800493c:	2301      	movs	r3, #1
 800493e:	4622      	mov	r2, r4
 8004940:	f884 3046 	strb.w	r3, [r4, #70]	; 0x46
 8004944:	e7df      	b.n	8004906 <xQueueGenericCreateStatic+0x6a>
 8004946:	bf00      	nop

08004948 <xQueueGenericSend>:
 8004948:	e92d 4ff0 	stmdb	sp!, {r4, r5, r6, r7, r8, r9, sl, fp, lr}
 800494c:	b085      	sub	sp, #20
 800494e:	9201      	str	r2, [sp, #4]
 8004950:	2800      	cmp	r0, #0
 8004952:	f000 8125 	beq.w	8004ba0 <xQueueGenericSend+0x258>
 8004956:	2900      	cmp	r1, #0
 8004958:	f000 8115 	beq.w	8004b86 <xQueueGenericSend+0x23e>
 800495c:	2b02      	cmp	r3, #2
 800495e:	d10b      	bne.n	8004978 <xQueueGenericSend+0x30>
 8004960:	6bc2      	ldr	r2, [r0, #60]	; 0x3c
 8004962:	2a01      	cmp	r2, #1
 8004964:	d008      	beq.n	8004978 <xQueueGenericSend+0x30>
 8004966:	f04f 0350 	mov.w	r3, #80	; 0x50
 800496a:	f383 8811 	msr	BASEPRI, r3
 800496e:	f3bf 8f6f 	isb	sy
 8004972:	f3bf 8f4f 	dsb	sy
 8004976:	e7fe      	b.n	8004976 <xQueueGenericSend+0x2e>
 8004978:	4604      	mov	r4, r0
 800497a:	461f      	mov	r7, r3
 800497c:	460e      	mov	r6, r1
 800497e:	f001 f91b 	bl	8005bb8 <xTaskGetSchedulerState>
 8004982:	2800      	cmp	r0, #0
 8004984:	f040 80fc 	bne.w	8004b80 <xQueueGenericSend+0x238>
 8004988:	9b01      	ldr	r3, [sp, #4]
 800498a:	b143      	cbz	r3, 800499e <xQueueGenericSend+0x56>
 800498c:	f04f 0350 	mov.w	r3, #80	; 0x50
 8004990:	f383 8811 	msr	BASEPRI, r3
 8004994:	f3bf 8f6f 	isb	sy
 8004998:	f3bf 8f4f 	dsb	sy
 800499c:	e7fe      	b.n	800499c <xQueueGenericSend+0x54>
 800499e:	469a      	mov	sl, r3
 80049a0:	f7ff fe70 	bl	8004684 <vPortEnterCritical>
 80049a4:	6ba2      	ldr	r2, [r4, #56]	; 0x38
 80049a6:	6be3      	ldr	r3, [r4, #60]	; 0x3c
 80049a8:	f04f 0800 	mov.w	r8, #0
 80049ac:	429a      	cmp	r2, r3
 80049ae:	f8df 932c 	ldr.w	r9, [pc, #812]	; 8004cdc <xQueueGenericSend+0x394>
 80049b2:	d375      	bcc.n	8004aa0 <xQueueGenericSend+0x158>
 80049b4:	2f02      	cmp	r7, #2
 80049b6:	f000 80fc 	beq.w	8004bb2 <xQueueGenericSend+0x26a>
 80049ba:	9d01      	ldr	r5, [sp, #4]
 80049bc:	2d00      	cmp	r5, #0
 80049be:	f000 8161 	beq.w	8004c84 <xQueueGenericSend+0x33c>
 80049c2:	f1ba 0f00 	cmp.w	sl, #0
 80049c6:	d102      	bne.n	80049ce <xQueueGenericSend+0x86>
 80049c8:	a802      	add	r0, sp, #8
 80049ca:	f001 f89d 	bl	8005b08 <vTaskInternalSetTimeOutState>
 80049ce:	f7ff fe7b 	bl	80046c8 <vPortExitCritical>
 80049d2:	f000 fe25 	bl	8005620 <vTaskSuspendAll>
 80049d6:	f7ff fe55 	bl	8004684 <vPortEnterCritical>
 80049da:	f894 3044 	ldrb.w	r3, [r4, #68]	; 0x44
 80049de:	2bff      	cmp	r3, #255	; 0xff
 80049e0:	bf08      	it	eq
 80049e2:	f884 8044 	strbeq.w	r8, [r4, #68]	; 0x44
 80049e6:	f894 3045 	ldrb.w	r3, [r4, #69]	; 0x45
 80049ea:	2bff      	cmp	r3, #255	; 0xff
 80049ec:	bf08      	it	eq
 80049ee:	f884 8045 	strbeq.w	r8, [r4, #69]	; 0x45
 80049f2:	f7ff fe69 	bl	80046c8 <vPortExitCritical>
 80049f6:	a901      	add	r1, sp, #4
 80049f8:	a802      	add	r0, sp, #8
 80049fa:	f001 f891 	bl	8005b20 <xTaskCheckForTimeOut>
 80049fe:	2800      	cmp	r0, #0
 8004a00:	f040 8126 	bne.w	8004c50 <xQueueGenericSend+0x308>
 8004a04:	f7ff fe3e 	bl	8004684 <vPortEnterCritical>
 8004a08:	6ba2      	ldr	r2, [r4, #56]	; 0x38
 8004a0a:	6be3      	ldr	r3, [r4, #60]	; 0x3c
 8004a0c:	429a      	cmp	r2, r3
 8004a0e:	d06a      	beq.n	8004ae6 <xQueueGenericSend+0x19e>
 8004a10:	f7ff fe5a 	bl	80046c8 <vPortExitCritical>
 8004a14:	f7ff fe36 	bl	8004684 <vPortEnterCritical>
 8004a18:	f894 5045 	ldrb.w	r5, [r4, #69]	; 0x45
 8004a1c:	b26d      	sxtb	r5, r5
 8004a1e:	2d00      	cmp	r5, #0
 8004a20:	dd11      	ble.n	8004a46 <xQueueGenericSend+0xfe>
 8004a22:	6a63      	ldr	r3, [r4, #36]	; 0x24
 8004a24:	b17b      	cbz	r3, 8004a46 <xQueueGenericSend+0xfe>
 8004a26:	f104 0a24 	add.w	sl, r4, #36	; 0x24
 8004a2a:	e001      	b.n	8004a30 <xQueueGenericSend+0xe8>
 8004a2c:	6a63      	ldr	r3, [r4, #36]	; 0x24
 8004a2e:	b153      	cbz	r3, 8004a46 <xQueueGenericSend+0xfe>
 8004a30:	4650      	mov	r0, sl
 8004a32:	f001 f823 	bl	8005a7c <xTaskRemoveFromEventList>
 8004a36:	b108      	cbz	r0, 8004a3c <xQueueGenericSend+0xf4>
 8004a38:	f001 f8b8 	bl	8005bac <vTaskMissedYield>
 8004a3c:	3d01      	subs	r5, #1
 8004a3e:	b2eb      	uxtb	r3, r5
 8004a40:	b25d      	sxtb	r5, r3
 8004a42:	2b00      	cmp	r3, #0
 8004a44:	d1f2      	bne.n	8004a2c <xQueueGenericSend+0xe4>
 8004a46:	23ff      	movs	r3, #255	; 0xff
 8004a48:	f884 3045 	strb.w	r3, [r4, #69]	; 0x45
 8004a4c:	f7ff fe3c 	bl	80046c8 <vPortExitCritical>
 8004a50:	f7ff fe18 	bl	8004684 <vPortEnterCritical>
 8004a54:	f894 5044 	ldrb.w	r5, [r4, #68]	; 0x44
 8004a58:	b26d      	sxtb	r5, r5
 8004a5a:	2d00      	cmp	r5, #0
 8004a5c:	dd11      	ble.n	8004a82 <xQueueGenericSend+0x13a>
 8004a5e:	6923      	ldr	r3, [r4, #16]
 8004a60:	b17b      	cbz	r3, 8004a82 <xQueueGenericSend+0x13a>
 8004a62:	f104 0a10 	add.w	sl, r4, #16
 8004a66:	e001      	b.n	8004a6c <xQueueGenericSend+0x124>
 8004a68:	6923      	ldr	r3, [r4, #16]
 8004a6a:	b153      	cbz	r3, 8004a82 <xQueueGenericSend+0x13a>
 8004a6c:	4650      	mov	r0, sl
 8004a6e:	f001 f805 	bl	8005a7c <xTaskRemoveFromEventList>
 8004a72:	b108      	cbz	r0, 8004a78 <xQueueGenericSend+0x130>
 8004a74:	f001 f89a 	bl	8005bac <vTaskMissedYield>
 8004a78:	3d01      	subs	r5, #1
 8004a7a:	b2eb      	uxtb	r3, r5
 8004a7c:	b25d      	sxtb	r5, r3
 8004a7e:	2b00      	cmp	r3, #0
 8004a80:	d1f2      	bne.n	8004a68 <xQueueGenericSend+0x120>
 8004a82:	23ff      	movs	r3, #255	; 0xff
 8004a84:	f884 3044 	strb.w	r3, [r4, #68]	; 0x44
 8004a88:	f7ff fe1e 	bl	80046c8 <vPortExitCritical>
 8004a8c:	f000 fe7a 	bl	8005784 <xTaskResumeAll>
 8004a90:	f7ff fdf8 	bl	8004684 <vPortEnterCritical>
 8004a94:	6ba2      	ldr	r2, [r4, #56]	; 0x38
 8004a96:	6be3      	ldr	r3, [r4, #60]	; 0x3c
 8004a98:	f04f 0a01 	mov.w	sl, #1
 8004a9c:	429a      	cmp	r2, r3
 8004a9e:	d289      	bcs.n	80049b4 <xQueueGenericSend+0x6c>
 8004aa0:	6c22      	ldr	r2, [r4, #64]	; 0x40
 8004aa2:	6ba5      	ldr	r5, [r4, #56]	; 0x38
 8004aa4:	2a00      	cmp	r2, #0
 8004aa6:	f000 8087 	beq.w	8004bb8 <xQueueGenericSend+0x270>
 8004aaa:	4631      	mov	r1, r6
 8004aac:	2f00      	cmp	r7, #0
 8004aae:	f040 80bb 	bne.w	8004c28 <xQueueGenericSend+0x2e0>
 8004ab2:	68a0      	ldr	r0, [r4, #8]
 8004ab4:	f003 f8b6 	bl	8007c24 <memcpy>
 8004ab8:	68a3      	ldr	r3, [r4, #8]
 8004aba:	6c21      	ldr	r1, [r4, #64]	; 0x40
 8004abc:	6862      	ldr	r2, [r4, #4]
 8004abe:	440b      	add	r3, r1
 8004ac0:	4293      	cmp	r3, r2
 8004ac2:	f105 0501 	add.w	r5, r5, #1
 8004ac6:	60a3      	str	r3, [r4, #8]
 8004ac8:	d379      	bcc.n	8004bbe <xQueueGenericSend+0x276>
 8004aca:	63a5      	str	r5, [r4, #56]	; 0x38
 8004acc:	6822      	ldr	r2, [r4, #0]
 8004ace:	6a63      	ldr	r3, [r4, #36]	; 0x24
 8004ad0:	60a2      	str	r2, [r4, #8]
 8004ad2:	2b00      	cmp	r3, #0
 8004ad4:	d077      	beq.n	8004bc6 <xQueueGenericSend+0x27e>
 8004ad6:	f104 0024 	add.w	r0, r4, #36	; 0x24
 8004ada:	f000 ffcf 	bl	8005a7c <xTaskRemoveFromEventList>
 8004ade:	2800      	cmp	r0, #0
 8004ae0:	f040 8082 	bne.w	8004be8 <xQueueGenericSend+0x2a0>
 8004ae4:	e06f      	b.n	8004bc6 <xQueueGenericSend+0x27e>
 8004ae6:	f104 0a10 	add.w	sl, r4, #16
 8004aea:	f7ff fded 	bl	80046c8 <vPortExitCritical>
 8004aee:	4650      	mov	r0, sl
 8004af0:	9901      	ldr	r1, [sp, #4]
 8004af2:	f000 ff35 	bl	8005960 <vTaskPlaceOnEventList>
 8004af6:	f7ff fdc5 	bl	8004684 <vPortEnterCritical>
 8004afa:	f894 5045 	ldrb.w	r5, [r4, #69]	; 0x45
 8004afe:	b26d      	sxtb	r5, r5
 8004b00:	2d00      	cmp	r5, #0
 8004b02:	dd11      	ble.n	8004b28 <xQueueGenericSend+0x1e0>
 8004b04:	6a63      	ldr	r3, [r4, #36]	; 0x24
 8004b06:	b17b      	cbz	r3, 8004b28 <xQueueGenericSend+0x1e0>
 8004b08:	f104 0b24 	add.w	fp, r4, #36	; 0x24
 8004b0c:	e001      	b.n	8004b12 <xQueueGenericSend+0x1ca>
 8004b0e:	6a63      	ldr	r3, [r4, #36]	; 0x24
 8004b10:	b153      	cbz	r3, 8004b28 <xQueueGenericSend+0x1e0>
 8004b12:	4658      	mov	r0, fp
 8004b14:	f000 ffb2 	bl	8005a7c <xTaskRemoveFromEventList>
 8004b18:	b108      	cbz	r0, 8004b1e <xQueueGenericSend+0x1d6>
 8004b1a:	f001 f847 	bl	8005bac <vTaskMissedYield>
 8004b1e:	3d01      	subs	r5, #1
 8004b20:	b2eb      	uxtb	r3, r5
 8004b22:	b25d      	sxtb	r5, r3
 8004b24:	2b00      	cmp	r3, #0
 8004b26:	d1f2      	bne.n	8004b0e <xQueueGenericSend+0x1c6>
 8004b28:	23ff      	movs	r3, #255	; 0xff
 8004b2a:	f884 3045 	strb.w	r3, [r4, #69]	; 0x45
 8004b2e:	f7ff fdcb 	bl	80046c8 <vPortExitCritical>
 8004b32:	f7ff fda7 	bl	8004684 <vPortEnterCritical>
 8004b36:	f894 5044 	ldrb.w	r5, [r4, #68]	; 0x44
 8004b3a:	b26d      	sxtb	r5, r5
 8004b3c:	2d00      	cmp	r5, #0
 8004b3e:	dc0a      	bgt.n	8004b56 <xQueueGenericSend+0x20e>
 8004b40:	e00c      	b.n	8004b5c <xQueueGenericSend+0x214>
 8004b42:	4650      	mov	r0, sl
 8004b44:	f000 ff9a 	bl	8005a7c <xTaskRemoveFromEventList>
 8004b48:	b108      	cbz	r0, 8004b4e <xQueueGenericSend+0x206>
 8004b4a:	f001 f82f 	bl	8005bac <vTaskMissedYield>
 8004b4e:	3d01      	subs	r5, #1
 8004b50:	b2eb      	uxtb	r3, r5
 8004b52:	b25d      	sxtb	r5, r3
 8004b54:	b113      	cbz	r3, 8004b5c <xQueueGenericSend+0x214>
 8004b56:	6923      	ldr	r3, [r4, #16]
 8004b58:	2b00      	cmp	r3, #0
 8004b5a:	d1f2      	bne.n	8004b42 <xQueueGenericSend+0x1fa>
 8004b5c:	23ff      	movs	r3, #255	; 0xff
 8004b5e:	f884 3044 	strb.w	r3, [r4, #68]	; 0x44
 8004b62:	f7ff fdb1 	bl	80046c8 <vPortExitCritical>
 8004b66:	f000 fe0d 	bl	8005784 <xTaskResumeAll>
 8004b6a:	2800      	cmp	r0, #0
 8004b6c:	d190      	bne.n	8004a90 <xQueueGenericSend+0x148>
 8004b6e:	f04f 5380 	mov.w	r3, #268435456	; 0x10000000
 8004b72:	f8c9 3000 	str.w	r3, [r9]
 8004b76:	f3bf 8f4f 	dsb	sy
 8004b7a:	f3bf 8f6f 	isb	sy
 8004b7e:	e787      	b.n	8004a90 <xQueueGenericSend+0x148>
 8004b80:	f04f 0a00 	mov.w	sl, #0
 8004b84:	e70c      	b.n	80049a0 <xQueueGenericSend+0x58>
 8004b86:	6c02      	ldr	r2, [r0, #64]	; 0x40
 8004b88:	2a00      	cmp	r2, #0
 8004b8a:	f43f aee7 	beq.w	800495c <xQueueGenericSend+0x14>
 8004b8e:	f04f 0350 	mov.w	r3, #80	; 0x50
 8004b92:	f383 8811 	msr	BASEPRI, r3
 8004b96:	f3bf 8f6f 	isb	sy
 8004b9a:	f3bf 8f4f 	dsb	sy
 8004b9e:	e7fe      	b.n	8004b9e <xQueueGenericSend+0x256>
 8004ba0:	f04f 0350 	mov.w	r3, #80	; 0x50
 8004ba4:	f383 8811 	msr	BASEPRI, r3
 8004ba8:	f3bf 8f6f 	isb	sy
 8004bac:	f3bf 8f4f 	dsb	sy
 8004bb0:	e7fe      	b.n	8004bb0 <xQueueGenericSend+0x268>
 8004bb2:	6c22      	ldr	r2, [r4, #64]	; 0x40
 8004bb4:	6ba5      	ldr	r5, [r4, #56]	; 0x38
 8004bb6:	bb02      	cbnz	r2, 8004bfa <xQueueGenericSend+0x2b2>
 8004bb8:	6826      	ldr	r6, [r4, #0]
 8004bba:	3501      	adds	r5, #1
 8004bbc:	b14e      	cbz	r6, 8004bd2 <xQueueGenericSend+0x28a>
 8004bbe:	63a5      	str	r5, [r4, #56]	; 0x38
 8004bc0:	6a63      	ldr	r3, [r4, #36]	; 0x24
 8004bc2:	2b00      	cmp	r3, #0
 8004bc4:	d187      	bne.n	8004ad6 <xQueueGenericSend+0x18e>
 8004bc6:	f7ff fd7f 	bl	80046c8 <vPortExitCritical>
 8004bca:	2001      	movs	r0, #1
 8004bcc:	b005      	add	sp, #20
 8004bce:	e8bd 8ff0 	ldmia.w	sp!, {r4, r5, r6, r7, r8, r9, sl, fp, pc}
 8004bd2:	6860      	ldr	r0, [r4, #4]
 8004bd4:	f001 f800 	bl	8005bd8 <xTaskPriorityDisinherit>
 8004bd8:	63a5      	str	r5, [r4, #56]	; 0x38
 8004bda:	6a63      	ldr	r3, [r4, #36]	; 0x24
 8004bdc:	6066      	str	r6, [r4, #4]
 8004bde:	2b00      	cmp	r3, #0
 8004be0:	f47f af79 	bne.w	8004ad6 <xQueueGenericSend+0x18e>
 8004be4:	2800      	cmp	r0, #0
 8004be6:	d0ee      	beq.n	8004bc6 <xQueueGenericSend+0x27e>
 8004be8:	f04f 5280 	mov.w	r2, #268435456	; 0x10000000
 8004bec:	4b3b      	ldr	r3, [pc, #236]	; (8004cdc <xQueueGenericSend+0x394>)
 8004bee:	601a      	str	r2, [r3, #0]
 8004bf0:	f3bf 8f4f 	dsb	sy
 8004bf4:	f3bf 8f6f 	isb	sy
 8004bf8:	e7e5      	b.n	8004bc6 <xQueueGenericSend+0x27e>
 8004bfa:	4631      	mov	r1, r6
 8004bfc:	68e0      	ldr	r0, [r4, #12]
 8004bfe:	f003 f811 	bl	8007c24 <memcpy>
 8004c02:	6c23      	ldr	r3, [r4, #64]	; 0x40
 8004c04:	68e2      	ldr	r2, [r4, #12]
 8004c06:	425b      	negs	r3, r3
 8004c08:	6821      	ldr	r1, [r4, #0]
 8004c0a:	441a      	add	r2, r3
 8004c0c:	428a      	cmp	r2, r1
 8004c0e:	60e2      	str	r2, [r4, #12]
 8004c10:	d216      	bcs.n	8004c40 <xQueueGenericSend+0x2f8>
 8004c12:	6862      	ldr	r2, [r4, #4]
 8004c14:	4413      	add	r3, r2
 8004c16:	60e3      	str	r3, [r4, #12]
 8004c18:	2f02      	cmp	r7, #2
 8004c1a:	d011      	beq.n	8004c40 <xQueueGenericSend+0x2f8>
 8004c1c:	3501      	adds	r5, #1
 8004c1e:	63a5      	str	r5, [r4, #56]	; 0x38
 8004c20:	6a63      	ldr	r3, [r4, #36]	; 0x24
 8004c22:	2b00      	cmp	r3, #0
 8004c24:	d0cf      	beq.n	8004bc6 <xQueueGenericSend+0x27e>
 8004c26:	e756      	b.n	8004ad6 <xQueueGenericSend+0x18e>
 8004c28:	68e0      	ldr	r0, [r4, #12]
 8004c2a:	f002 fffb 	bl	8007c24 <memcpy>
 8004c2e:	6c23      	ldr	r3, [r4, #64]	; 0x40
 8004c30:	68e2      	ldr	r2, [r4, #12]
 8004c32:	425b      	negs	r3, r3
 8004c34:	6821      	ldr	r1, [r4, #0]
 8004c36:	441a      	add	r2, r3
 8004c38:	428a      	cmp	r2, r1
 8004c3a:	60e2      	str	r2, [r4, #12]
 8004c3c:	d2ec      	bcs.n	8004c18 <xQueueGenericSend+0x2d0>
 8004c3e:	e7e8      	b.n	8004c12 <xQueueGenericSend+0x2ca>
 8004c40:	2d00      	cmp	r5, #0
 8004c42:	d1bc      	bne.n	8004bbe <xQueueGenericSend+0x276>
 8004c44:	2301      	movs	r3, #1
 8004c46:	63a3      	str	r3, [r4, #56]	; 0x38
 8004c48:	6a63      	ldr	r3, [r4, #36]	; 0x24
 8004c4a:	2b00      	cmp	r3, #0
 8004c4c:	d0bb      	beq.n	8004bc6 <xQueueGenericSend+0x27e>
 8004c4e:	e742      	b.n	8004ad6 <xQueueGenericSend+0x18e>
 8004c50:	f7ff fd18 	bl	8004684 <vPortEnterCritical>
 8004c54:	f894 5045 	ldrb.w	r5, [r4, #69]	; 0x45
 8004c58:	b26d      	sxtb	r5, r5
 8004c5a:	2d00      	cmp	r5, #0
 8004c5c:	dd16      	ble.n	8004c8c <xQueueGenericSend+0x344>
 8004c5e:	6a63      	ldr	r3, [r4, #36]	; 0x24
 8004c60:	b1a3      	cbz	r3, 8004c8c <xQueueGenericSend+0x344>
 8004c62:	f104 0624 	add.w	r6, r4, #36	; 0x24
 8004c66:	e005      	b.n	8004c74 <xQueueGenericSend+0x32c>
 8004c68:	3d01      	subs	r5, #1
 8004c6a:	b2eb      	uxtb	r3, r5
 8004c6c:	b25d      	sxtb	r5, r3
 8004c6e:	b16b      	cbz	r3, 8004c8c <xQueueGenericSend+0x344>
 8004c70:	6a63      	ldr	r3, [r4, #36]	; 0x24
 8004c72:	b15b      	cbz	r3, 8004c8c <xQueueGenericSend+0x344>
 8004c74:	4630      	mov	r0, r6
 8004c76:	f000 ff01 	bl	8005a7c <xTaskRemoveFromEventList>
 8004c7a:	2800      	cmp	r0, #0
 8004c7c:	d0f4      	beq.n	8004c68 <xQueueGenericSend+0x320>
 8004c7e:	f000 ff95 	bl	8005bac <vTaskMissedYield>
 8004c82:	e7f1      	b.n	8004c68 <xQueueGenericSend+0x320>
 8004c84:	f7ff fd20 	bl	80046c8 <vPortExitCritical>
 8004c88:	4628      	mov	r0, r5
 8004c8a:	e79f      	b.n	8004bcc <xQueueGenericSend+0x284>
 8004c8c:	23ff      	movs	r3, #255	; 0xff
 8004c8e:	f884 3045 	strb.w	r3, [r4, #69]	; 0x45
 8004c92:	f7ff fd19 	bl	80046c8 <vPortExitCritical>
 8004c96:	f7ff fcf5 	bl	8004684 <vPortEnterCritical>
 8004c9a:	f894 5044 	ldrb.w	r5, [r4, #68]	; 0x44
 8004c9e:	b26d      	sxtb	r5, r5
 8004ca0:	2d00      	cmp	r5, #0
 8004ca2:	dd12      	ble.n	8004cca <xQueueGenericSend+0x382>
 8004ca4:	6923      	ldr	r3, [r4, #16]
 8004ca6:	b183      	cbz	r3, 8004cca <xQueueGenericSend+0x382>
 8004ca8:	f104 0610 	add.w	r6, r4, #16
 8004cac:	e005      	b.n	8004cba <xQueueGenericSend+0x372>
 8004cae:	3d01      	subs	r5, #1
 8004cb0:	b2eb      	uxtb	r3, r5
 8004cb2:	b25d      	sxtb	r5, r3
 8004cb4:	b14b      	cbz	r3, 8004cca <xQueueGenericSend+0x382>
 8004cb6:	6923      	ldr	r3, [r4, #16]
 8004cb8:	b13b      	cbz	r3, 8004cca <xQueueGenericSend+0x382>
 8004cba:	4630      	mov	r0, r6
 8004cbc:	f000 fede 	bl	8005a7c <xTaskRemoveFromEventList>
 8004cc0:	2800      	cmp	r0, #0
 8004cc2:	d0f4      	beq.n	8004cae <xQueueGenericSend+0x366>
 8004cc4:	f000 ff72 	bl	8005bac <vTaskMissedYield>
 8004cc8:	e7f1      	b.n	8004cae <xQueueGenericSend+0x366>
 8004cca:	23ff      	movs	r3, #255	; 0xff
 8004ccc:	f884 3044 	strb.w	r3, [r4, #68]	; 0x44
 8004cd0:	f7ff fcfa 	bl	80046c8 <vPortExitCritical>
 8004cd4:	f000 fd56 	bl	8005784 <xTaskResumeAll>
 8004cd8:	2000      	movs	r0, #0
 8004cda:	e777      	b.n	8004bcc <xQueueGenericSend+0x284>
 8004cdc:	e000ed04 	.word	0xe000ed04

08004ce0 <xQueueReceive>:
 8004ce0:	e92d 47f0 	stmdb	sp!, {r4, r5, r6, r7, r8, r9, sl, lr}
 8004ce4:	b084      	sub	sp, #16
 8004ce6:	9201      	str	r2, [sp, #4]
 8004ce8:	2800      	cmp	r0, #0
 8004cea:	f000 8143 	beq.w	8004f74 <xQueueReceive+0x294>
 8004cee:	2900      	cmp	r1, #0
 8004cf0:	f000 8133 	beq.w	8004f5a <xQueueReceive+0x27a>
 8004cf4:	4604      	mov	r4, r0
 8004cf6:	460f      	mov	r7, r1
 8004cf8:	f000 ff5e 	bl	8005bb8 <xTaskGetSchedulerState>
 8004cfc:	b950      	cbnz	r0, 8004d14 <xQueueReceive+0x34>
 8004cfe:	9b01      	ldr	r3, [sp, #4]
 8004d00:	b143      	cbz	r3, 8004d14 <xQueueReceive+0x34>
 8004d02:	f04f 0350 	mov.w	r3, #80	; 0x50
 8004d06:	f383 8811 	msr	BASEPRI, r3
 8004d0a:	f3bf 8f6f 	isb	sy
 8004d0e:	f3bf 8f4f 	dsb	sy
 8004d12:	e7fe      	b.n	8004d12 <xQueueReceive+0x32>
 8004d14:	f7ff fcb6 	bl	8004684 <vPortEnterCritical>
 8004d18:	6ba5      	ldr	r5, [r4, #56]	; 0x38
 8004d1a:	2d00      	cmp	r5, #0
 8004d1c:	f040 80ba 	bne.w	8004e94 <xQueueReceive+0x1b4>
 8004d20:	9b01      	ldr	r3, [sp, #4]
 8004d22:	2b00      	cmp	r3, #0
 8004d24:	d06a      	beq.n	8004dfc <xQueueReceive+0x11c>
 8004d26:	a802      	add	r0, sp, #8
 8004d28:	46a8      	mov	r8, r5
 8004d2a:	f000 feed 	bl	8005b08 <vTaskInternalSetTimeOutState>
 8004d2e:	f8df 9274 	ldr.w	r9, [pc, #628]	; 8004fa4 <xQueueReceive+0x2c4>
 8004d32:	f104 0624 	add.w	r6, r4, #36	; 0x24
 8004d36:	f7ff fcc7 	bl	80046c8 <vPortExitCritical>
 8004d3a:	f000 fc71 	bl	8005620 <vTaskSuspendAll>
 8004d3e:	f7ff fca1 	bl	8004684 <vPortEnterCritical>
 8004d42:	f894 3044 	ldrb.w	r3, [r4, #68]	; 0x44
 8004d46:	2bff      	cmp	r3, #255	; 0xff
 8004d48:	bf08      	it	eq
 8004d4a:	f884 8044 	strbeq.w	r8, [r4, #68]	; 0x44
 8004d4e:	f894 3045 	ldrb.w	r3, [r4, #69]	; 0x45
 8004d52:	2bff      	cmp	r3, #255	; 0xff
 8004d54:	bf08      	it	eq
 8004d56:	f884 8045 	strbeq.w	r8, [r4, #69]	; 0x45
 8004d5a:	f7ff fcb5 	bl	80046c8 <vPortExitCritical>
 8004d5e:	a901      	add	r1, sp, #4
 8004d60:	a802      	add	r0, sp, #8
 8004d62:	f000 fedd 	bl	8005b20 <xTaskCheckForTimeOut>
 8004d66:	2800      	cmp	r0, #0
 8004d68:	d14e      	bne.n	8004e08 <xQueueReceive+0x128>
 8004d6a:	f7ff fc8b 	bl	8004684 <vPortEnterCritical>
 8004d6e:	6ba3      	ldr	r3, [r4, #56]	; 0x38
 8004d70:	2b00      	cmp	r3, #0
 8004d72:	f000 80a8 	beq.w	8004ec6 <xQueueReceive+0x1e6>
 8004d76:	f7ff fca7 	bl	80046c8 <vPortExitCritical>
 8004d7a:	f7ff fc83 	bl	8004684 <vPortEnterCritical>
 8004d7e:	f894 5045 	ldrb.w	r5, [r4, #69]	; 0x45
 8004d82:	b26d      	sxtb	r5, r5
 8004d84:	2d00      	cmp	r5, #0
 8004d86:	dc0a      	bgt.n	8004d9e <xQueueReceive+0xbe>
 8004d88:	e00c      	b.n	8004da4 <xQueueReceive+0xc4>
 8004d8a:	4630      	mov	r0, r6
 8004d8c:	f000 fe76 	bl	8005a7c <xTaskRemoveFromEventList>
 8004d90:	b108      	cbz	r0, 8004d96 <xQueueReceive+0xb6>
 8004d92:	f000 ff0b 	bl	8005bac <vTaskMissedYield>
 8004d96:	3d01      	subs	r5, #1
 8004d98:	b2eb      	uxtb	r3, r5
 8004d9a:	b25d      	sxtb	r5, r3
 8004d9c:	b113      	cbz	r3, 8004da4 <xQueueReceive+0xc4>
 8004d9e:	6a63      	ldr	r3, [r4, #36]	; 0x24
 8004da0:	2b00      	cmp	r3, #0
 8004da2:	d1f2      	bne.n	8004d8a <xQueueReceive+0xaa>
 8004da4:	23ff      	movs	r3, #255	; 0xff
 8004da6:	f884 3045 	strb.w	r3, [r4, #69]	; 0x45
 8004daa:	f7ff fc8d 	bl	80046c8 <vPortExitCritical>
 8004dae:	f7ff fc69 	bl	8004684 <vPortEnterCritical>
 8004db2:	f894 5044 	ldrb.w	r5, [r4, #68]	; 0x44
 8004db6:	b26d      	sxtb	r5, r5
 8004db8:	2d00      	cmp	r5, #0
 8004dba:	dd10      	ble.n	8004dde <xQueueReceive+0xfe>
 8004dbc:	6923      	ldr	r3, [r4, #16]
 8004dbe:	b173      	cbz	r3, 8004dde <xQueueReceive+0xfe>
 8004dc0:	f104 0a10 	add.w	sl, r4, #16
 8004dc4:	4650      	mov	r0, sl
 8004dc6:	f000 fe59 	bl	8005a7c <xTaskRemoveFromEventList>
 8004dca:	b108      	cbz	r0, 8004dd0 <xQueueReceive+0xf0>
 8004dcc:	f000 feee 	bl	8005bac <vTaskMissedYield>
 8004dd0:	3d01      	subs	r5, #1
 8004dd2:	b2eb      	uxtb	r3, r5
 8004dd4:	b25d      	sxtb	r5, r3
 8004dd6:	b113      	cbz	r3, 8004dde <xQueueReceive+0xfe>
 8004dd8:	6923      	ldr	r3, [r4, #16]
 8004dda:	2b00      	cmp	r3, #0
 8004ddc:	d1f2      	bne.n	8004dc4 <xQueueReceive+0xe4>
 8004dde:	23ff      	movs	r3, #255	; 0xff
 8004de0:	f884 3044 	strb.w	r3, [r4, #68]	; 0x44
 8004de4:	f7ff fc70 	bl	80046c8 <vPortExitCritical>
 8004de8:	f000 fccc 	bl	8005784 <xTaskResumeAll>
 8004dec:	f7ff fc4a 	bl	8004684 <vPortEnterCritical>
 8004df0:	6ba5      	ldr	r5, [r4, #56]	; 0x38
 8004df2:	2d00      	cmp	r5, #0
 8004df4:	d14e      	bne.n	8004e94 <xQueueReceive+0x1b4>
 8004df6:	9b01      	ldr	r3, [sp, #4]
 8004df8:	2b00      	cmp	r3, #0
 8004dfa:	d19c      	bne.n	8004d36 <xQueueReceive+0x56>
 8004dfc:	f7ff fc64 	bl	80046c8 <vPortExitCritical>
 8004e00:	2000      	movs	r0, #0
 8004e02:	b004      	add	sp, #16
 8004e04:	e8bd 87f0 	ldmia.w	sp!, {r4, r5, r6, r7, r8, r9, sl, pc}
 8004e08:	f7ff fc3c 	bl	8004684 <vPortEnterCritical>
 8004e0c:	f894 5045 	ldrb.w	r5, [r4, #69]	; 0x45
 8004e10:	b26d      	sxtb	r5, r5
 8004e12:	2d00      	cmp	r5, #0
 8004e14:	dc0a      	bgt.n	8004e2c <xQueueReceive+0x14c>
 8004e16:	e00c      	b.n	8004e32 <xQueueReceive+0x152>
 8004e18:	4630      	mov	r0, r6
 8004e1a:	f000 fe2f 	bl	8005a7c <xTaskRemoveFromEventList>
 8004e1e:	b108      	cbz	r0, 8004e24 <xQueueReceive+0x144>
 8004e20:	f000 fec4 	bl	8005bac <vTaskMissedYield>
 8004e24:	3d01      	subs	r5, #1
 8004e26:	b2eb      	uxtb	r3, r5
 8004e28:	b25d      	sxtb	r5, r3
 8004e2a:	b113      	cbz	r3, 8004e32 <xQueueReceive+0x152>
 8004e2c:	6a63      	ldr	r3, [r4, #36]	; 0x24
 8004e2e:	2b00      	cmp	r3, #0
 8004e30:	d1f2      	bne.n	8004e18 <xQueueReceive+0x138>
 8004e32:	23ff      	movs	r3, #255	; 0xff
 8004e34:	f884 3045 	strb.w	r3, [r4, #69]	; 0x45
 8004e38:	f7ff fc46 	bl	80046c8 <vPortExitCritical>
 8004e3c:	f7ff fc22 	bl	8004684 <vPortEnterCritical>
 8004e40:	f894 5044 	ldrb.w	r5, [r4, #68]	; 0x44
 8004e44:	b26d      	sxtb	r5, r5
 8004e46:	2d00      	cmp	r5, #0
 8004e48:	dd11      	ble.n	8004e6e <xQueueReceive+0x18e>
 8004e4a:	6923      	ldr	r3, [r4, #16]
 8004e4c:	b17b      	cbz	r3, 8004e6e <xQueueReceive+0x18e>
 8004e4e:	f104 0a10 	add.w	sl, r4, #16
 8004e52:	e001      	b.n	8004e58 <xQueueReceive+0x178>
 8004e54:	6923      	ldr	r3, [r4, #16]
 8004e56:	b153      	cbz	r3, 8004e6e <xQueueReceive+0x18e>
 8004e58:	4650      	mov	r0, sl
 8004e5a:	f000 fe0f 	bl	8005a7c <xTaskRemoveFromEventList>
 8004e5e:	b108      	cbz	r0, 8004e64 <xQueueReceive+0x184>
 8004e60:	f000 fea4 	bl	8005bac <vTaskMissedYield>
 8004e64:	3d01      	subs	r5, #1
 8004e66:	b2eb      	uxtb	r3, r5
 8004e68:	b25d      	sxtb	r5, r3
 8004e6a:	2b00      	cmp	r3, #0
 8004e6c:	d1f2      	bne.n	8004e54 <xQueueReceive+0x174>
 8004e6e:	23ff      	movs	r3, #255	; 0xff
 8004e70:	f884 3044 	strb.w	r3, [r4, #68]	; 0x44
 8004e74:	f7ff fc28 	bl	80046c8 <vPortExitCritical>
 8004e78:	f000 fc84 	bl	8005784 <xTaskResumeAll>
 8004e7c:	f7ff fc02 	bl	8004684 <vPortEnterCritical>
 8004e80:	6ba3      	ldr	r3, [r4, #56]	; 0x38
 8004e82:	2b00      	cmp	r3, #0
 8004e84:	d0ba      	beq.n	8004dfc <xQueueReceive+0x11c>
 8004e86:	f7ff fc1f 	bl	80046c8 <vPortExitCritical>
 8004e8a:	f7ff fbfb 	bl	8004684 <vPortEnterCritical>
 8004e8e:	6ba5      	ldr	r5, [r4, #56]	; 0x38
 8004e90:	2d00      	cmp	r5, #0
 8004e92:	d0b0      	beq.n	8004df6 <xQueueReceive+0x116>
 8004e94:	6c22      	ldr	r2, [r4, #64]	; 0x40
 8004e96:	b15a      	cbz	r2, 8004eb0 <xQueueReceive+0x1d0>
 8004e98:	68e1      	ldr	r1, [r4, #12]
 8004e9a:	6863      	ldr	r3, [r4, #4]
 8004e9c:	4411      	add	r1, r2
 8004e9e:	4299      	cmp	r1, r3
 8004ea0:	60e1      	str	r1, [r4, #12]
 8004ea2:	d302      	bcc.n	8004eaa <xQueueReceive+0x1ca>
 8004ea4:	6823      	ldr	r3, [r4, #0]
 8004ea6:	4619      	mov	r1, r3
 8004ea8:	60e3      	str	r3, [r4, #12]
 8004eaa:	4638      	mov	r0, r7
 8004eac:	f002 feba 	bl	8007c24 <memcpy>
 8004eb0:	3d01      	subs	r5, #1
 8004eb2:	63a5      	str	r5, [r4, #56]	; 0x38
 8004eb4:	6923      	ldr	r3, [r4, #16]
 8004eb6:	2b00      	cmp	r3, #0
 8004eb8:	d165      	bne.n	8004f86 <xQueueReceive+0x2a6>
 8004eba:	f7ff fc05 	bl	80046c8 <vPortExitCritical>
 8004ebe:	2001      	movs	r0, #1
 8004ec0:	b004      	add	sp, #16
 8004ec2:	e8bd 87f0 	ldmia.w	sp!, {r4, r5, r6, r7, r8, r9, sl, pc}
 8004ec6:	f7ff fbff 	bl	80046c8 <vPortExitCritical>
 8004eca:	9901      	ldr	r1, [sp, #4]
 8004ecc:	4630      	mov	r0, r6
 8004ece:	f000 fd47 	bl	8005960 <vTaskPlaceOnEventList>
 8004ed2:	f7ff fbd7 	bl	8004684 <vPortEnterCritical>
 8004ed6:	f894 5045 	ldrb.w	r5, [r4, #69]	; 0x45
 8004eda:	b26d      	sxtb	r5, r5
 8004edc:	2d00      	cmp	r5, #0
 8004ede:	dc0a      	bgt.n	8004ef6 <xQueueReceive+0x216>
 8004ee0:	e00c      	b.n	8004efc <xQueueReceive+0x21c>
 8004ee2:	4630      	mov	r0, r6
 8004ee4:	f000 fdca 	bl	8005a7c <xTaskRemoveFromEventList>
 8004ee8:	b108      	cbz	r0, 8004eee <xQueueReceive+0x20e>
 8004eea:	f000 fe5f 	bl	8005bac <vTaskMissedYield>
 8004eee:	3d01      	subs	r5, #1
 8004ef0:	b2eb      	uxtb	r3, r5
 8004ef2:	b25d      	sxtb	r5, r3
 8004ef4:	b113      	cbz	r3, 8004efc <xQueueReceive+0x21c>
 8004ef6:	6a63      	ldr	r3, [r4, #36]	; 0x24
 8004ef8:	2b00      	cmp	r3, #0
 8004efa:	d1f2      	bne.n	8004ee2 <xQueueReceive+0x202>
 8004efc:	23ff      	movs	r3, #255	; 0xff
 8004efe:	f884 3045 	strb.w	r3, [r4, #69]	; 0x45
 8004f02:	f7ff fbe1 	bl	80046c8 <vPortExitCritical>
 8004f06:	f7ff fbbd 	bl	8004684 <vPortEnterCritical>
 8004f0a:	f894 5044 	ldrb.w	r5, [r4, #68]	; 0x44
 8004f0e:	b26d      	sxtb	r5, r5
 8004f10:	2d00      	cmp	r5, #0
 8004f12:	dd10      	ble.n	8004f36 <xQueueReceive+0x256>
 8004f14:	6923      	ldr	r3, [r4, #16]
 8004f16:	b173      	cbz	r3, 8004f36 <xQueueReceive+0x256>
 8004f18:	f104 0a10 	add.w	sl, r4, #16
 8004f1c:	4650      	mov	r0, sl
 8004f1e:	f000 fdad 	bl	8005a7c <xTaskRemoveFromEventList>
 8004f22:	b108      	cbz	r0, 8004f28 <xQueueReceive+0x248>
 8004f24:	f000 fe42 	bl	8005bac <vTaskMissedYield>
 8004f28:	3d01      	subs	r5, #1
 8004f2a:	b2eb      	uxtb	r3, r5
 8004f2c:	b25d      	sxtb	r5, r3
 8004f2e:	b113      	cbz	r3, 8004f36 <xQueueReceive+0x256>
 8004f30:	6923      	ldr	r3, [r4, #16]
 8004f32:	2b00      	cmp	r3, #0
 8004f34:	d1f2      	bne.n	8004f1c <xQueueReceive+0x23c>
 8004f36:	23ff      	movs	r3, #255	; 0xff
 8004f38:	f884 3044 	strb.w	r3, [r4, #68]	; 0x44
 8004f3c:	f7ff fbc4 	bl	80046c8 <vPortExitCritical>
 8004f40:	f000 fc20 	bl	8005784 <xTaskResumeAll>
 8004f44:	2800      	cmp	r0, #0
 8004f46:	d1a0      	bne.n	8004e8a <xQueueReceive+0x1aa>
 8004f48:	f04f 5380 	mov.w	r3, #268435456	; 0x10000000
 8004f4c:	f8c9 3000 	str.w	r3, [r9]
 8004f50:	f3bf 8f4f 	dsb	sy
 8004f54:	f3bf 8f6f 	isb	sy
 8004f58:	e797      	b.n	8004e8a <xQueueReceive+0x1aa>
 8004f5a:	6c03      	ldr	r3, [r0, #64]	; 0x40
 8004f5c:	2b00      	cmp	r3, #0
 8004f5e:	f43f aec9 	beq.w	8004cf4 <xQueueReceive+0x14>
 8004f62:	f04f 0350 	mov.w	r3, #80	; 0x50
 8004f66:	f383 8811 	msr	BASEPRI, r3
 8004f6a:	f3bf 8f6f 	isb	sy
 8004f6e:	f3bf 8f4f 	dsb	sy
 8004f72:	e7fe      	b.n	8004f72 <xQueueReceive+0x292>
 8004f74:	f04f 0350 	mov.w	r3, #80	; 0x50
 8004f78:	f383 8811 	msr	BASEPRI, r3
 8004f7c:	f3bf 8f6f 	isb	sy
 8004f80:	f3bf 8f4f 	dsb	sy
 8004f84:	e7fe      	b.n	8004f84 <xQueueReceive+0x2a4>
 8004f86:	f104 0010 	add.w	r0, r4, #16
 8004f8a:	f000 fd77 	bl	8005a7c <xTaskRemoveFromEventList>
 8004f8e:	2800      	cmp	r0, #0
 8004f90:	d093      	beq.n	8004eba <xQueueReceive+0x1da>
 8004f92:	f04f 5280 	mov.w	r2, #268435456	; 0x10000000
 8004f96:	4b03      	ldr	r3, [pc, #12]	; (8004fa4 <xQueueReceive+0x2c4>)
 8004f98:	601a      	str	r2, [r3, #0]
 8004f9a:	f3bf 8f4f 	dsb	sy
 8004f9e:	f3bf 8f6f 	isb	sy
 8004fa2:	e78a      	b.n	8004eba <xQueueReceive+0x1da>
 8004fa4:	e000ed04 	.word	0xe000ed04

08004fa8 <vQueueAddToRegistry>:
 8004fa8:	4b13      	ldr	r3, [pc, #76]	; (8004ff8 <vQueueAddToRegistry+0x50>)
 8004faa:	681a      	ldr	r2, [r3, #0]
 8004fac:	b17a      	cbz	r2, 8004fce <vQueueAddToRegistry+0x26>
 8004fae:	689a      	ldr	r2, [r3, #8]
 8004fb0:	b1aa      	cbz	r2, 8004fde <vQueueAddToRegistry+0x36>
 8004fb2:	691a      	ldr	r2, [r3, #16]
 8004fb4:	b1aa      	cbz	r2, 8004fe2 <vQueueAddToRegistry+0x3a>
 8004fb6:	699a      	ldr	r2, [r3, #24]
 8004fb8:	b1aa      	cbz	r2, 8004fe6 <vQueueAddToRegistry+0x3e>
 8004fba:	6a1a      	ldr	r2, [r3, #32]
 8004fbc:	b1aa      	cbz	r2, 8004fea <vQueueAddToRegistry+0x42>
 8004fbe:	6a9a      	ldr	r2, [r3, #40]	; 0x28
 8004fc0:	b1aa      	cbz	r2, 8004fee <vQueueAddToRegistry+0x46>
 8004fc2:	6b1a      	ldr	r2, [r3, #48]	; 0x30
 8004fc4:	b112      	cbz	r2, 8004fcc <vQueueAddToRegistry+0x24>
 8004fc6:	6b9a      	ldr	r2, [r3, #56]	; 0x38
 8004fc8:	b19a      	cbz	r2, 8004ff2 <vQueueAddToRegistry+0x4a>
 8004fca:	4770      	bx	lr
 8004fcc:	2206      	movs	r2, #6
 8004fce:	b410      	push	{r4}
 8004fd0:	eb03 04c2 	add.w	r4, r3, r2, lsl #3
 8004fd4:	6060      	str	r0, [r4, #4]
 8004fd6:	f843 1032 	str.w	r1, [r3, r2, lsl #3]
 8004fda:	bc10      	pop	{r4}
 8004fdc:	4770      	bx	lr
 8004fde:	2201      	movs	r2, #1
 8004fe0:	e7f5      	b.n	8004fce <vQueueAddToRegistry+0x26>
 8004fe2:	2202      	movs	r2, #2
 8004fe4:	e7f3      	b.n	8004fce <vQueueAddToRegistry+0x26>
 8004fe6:	2203      	movs	r2, #3
 8004fe8:	e7f1      	b.n	8004fce <vQueueAddToRegistry+0x26>
 8004fea:	2204      	movs	r2, #4
 8004fec:	e7ef      	b.n	8004fce <vQueueAddToRegistry+0x26>
 8004fee:	2205      	movs	r2, #5
 8004ff0:	e7ed      	b.n	8004fce <vQueueAddToRegistry+0x26>
 8004ff2:	2207      	movs	r2, #7
 8004ff4:	e7eb      	b.n	8004fce <vQueueAddToRegistry+0x26>
 8004ff6:	bf00      	nop
 8004ff8:	20002274 	.word	0x20002274

08004ffc <vQueueWaitForMessageRestricted>:
 8004ffc:	b570      	push	{r4, r5, r6, lr}
 8004ffe:	4605      	mov	r5, r0
 8005000:	460c      	mov	r4, r1
 8005002:	4616      	mov	r6, r2
 8005004:	f7ff fb3e 	bl	8004684 <vPortEnterCritical>
 8005008:	f895 3044 	ldrb.w	r3, [r5, #68]	; 0x44
 800500c:	2bff      	cmp	r3, #255	; 0xff
 800500e:	bf04      	itt	eq
 8005010:	2300      	moveq	r3, #0
 8005012:	f885 3044 	strbeq.w	r3, [r5, #68]	; 0x44
 8005016:	f895 3045 	ldrb.w	r3, [r5, #69]	; 0x45
 800501a:	2bff      	cmp	r3, #255	; 0xff
 800501c:	bf04      	itt	eq
 800501e:	2300      	moveq	r3, #0
 8005020:	f885 3045 	strbeq.w	r3, [r5, #69]	; 0x45
 8005024:	f7ff fb50 	bl	80046c8 <vPortExitCritical>
 8005028:	6bab      	ldr	r3, [r5, #56]	; 0x38
 800502a:	b92b      	cbnz	r3, 8005038 <vQueueWaitForMessageRestricted+0x3c>
 800502c:	4632      	mov	r2, r6
 800502e:	4621      	mov	r1, r4
 8005030:	f105 0024 	add.w	r0, r5, #36	; 0x24
 8005034:	f000 fcd8 	bl	80059e8 <vTaskPlaceOnEventListRestricted>
 8005038:	f7ff fb24 	bl	8004684 <vPortEnterCritical>
 800503c:	f895 4045 	ldrb.w	r4, [r5, #69]	; 0x45
 8005040:	b264      	sxtb	r4, r4
 8005042:	2c00      	cmp	r4, #0
 8005044:	dd16      	ble.n	8005074 <vQueueWaitForMessageRestricted+0x78>
 8005046:	6a6b      	ldr	r3, [r5, #36]	; 0x24
 8005048:	b1a3      	cbz	r3, 8005074 <vQueueWaitForMessageRestricted+0x78>
 800504a:	f105 0624 	add.w	r6, r5, #36	; 0x24
 800504e:	e005      	b.n	800505c <vQueueWaitForMessageRestricted+0x60>
 8005050:	3c01      	subs	r4, #1
 8005052:	b2e3      	uxtb	r3, r4
 8005054:	b25c      	sxtb	r4, r3
 8005056:	b16b      	cbz	r3, 8005074 <vQueueWaitForMessageRestricted+0x78>
 8005058:	6a6b      	ldr	r3, [r5, #36]	; 0x24
 800505a:	b15b      	cbz	r3, 8005074 <vQueueWaitForMessageRestricted+0x78>
 800505c:	4630      	mov	r0, r6
 800505e:	f000 fd0d 	bl	8005a7c <xTaskRemoveFromEventList>
 8005062:	2800      	cmp	r0, #0
 8005064:	d0f4      	beq.n	8005050 <vQueueWaitForMessageRestricted+0x54>
 8005066:	3c01      	subs	r4, #1
 8005068:	f000 fda0 	bl	8005bac <vTaskMissedYield>
 800506c:	b2e3      	uxtb	r3, r4
 800506e:	b25c      	sxtb	r4, r3
 8005070:	2b00      	cmp	r3, #0
 8005072:	d1f1      	bne.n	8005058 <vQueueWaitForMessageRestricted+0x5c>
 8005074:	23ff      	movs	r3, #255	; 0xff
 8005076:	f885 3045 	strb.w	r3, [r5, #69]	; 0x45
 800507a:	f7ff fb25 	bl	80046c8 <vPortExitCritical>
 800507e:	f7ff fb01 	bl	8004684 <vPortEnterCritical>
 8005082:	f895 4044 	ldrb.w	r4, [r5, #68]	; 0x44
 8005086:	b264      	sxtb	r4, r4
 8005088:	2c00      	cmp	r4, #0
 800508a:	dd16      	ble.n	80050ba <vQueueWaitForMessageRestricted+0xbe>
 800508c:	692b      	ldr	r3, [r5, #16]
 800508e:	b1a3      	cbz	r3, 80050ba <vQueueWaitForMessageRestricted+0xbe>
 8005090:	f105 0610 	add.w	r6, r5, #16
 8005094:	e005      	b.n	80050a2 <vQueueWaitForMessageRestricted+0xa6>
 8005096:	3c01      	subs	r4, #1
 8005098:	b2e3      	uxtb	r3, r4
 800509a:	b25c      	sxtb	r4, r3
 800509c:	b16b      	cbz	r3, 80050ba <vQueueWaitForMessageRestricted+0xbe>
 800509e:	692b      	ldr	r3, [r5, #16]
 80050a0:	b15b      	cbz	r3, 80050ba <vQueueWaitForMessageRestricted+0xbe>
 80050a2:	4630      	mov	r0, r6
 80050a4:	f000 fcea 	bl	8005a7c <xTaskRemoveFromEventList>
 80050a8:	2800      	cmp	r0, #0
 80050aa:	d0f4      	beq.n	8005096 <vQueueWaitForMessageRestricted+0x9a>
 80050ac:	3c01      	subs	r4, #1
 80050ae:	f000 fd7d 	bl	8005bac <vTaskMissedYield>
 80050b2:	b2e3      	uxtb	r3, r4
 80050b4:	b25c      	sxtb	r4, r3
 80050b6:	2b00      	cmp	r3, #0
 80050b8:	d1f1      	bne.n	800509e <vQueueWaitForMessageRestricted+0xa2>
 80050ba:	23ff      	movs	r3, #255	; 0xff
 80050bc:	f885 3044 	strb.w	r3, [r5, #68]	; 0x44
 80050c0:	e8bd 4070 	ldmia.w	sp!, {r4, r5, r6, lr}
 80050c4:	f7ff bb00 	b.w	80046c8 <vPortExitCritical>

080050c8 <prvAddNewTaskToReadyList>:
 80050c8:	e92d 41f0 	stmdb	sp!, {r4, r5, r6, r7, r8, lr}
 80050cc:	4605      	mov	r5, r0
 80050ce:	f7ff fad9 	bl	8004684 <vPortEnterCritical>
 80050d2:	4a33      	ldr	r2, [pc, #204]	; (80051a0 <prvAddNewTaskToReadyList+0xd8>)
 80050d4:	4e33      	ldr	r6, [pc, #204]	; (80051a4 <prvAddNewTaskToReadyList+0xdc>)
 80050d6:	6813      	ldr	r3, [r2, #0]
 80050d8:	3301      	adds	r3, #1
 80050da:	6013      	str	r3, [r2, #0]
 80050dc:	6833      	ldr	r3, [r6, #0]
 80050de:	2b00      	cmp	r3, #0
 80050e0:	d031      	beq.n	8005146 <prvAddNewTaskToReadyList+0x7e>
 80050e2:	4c31      	ldr	r4, [pc, #196]	; (80051a8 <prvAddNewTaskToReadyList+0xe0>)
 80050e4:	6ae8      	ldr	r0, [r5, #44]	; 0x2c
 80050e6:	6823      	ldr	r3, [r4, #0]
 80050e8:	b333      	cbz	r3, 8005138 <prvAddNewTaskToReadyList+0x70>
 80050ea:	4f30      	ldr	r7, [pc, #192]	; (80051ac <prvAddNewTaskToReadyList+0xe4>)
 80050ec:	4930      	ldr	r1, [pc, #192]	; (80051b0 <prvAddNewTaskToReadyList+0xe8>)
 80050ee:	4a31      	ldr	r2, [pc, #196]	; (80051b4 <prvAddNewTaskToReadyList+0xec>)
 80050f0:	f8d1 c000 	ldr.w	ip, [r1]
 80050f4:	6813      	ldr	r3, [r2, #0]
 80050f6:	4584      	cmp	ip, r0
 80050f8:	f103 0301 	add.w	r3, r3, #1
 80050fc:	bf38      	it	cc
 80050fe:	6008      	strcc	r0, [r1, #0]
 8005100:	eb00 0080 	add.w	r0, r0, r0, lsl #2
 8005104:	646b      	str	r3, [r5, #68]	; 0x44
 8005106:	eb07 0080 	add.w	r0, r7, r0, lsl #2
 800510a:	1d29      	adds	r1, r5, #4
 800510c:	6013      	str	r3, [r2, #0]
 800510e:	f7ff fa27 	bl	8004560 <vListInsertEnd>
 8005112:	f7ff fad9 	bl	80046c8 <vPortExitCritical>
 8005116:	6823      	ldr	r3, [r4, #0]
 8005118:	b163      	cbz	r3, 8005134 <prvAddNewTaskToReadyList+0x6c>
 800511a:	6832      	ldr	r2, [r6, #0]
 800511c:	6aeb      	ldr	r3, [r5, #44]	; 0x2c
 800511e:	6ad2      	ldr	r2, [r2, #44]	; 0x2c
 8005120:	429a      	cmp	r2, r3
 8005122:	d207      	bcs.n	8005134 <prvAddNewTaskToReadyList+0x6c>
 8005124:	f04f 5280 	mov.w	r2, #268435456	; 0x10000000
 8005128:	4b23      	ldr	r3, [pc, #140]	; (80051b8 <prvAddNewTaskToReadyList+0xf0>)
 800512a:	601a      	str	r2, [r3, #0]
 800512c:	f3bf 8f4f 	dsb	sy
 8005130:	f3bf 8f6f 	isb	sy
 8005134:	e8bd 81f0 	ldmia.w	sp!, {r4, r5, r6, r7, r8, pc}
 8005138:	6833      	ldr	r3, [r6, #0]
 800513a:	4f1c      	ldr	r7, [pc, #112]	; (80051ac <prvAddNewTaskToReadyList+0xe4>)
 800513c:	6adb      	ldr	r3, [r3, #44]	; 0x2c
 800513e:	4283      	cmp	r3, r0
 8005140:	bf98      	it	ls
 8005142:	6035      	strls	r5, [r6, #0]
 8005144:	e7d2      	b.n	80050ec <prvAddNewTaskToReadyList+0x24>
 8005146:	6035      	str	r5, [r6, #0]
 8005148:	6813      	ldr	r3, [r2, #0]
 800514a:	2b01      	cmp	r3, #1
 800514c:	d003      	beq.n	8005156 <prvAddNewTaskToReadyList+0x8e>
 800514e:	6ae8      	ldr	r0, [r5, #44]	; 0x2c
 8005150:	4f16      	ldr	r7, [pc, #88]	; (80051ac <prvAddNewTaskToReadyList+0xe4>)
 8005152:	4c15      	ldr	r4, [pc, #84]	; (80051a8 <prvAddNewTaskToReadyList+0xe0>)
 8005154:	e7ca      	b.n	80050ec <prvAddNewTaskToReadyList+0x24>
 8005156:	4f15      	ldr	r7, [pc, #84]	; (80051ac <prvAddNewTaskToReadyList+0xe4>)
 8005158:	463c      	mov	r4, r7
 800515a:	f507 688c 	add.w	r8, r7, #1120	; 0x460
 800515e:	4620      	mov	r0, r4
 8005160:	3414      	adds	r4, #20
 8005162:	f7ff f9ed 	bl	8004540 <vListInitialise>
 8005166:	45a0      	cmp	r8, r4
 8005168:	d1f9      	bne.n	800515e <prvAddNewTaskToReadyList+0x96>
 800516a:	f8df 8068 	ldr.w	r8, [pc, #104]	; 80051d4 <prvAddNewTaskToReadyList+0x10c>
 800516e:	4c13      	ldr	r4, [pc, #76]	; (80051bc <prvAddNewTaskToReadyList+0xf4>)
 8005170:	4640      	mov	r0, r8
 8005172:	f7ff f9e5 	bl	8004540 <vListInitialise>
 8005176:	4620      	mov	r0, r4
 8005178:	f7ff f9e2 	bl	8004540 <vListInitialise>
 800517c:	4810      	ldr	r0, [pc, #64]	; (80051c0 <prvAddNewTaskToReadyList+0xf8>)
 800517e:	f7ff f9df 	bl	8004540 <vListInitialise>
 8005182:	4810      	ldr	r0, [pc, #64]	; (80051c4 <prvAddNewTaskToReadyList+0xfc>)
 8005184:	f7ff f9dc 	bl	8004540 <vListInitialise>
 8005188:	480f      	ldr	r0, [pc, #60]	; (80051c8 <prvAddNewTaskToReadyList+0x100>)
 800518a:	f7ff f9d9 	bl	8004540 <vListInitialise>
 800518e:	4a0f      	ldr	r2, [pc, #60]	; (80051cc <prvAddNewTaskToReadyList+0x104>)
 8005190:	4b0f      	ldr	r3, [pc, #60]	; (80051d0 <prvAddNewTaskToReadyList+0x108>)
 8005192:	f8c2 8000 	str.w	r8, [r2]
 8005196:	6ae8      	ldr	r0, [r5, #44]	; 0x2c
 8005198:	601c      	str	r4, [r3, #0]
 800519a:	4c03      	ldr	r4, [pc, #12]	; (80051a8 <prvAddNewTaskToReadyList+0xe0>)
 800519c:	e7a6      	b.n	80050ec <prvAddNewTaskToReadyList+0x24>
 800519e:	bf00      	nop
 80051a0:	20001d10 	.word	0x20001d10
 80051a4:	200018a4 	.word	0x200018a4
 80051a8:	20001d6c 	.word	0x20001d6c
 80051ac:	200018b0 	.word	0x200018b0
 80051b0:	20001d24 	.word	0x20001d24
 80051b4:	20001d20 	.word	0x20001d20
 80051b8:	e000ed04 	.word	0xe000ed04
 80051bc:	20001d3c 	.word	0x20001d3c
 80051c0:	20001d58 	.word	0x20001d58
 80051c4:	20001d84 	.word	0x20001d84
 80051c8:	20001d70 	.word	0x20001d70
 80051cc:	200018a8 	.word	0x200018a8
 80051d0:	200018ac 	.word	0x200018ac
 80051d4:	20001d28 	.word	0x20001d28

080051d8 <prvInitialiseNewTask.isra.2>:
 80051d8:	e92d 4ff8 	stmdb	sp!, {r3, r4, r5, r6, r7, r8, r9, sl, fp, lr}
 80051dc:	468a      	mov	sl, r1
 80051de:	e9dd 570a 	ldrd	r5, r7, [sp, #40]	; 0x28
 80051e2:	9c0c      	ldr	r4, [sp, #48]	; 0x30
 80051e4:	ea4f 0b82 	mov.w	fp, r2, lsl #2
 80051e8:	465a      	mov	r2, fp
 80051ea:	4680      	mov	r8, r0
 80051ec:	21a5      	movs	r1, #165	; 0xa5
 80051ee:	6b20      	ldr	r0, [r4, #48]	; 0x30
 80051f0:	4699      	mov	r9, r3
 80051f2:	f002 fd22 	bl	8007c3a <memset>
 80051f6:	6b26      	ldr	r6, [r4, #48]	; 0x30
 80051f8:	f1ab 0b04 	sub.w	fp, fp, #4
 80051fc:	445e      	add	r6, fp
 80051fe:	f10a 33ff 	add.w	r3, sl, #4294967295
 8005202:	f026 0607 	bic.w	r6, r6, #7
 8005206:	f10a 0a0f 	add.w	sl, sl, #15
 800520a:	f104 0234 	add.w	r2, r4, #52	; 0x34
 800520e:	f813 1f01 	ldrb.w	r1, [r3, #1]!
 8005212:	f802 1b01 	strb.w	r1, [r2], #1
 8005216:	7819      	ldrb	r1, [r3, #0]
 8005218:	b109      	cbz	r1, 800521e <prvInitialiseNewTask.isra.2+0x46>
 800521a:	4553      	cmp	r3, sl
 800521c:	d1f7      	bne.n	800520e <prvInitialiseNewTask.isra.2+0x36>
 800521e:	2d37      	cmp	r5, #55	; 0x37
 8005220:	bf28      	it	cs
 8005222:	2537      	movcs	r5, #55	; 0x37
 8005224:	f04f 0a00 	mov.w	sl, #0
 8005228:	62e5      	str	r5, [r4, #44]	; 0x2c
 800522a:	64e5      	str	r5, [r4, #76]	; 0x4c
 800522c:	1d20      	adds	r0, r4, #4
 800522e:	f884 a043 	strb.w	sl, [r4, #67]	; 0x43
 8005232:	f8c4 a050 	str.w	sl, [r4, #80]	; 0x50
 8005236:	f7ff f98f 	bl	8004558 <vListInitialiseItem>
 800523a:	f1c5 0538 	rsb	r5, r5, #56	; 0x38
 800523e:	f104 0018 	add.w	r0, r4, #24
 8005242:	f7ff f989 	bl	8004558 <vListInitialiseItem>
 8005246:	f8c4 a054 	str.w	sl, [r4, #84]	; 0x54
 800524a:	61a5      	str	r5, [r4, #24]
 800524c:	6124      	str	r4, [r4, #16]
 800524e:	f884 a058 	strb.w	sl, [r4, #88]	; 0x58
 8005252:	6264      	str	r4, [r4, #36]	; 0x24
 8005254:	464a      	mov	r2, r9
 8005256:	4641      	mov	r1, r8
 8005258:	4630      	mov	r0, r6
 800525a:	f7ff f9ed 	bl	8004638 <pxPortInitialiseStack>
 800525e:	6020      	str	r0, [r4, #0]
 8005260:	b107      	cbz	r7, 8005264 <prvInitialiseNewTask.isra.2+0x8c>
 8005262:	603c      	str	r4, [r7, #0]
 8005264:	e8bd 8ff8 	ldmia.w	sp!, {r3, r4, r5, r6, r7, r8, r9, sl, fp, pc}

08005268 <prvAddCurrentTaskToDelayedList>:
 8005268:	b5f8      	push	{r3, r4, r5, r6, r7, lr}
 800526a:	4605      	mov	r5, r0
 800526c:	4b15      	ldr	r3, [pc, #84]	; (80052c4 <prvAddCurrentTaskToDelayedList+0x5c>)
 800526e:	4e16      	ldr	r6, [pc, #88]	; (80052c8 <prvAddCurrentTaskToDelayedList+0x60>)
 8005270:	681c      	ldr	r4, [r3, #0]
 8005272:	6830      	ldr	r0, [r6, #0]
 8005274:	460f      	mov	r7, r1
 8005276:	3004      	adds	r0, #4
 8005278:	f7ff f99a 	bl	80045b0 <uxListRemove>
 800527c:	1c6b      	adds	r3, r5, #1
 800527e:	4633      	mov	r3, r6
 8005280:	d107      	bne.n	8005292 <prvAddCurrentTaskToDelayedList+0x2a>
 8005282:	b137      	cbz	r7, 8005292 <prvAddCurrentTaskToDelayedList+0x2a>
 8005284:	6831      	ldr	r1, [r6, #0]
 8005286:	4811      	ldr	r0, [pc, #68]	; (80052cc <prvAddCurrentTaskToDelayedList+0x64>)
 8005288:	3104      	adds	r1, #4
 800528a:	e8bd 40f8 	ldmia.w	sp!, {r3, r4, r5, r6, r7, lr}
 800528e:	f7ff b967 	b.w	8004560 <vListInsertEnd>
 8005292:	681a      	ldr	r2, [r3, #0]
 8005294:	1964      	adds	r4, r4, r5
 8005296:	6054      	str	r4, [r2, #4]
 8005298:	d307      	bcc.n	80052aa <prvAddCurrentTaskToDelayedList+0x42>
 800529a:	4a0d      	ldr	r2, [pc, #52]	; (80052d0 <prvAddCurrentTaskToDelayedList+0x68>)
 800529c:	6810      	ldr	r0, [r2, #0]
 800529e:	6819      	ldr	r1, [r3, #0]
 80052a0:	e8bd 40f8 	ldmia.w	sp!, {r3, r4, r5, r6, r7, lr}
 80052a4:	3104      	adds	r1, #4
 80052a6:	f7ff b969 	b.w	800457c <vListInsert>
 80052aa:	4a0a      	ldr	r2, [pc, #40]	; (80052d4 <prvAddCurrentTaskToDelayedList+0x6c>)
 80052ac:	6810      	ldr	r0, [r2, #0]
 80052ae:	6819      	ldr	r1, [r3, #0]
 80052b0:	3104      	adds	r1, #4
 80052b2:	f7ff f963 	bl	800457c <vListInsert>
 80052b6:	4b08      	ldr	r3, [pc, #32]	; (80052d8 <prvAddCurrentTaskToDelayedList+0x70>)
 80052b8:	681a      	ldr	r2, [r3, #0]
 80052ba:	42a2      	cmp	r2, r4
 80052bc:	bf88      	it	hi
 80052be:	601c      	strhi	r4, [r3, #0]
 80052c0:	bdf8      	pop	{r3, r4, r5, r6, r7, pc}
 80052c2:	bf00      	nop
 80052c4:	20001d98 	.word	0x20001d98
 80052c8:	200018a4 	.word	0x200018a4
 80052cc:	20001d70 	.word	0x20001d70
 80052d0:	200018ac 	.word	0x200018ac
 80052d4:	200018a8 	.word	0x200018a8
 80052d8:	20001d50 	.word	0x20001d50

080052dc <prvIdleTask>:
 80052dc:	b580      	push	{r7, lr}
 80052de:	f04f 5780 	mov.w	r7, #268435456	; 0x10000000
 80052e2:	f8df a08c 	ldr.w	sl, [pc, #140]	; 8005370 <prvIdleTask+0x94>
 80052e6:	4e20      	ldr	r6, [pc, #128]	; (8005368 <prvIdleTask+0x8c>)
 80052e8:	4d20      	ldr	r5, [pc, #128]	; (800536c <prvIdleTask+0x90>)
 80052ea:	f8df 9088 	ldr.w	r9, [pc, #136]	; 8005374 <prvIdleTask+0x98>
 80052ee:	f8df 8088 	ldr.w	r8, [pc, #136]	; 8005378 <prvIdleTask+0x9c>
 80052f2:	682b      	ldr	r3, [r5, #0]
 80052f4:	b343      	cbz	r3, 8005348 <prvIdleTask+0x6c>
 80052f6:	f7ff f9c5 	bl	8004684 <vPortEnterCritical>
 80052fa:	f8da 300c 	ldr.w	r3, [sl, #12]
 80052fe:	68dc      	ldr	r4, [r3, #12]
 8005300:	1d20      	adds	r0, r4, #4
 8005302:	f7ff f955 	bl	80045b0 <uxListRemove>
 8005306:	6833      	ldr	r3, [r6, #0]
 8005308:	3b01      	subs	r3, #1
 800530a:	6033      	str	r3, [r6, #0]
 800530c:	682b      	ldr	r3, [r5, #0]
 800530e:	3b01      	subs	r3, #1
 8005310:	602b      	str	r3, [r5, #0]
 8005312:	f7ff f9d9 	bl	80046c8 <vPortExitCritical>
 8005316:	f894 3059 	ldrb.w	r3, [r4, #89]	; 0x59
 800531a:	b163      	cbz	r3, 8005336 <prvIdleTask+0x5a>
 800531c:	2b01      	cmp	r3, #1
 800531e:	d01e      	beq.n	800535e <prvIdleTask+0x82>
 8005320:	2b02      	cmp	r3, #2
 8005322:	d0e6      	beq.n	80052f2 <prvIdleTask+0x16>
 8005324:	f04f 0350 	mov.w	r3, #80	; 0x50
 8005328:	f383 8811 	msr	BASEPRI, r3
 800532c:	f3bf 8f6f 	isb	sy
 8005330:	f3bf 8f4f 	dsb	sy
 8005334:	e7fe      	b.n	8005334 <prvIdleTask+0x58>
 8005336:	6b20      	ldr	r0, [r4, #48]	; 0x30
 8005338:	f7ff f8ca 	bl	80044d0 <vPortFree>
 800533c:	4620      	mov	r0, r4
 800533e:	f7ff f8c7 	bl	80044d0 <vPortFree>
 8005342:	682b      	ldr	r3, [r5, #0]
 8005344:	2b00      	cmp	r3, #0
 8005346:	d1d6      	bne.n	80052f6 <prvIdleTask+0x1a>
 8005348:	f8d9 3000 	ldr.w	r3, [r9]
 800534c:	2b01      	cmp	r3, #1
 800534e:	d9d0      	bls.n	80052f2 <prvIdleTask+0x16>
 8005350:	f8c8 7000 	str.w	r7, [r8]
 8005354:	f3bf 8f4f 	dsb	sy
 8005358:	f3bf 8f6f 	isb	sy
 800535c:	e7c9      	b.n	80052f2 <prvIdleTask+0x16>
 800535e:	4620      	mov	r0, r4
 8005360:	f7ff f8b6 	bl	80044d0 <vPortFree>
 8005364:	e7c5      	b.n	80052f2 <prvIdleTask+0x16>
 8005366:	bf00      	nop
 8005368:	20001d10 	.word	0x20001d10
 800536c:	20001d14 	.word	0x20001d14
 8005370:	20001d84 	.word	0x20001d84
 8005374:	200018b0 	.word	0x200018b0
 8005378:	e000ed04 	.word	0xe000ed04

0800537c <xTaskCreateStatic>:
 800537c:	b5f0      	push	{r4, r5, r6, r7, lr}
 800537e:	b087      	sub	sp, #28
 8005380:	e9dd 650c 	ldrd	r6, r5, [sp, #48]	; 0x30
 8005384:	9c0e      	ldr	r4, [sp, #56]	; 0x38
 8005386:	b1bd      	cbz	r5, 80053b8 <xTaskCreateStatic+0x3c>
 8005388:	b16c      	cbz	r4, 80053a6 <xTaskCreateStatic+0x2a>
 800538a:	275c      	movs	r7, #92	; 0x5c
 800538c:	9704      	str	r7, [sp, #16]
 800538e:	9f04      	ldr	r7, [sp, #16]
 8005390:	2f5c      	cmp	r7, #92	; 0x5c
 8005392:	d01a      	beq.n	80053ca <xTaskCreateStatic+0x4e>
 8005394:	f04f 0350 	mov.w	r3, #80	; 0x50
 8005398:	f383 8811 	msr	BASEPRI, r3
 800539c:	f3bf 8f6f 	isb	sy
 80053a0:	f3bf 8f4f 	dsb	sy
 80053a4:	e7fe      	b.n	80053a4 <xTaskCreateStatic+0x28>
 80053a6:	f04f 0350 	mov.w	r3, #80	; 0x50
 80053aa:	f383 8811 	msr	BASEPRI, r3
 80053ae:	f3bf 8f6f 	isb	sy
 80053b2:	f3bf 8f4f 	dsb	sy
 80053b6:	e7fe      	b.n	80053b6 <xTaskCreateStatic+0x3a>
 80053b8:	f04f 0350 	mov.w	r3, #80	; 0x50
 80053bc:	f383 8811 	msr	BASEPRI, r3
 80053c0:	f3bf 8f6f 	isb	sy
 80053c4:	f3bf 8f4f 	dsb	sy
 80053c8:	e7fe      	b.n	80053c8 <xTaskCreateStatic+0x4c>
 80053ca:	2702      	movs	r7, #2
 80053cc:	6325      	str	r5, [r4, #48]	; 0x30
 80053ce:	ad05      	add	r5, sp, #20
 80053d0:	9402      	str	r4, [sp, #8]
 80053d2:	9600      	str	r6, [sp, #0]
 80053d4:	f884 7059 	strb.w	r7, [r4, #89]	; 0x59
 80053d8:	9501      	str	r5, [sp, #4]
 80053da:	f7ff fefd 	bl	80051d8 <prvInitialiseNewTask.isra.2>
 80053de:	4620      	mov	r0, r4
 80053e0:	f7ff fe72 	bl	80050c8 <prvAddNewTaskToReadyList>
 80053e4:	9805      	ldr	r0, [sp, #20]
 80053e6:	b007      	add	sp, #28
 80053e8:	bdf0      	pop	{r4, r5, r6, r7, pc}
 80053ea:	bf00      	nop

080053ec <xTaskCreate>:
 80053ec:	e92d 47f0 	stmdb	sp!, {r4, r5, r6, r7, r8, r9, sl, lr}
 80053f0:	0096      	lsls	r6, r2, #2
 80053f2:	4680      	mov	r8, r0
 80053f4:	4630      	mov	r0, r6
 80053f6:	460d      	mov	r5, r1
 80053f8:	4699      	mov	r9, r3
 80053fa:	9f09      	ldr	r7, [sp, #36]	; 0x24
 80053fc:	f7fe ffd4 	bl	80043a8 <pvPortMalloc>
 8005400:	2800      	cmp	r0, #0
 8005402:	f000 8099 	beq.w	8005538 <xTaskCreate+0x14c>
 8005406:	4682      	mov	sl, r0
 8005408:	205c      	movs	r0, #92	; 0x5c
 800540a:	f7fe ffcd 	bl	80043a8 <pvPortMalloc>
 800540e:	4604      	mov	r4, r0
 8005410:	2800      	cmp	r0, #0
 8005412:	f000 808a 	beq.w	800552a <xTaskCreate+0x13e>
 8005416:	2300      	movs	r3, #0
 8005418:	f8c0 a030 	str.w	sl, [r0, #48]	; 0x30
 800541c:	4632      	mov	r2, r6
 800541e:	4650      	mov	r0, sl
 8005420:	f884 3059 	strb.w	r3, [r4, #89]	; 0x59
 8005424:	21a5      	movs	r1, #165	; 0xa5
 8005426:	f002 fc08 	bl	8007c3a <memset>
 800542a:	782a      	ldrb	r2, [r5, #0]
 800542c:	6b23      	ldr	r3, [r4, #48]	; 0x30
 800542e:	f884 2034 	strb.w	r2, [r4, #52]	; 0x34
 8005432:	3e04      	subs	r6, #4
 8005434:	782a      	ldrb	r2, [r5, #0]
 8005436:	441e      	add	r6, r3
 8005438:	f026 0a07 	bic.w	sl, r6, #7
 800543c:	2a00      	cmp	r2, #0
 800543e:	d04d      	beq.n	80054dc <xTaskCreate+0xf0>
 8005440:	786b      	ldrb	r3, [r5, #1]
 8005442:	f884 3035 	strb.w	r3, [r4, #53]	; 0x35
 8005446:	786b      	ldrb	r3, [r5, #1]
 8005448:	2b00      	cmp	r3, #0
 800544a:	d047      	beq.n	80054dc <xTaskCreate+0xf0>
 800544c:	78ab      	ldrb	r3, [r5, #2]
 800544e:	f884 3036 	strb.w	r3, [r4, #54]	; 0x36
 8005452:	78ab      	ldrb	r3, [r5, #2]
 8005454:	2b00      	cmp	r3, #0
 8005456:	d041      	beq.n	80054dc <xTaskCreate+0xf0>
 8005458:	78eb      	ldrb	r3, [r5, #3]
 800545a:	f884 3037 	strb.w	r3, [r4, #55]	; 0x37
 800545e:	78eb      	ldrb	r3, [r5, #3]
 8005460:	2b00      	cmp	r3, #0
 8005462:	d03b      	beq.n	80054dc <xTaskCreate+0xf0>
 8005464:	792b      	ldrb	r3, [r5, #4]
 8005466:	f884 3038 	strb.w	r3, [r4, #56]	; 0x38
 800546a:	792b      	ldrb	r3, [r5, #4]
 800546c:	2b00      	cmp	r3, #0
 800546e:	d035      	beq.n	80054dc <xTaskCreate+0xf0>
 8005470:	796b      	ldrb	r3, [r5, #5]
 8005472:	f884 3039 	strb.w	r3, [r4, #57]	; 0x39
 8005476:	796b      	ldrb	r3, [r5, #5]
 8005478:	2b00      	cmp	r3, #0
 800547a:	d02f      	beq.n	80054dc <xTaskCreate+0xf0>
 800547c:	79ab      	ldrb	r3, [r5, #6]
 800547e:	f884 303a 	strb.w	r3, [r4, #58]	; 0x3a
 8005482:	79ab      	ldrb	r3, [r5, #6]
 8005484:	b353      	cbz	r3, 80054dc <xTaskCreate+0xf0>
 8005486:	79eb      	ldrb	r3, [r5, #7]
 8005488:	f884 303b 	strb.w	r3, [r4, #59]	; 0x3b
 800548c:	79eb      	ldrb	r3, [r5, #7]
 800548e:	b32b      	cbz	r3, 80054dc <xTaskCreate+0xf0>
 8005490:	7a2b      	ldrb	r3, [r5, #8]
 8005492:	f884 303c 	strb.w	r3, [r4, #60]	; 0x3c
 8005496:	7a2b      	ldrb	r3, [r5, #8]
 8005498:	b303      	cbz	r3, 80054dc <xTaskCreate+0xf0>
 800549a:	7a6b      	ldrb	r3, [r5, #9]
 800549c:	f884 303d 	strb.w	r3, [r4, #61]	; 0x3d
 80054a0:	7a6b      	ldrb	r3, [r5, #9]
 80054a2:	b1db      	cbz	r3, 80054dc <xTaskCreate+0xf0>
 80054a4:	7aab      	ldrb	r3, [r5, #10]
 80054a6:	f884 303e 	strb.w	r3, [r4, #62]	; 0x3e
 80054aa:	7aab      	ldrb	r3, [r5, #10]
 80054ac:	b1b3      	cbz	r3, 80054dc <xTaskCreate+0xf0>
 80054ae:	7aeb      	ldrb	r3, [r5, #11]
 80054b0:	f884 303f 	strb.w	r3, [r4, #63]	; 0x3f
 80054b4:	7aeb      	ldrb	r3, [r5, #11]
 80054b6:	b18b      	cbz	r3, 80054dc <xTaskCreate+0xf0>
 80054b8:	7b2b      	ldrb	r3, [r5, #12]
 80054ba:	f884 3040 	strb.w	r3, [r4, #64]	; 0x40
 80054be:	7b2b      	ldrb	r3, [r5, #12]
 80054c0:	b163      	cbz	r3, 80054dc <xTaskCreate+0xf0>
 80054c2:	7b6b      	ldrb	r3, [r5, #13]
 80054c4:	f884 3041 	strb.w	r3, [r4, #65]	; 0x41
 80054c8:	7b6b      	ldrb	r3, [r5, #13]
 80054ca:	b13b      	cbz	r3, 80054dc <xTaskCreate+0xf0>
 80054cc:	7bab      	ldrb	r3, [r5, #14]
 80054ce:	f884 3042 	strb.w	r3, [r4, #66]	; 0x42
 80054d2:	7bab      	ldrb	r3, [r5, #14]
 80054d4:	b113      	cbz	r3, 80054dc <xTaskCreate+0xf0>
 80054d6:	7beb      	ldrb	r3, [r5, #15]
 80054d8:	f884 3043 	strb.w	r3, [r4, #67]	; 0x43
 80054dc:	9d08      	ldr	r5, [sp, #32]
 80054de:	2600      	movs	r6, #0
 80054e0:	2d37      	cmp	r5, #55	; 0x37
 80054e2:	bf28      	it	cs
 80054e4:	2537      	movcs	r5, #55	; 0x37
 80054e6:	1d20      	adds	r0, r4, #4
 80054e8:	62e5      	str	r5, [r4, #44]	; 0x2c
 80054ea:	64e5      	str	r5, [r4, #76]	; 0x4c
 80054ec:	f884 6043 	strb.w	r6, [r4, #67]	; 0x43
 80054f0:	6526      	str	r6, [r4, #80]	; 0x50
 80054f2:	f7ff f831 	bl	8004558 <vListInitialiseItem>
 80054f6:	f1c5 0538 	rsb	r5, r5, #56	; 0x38
 80054fa:	f104 0018 	add.w	r0, r4, #24
 80054fe:	f7ff f82b 	bl	8004558 <vListInitialiseItem>
 8005502:	6566      	str	r6, [r4, #84]	; 0x54
 8005504:	61a5      	str	r5, [r4, #24]
 8005506:	6124      	str	r4, [r4, #16]
 8005508:	f884 6058 	strb.w	r6, [r4, #88]	; 0x58
 800550c:	6264      	str	r4, [r4, #36]	; 0x24
 800550e:	464a      	mov	r2, r9
 8005510:	4641      	mov	r1, r8
 8005512:	4650      	mov	r0, sl
 8005514:	f7ff f890 	bl	8004638 <pxPortInitialiseStack>
 8005518:	6020      	str	r0, [r4, #0]
 800551a:	b107      	cbz	r7, 800551e <xTaskCreate+0x132>
 800551c:	603c      	str	r4, [r7, #0]
 800551e:	4620      	mov	r0, r4
 8005520:	f7ff fdd2 	bl	80050c8 <prvAddNewTaskToReadyList>
 8005524:	2001      	movs	r0, #1
 8005526:	e8bd 87f0 	ldmia.w	sp!, {r4, r5, r6, r7, r8, r9, sl, pc}
 800552a:	4650      	mov	r0, sl
 800552c:	f7fe ffd0 	bl	80044d0 <vPortFree>
 8005530:	f04f 30ff 	mov.w	r0, #4294967295
 8005534:	e8bd 87f0 	ldmia.w	sp!, {r4, r5, r6, r7, r8, r9, sl, pc}
 8005538:	f04f 30ff 	mov.w	r0, #4294967295
 800553c:	e7f3      	b.n	8005526 <xTaskCreate+0x13a>
 800553e:	bf00      	nop

08005540 <vTaskStartScheduler>:
 8005540:	b530      	push	{r4, r5, lr}
 8005542:	2400      	movs	r4, #0
 8005544:	b08b      	sub	sp, #44	; 0x2c
 8005546:	aa07      	add	r2, sp, #28
 8005548:	a906      	add	r1, sp, #24
 800554a:	a805      	add	r0, sp, #20
 800554c:	e9cd 4405 	strd	r4, r4, [sp, #20]
 8005550:	f7fe fee6 	bl	8004320 <vApplicationGetIdleTaskMemory>
 8005554:	e9dd 5305 	ldrd	r5, r3, [sp, #20]
 8005558:	b1c3      	cbz	r3, 800558c <vTaskStartScheduler+0x4c>
 800555a:	b175      	cbz	r5, 800557a <vTaskStartScheduler+0x3a>
 800555c:	225c      	movs	r2, #92	; 0x5c
 800555e:	9208      	str	r2, [sp, #32]
 8005560:	9908      	ldr	r1, [sp, #32]
 8005562:	9a07      	ldr	r2, [sp, #28]
 8005564:	295c      	cmp	r1, #92	; 0x5c
 8005566:	d01a      	beq.n	800559e <vTaskStartScheduler+0x5e>
 8005568:	f04f 0350 	mov.w	r3, #80	; 0x50
 800556c:	f383 8811 	msr	BASEPRI, r3
 8005570:	f3bf 8f6f 	isb	sy
 8005574:	f3bf 8f4f 	dsb	sy
 8005578:	e7fe      	b.n	8005578 <vTaskStartScheduler+0x38>
 800557a:	f04f 0350 	mov.w	r3, #80	; 0x50
 800557e:	f383 8811 	msr	BASEPRI, r3
 8005582:	f3bf 8f6f 	isb	sy
 8005586:	f3bf 8f4f 	dsb	sy
 800558a:	e7fe      	b.n	800558a <vTaskStartScheduler+0x4a>
 800558c:	f04f 0350 	mov.w	r3, #80	; 0x50
 8005590:	f383 8811 	msr	BASEPRI, r3
 8005594:	f3bf 8f6f 	isb	sy
 8005598:	f3bf 8f4f 	dsb	sy
 800559c:	e7fe      	b.n	800559c <vTaskStartScheduler+0x5c>
 800559e:	2002      	movs	r0, #2
 80055a0:	a909      	add	r1, sp, #36	; 0x24
 80055a2:	632b      	str	r3, [r5, #48]	; 0x30
 80055a4:	f885 0059 	strb.w	r0, [r5, #89]	; 0x59
 80055a8:	4623      	mov	r3, r4
 80055aa:	e9cd 4100 	strd	r4, r1, [sp]
 80055ae:	4817      	ldr	r0, [pc, #92]	; (800560c <vTaskStartScheduler+0xcc>)
 80055b0:	4917      	ldr	r1, [pc, #92]	; (8005610 <vTaskStartScheduler+0xd0>)
 80055b2:	9502      	str	r5, [sp, #8]
 80055b4:	f7ff fe10 	bl	80051d8 <prvInitialiseNewTask.isra.2>
 80055b8:	4628      	mov	r0, r5
 80055ba:	f7ff fd85 	bl	80050c8 <prvAddNewTaskToReadyList>
 80055be:	9b09      	ldr	r3, [sp, #36]	; 0x24
 80055c0:	b12b      	cbz	r3, 80055ce <vTaskStartScheduler+0x8e>
 80055c2:	f000 fcc1 	bl	8005f48 <xTimerCreateTimerTask>
 80055c6:	2801      	cmp	r0, #1
 80055c8:	d00c      	beq.n	80055e4 <vTaskStartScheduler+0xa4>
 80055ca:	3001      	adds	r0, #1
 80055cc:	d001      	beq.n	80055d2 <vTaskStartScheduler+0x92>
 80055ce:	b00b      	add	sp, #44	; 0x2c
 80055d0:	bd30      	pop	{r4, r5, pc}
 80055d2:	f04f 0350 	mov.w	r3, #80	; 0x50
 80055d6:	f383 8811 	msr	BASEPRI, r3
 80055da:	f3bf 8f6f 	isb	sy
 80055de:	f3bf 8f4f 	dsb	sy
 80055e2:	e7fe      	b.n	80055e2 <vTaskStartScheduler+0xa2>
 80055e4:	f04f 0350 	mov.w	r3, #80	; 0x50
 80055e8:	f383 8811 	msr	BASEPRI, r3
 80055ec:	f3bf 8f6f 	isb	sy
 80055f0:	f3bf 8f4f 	dsb	sy
 80055f4:	f04f 35ff 	mov.w	r5, #4294967295
 80055f8:	4906      	ldr	r1, [pc, #24]	; (8005614 <vTaskStartScheduler+0xd4>)
 80055fa:	4a07      	ldr	r2, [pc, #28]	; (8005618 <vTaskStartScheduler+0xd8>)
 80055fc:	4b07      	ldr	r3, [pc, #28]	; (800561c <vTaskStartScheduler+0xdc>)
 80055fe:	600d      	str	r5, [r1, #0]
 8005600:	6010      	str	r0, [r2, #0]
 8005602:	601c      	str	r4, [r3, #0]
 8005604:	f7ff f8ac 	bl	8004760 <xPortStartScheduler>
 8005608:	e7e1      	b.n	80055ce <vTaskStartScheduler+0x8e>
 800560a:	bf00      	nop
 800560c:	080052dd 	.word	0x080052dd
 8005610:	08007fc4 	.word	0x08007fc4
 8005614:	20001d50 	.word	0x20001d50
 8005618:	20001d6c 	.word	0x20001d6c
 800561c:	20001d98 	.word	0x20001d98

08005620 <vTaskSuspendAll>:
 8005620:	4a02      	ldr	r2, [pc, #8]	; (800562c <vTaskSuspendAll+0xc>)
 8005622:	6813      	ldr	r3, [r2, #0]
 8005624:	3301      	adds	r3, #1
 8005626:	6013      	str	r3, [r2, #0]
 8005628:	4770      	bx	lr
 800562a:	bf00      	nop
 800562c:	20001d1c 	.word	0x20001d1c

08005630 <xTaskGetTickCount>:
 8005630:	4b01      	ldr	r3, [pc, #4]	; (8005638 <xTaskGetTickCount+0x8>)
 8005632:	6818      	ldr	r0, [r3, #0]
 8005634:	4770      	bx	lr
 8005636:	bf00      	nop
 8005638:	20001d98 	.word	0x20001d98

0800563c <xTaskIncrementTick>:
 800563c:	e92d 4ff8 	stmdb	sp!, {r3, r4, r5, r6, r7, r8, r9, sl, fp, lr}
 8005640:	4b45      	ldr	r3, [pc, #276]	; (8005758 <xTaskIncrementTick+0x11c>)
 8005642:	681b      	ldr	r3, [r3, #0]
 8005644:	b9cb      	cbnz	r3, 800567a <xTaskIncrementTick+0x3e>
 8005646:	4b45      	ldr	r3, [pc, #276]	; (800575c <xTaskIncrementTick+0x120>)
 8005648:	681f      	ldr	r7, [r3, #0]
 800564a:	3701      	adds	r7, #1
 800564c:	601f      	str	r7, [r3, #0]
 800564e:	b30f      	cbz	r7, 8005694 <xTaskIncrementTick+0x58>
 8005650:	4e43      	ldr	r6, [pc, #268]	; (8005760 <xTaskIncrementTick+0x124>)
 8005652:	6833      	ldr	r3, [r6, #0]
 8005654:	2500      	movs	r5, #0
 8005656:	42bb      	cmp	r3, r7
 8005658:	d92a      	bls.n	80056b0 <xTaskIncrementTick+0x74>
 800565a:	f8df 8120 	ldr.w	r8, [pc, #288]	; 800577c <xTaskIncrementTick+0x140>
 800565e:	f8df 9120 	ldr.w	r9, [pc, #288]	; 8005780 <xTaskIncrementTick+0x144>
 8005662:	f8d9 3000 	ldr.w	r3, [r9]
 8005666:	6adb      	ldr	r3, [r3, #44]	; 0x2c
 8005668:	eb03 0383 	add.w	r3, r3, r3, lsl #2
 800566c:	009b      	lsls	r3, r3, #2
 800566e:	f858 3003 	ldr.w	r3, [r8, r3]
 8005672:	2b02      	cmp	r3, #2
 8005674:	bf28      	it	cs
 8005676:	2501      	movcs	r5, #1
 8005678:	e004      	b.n	8005684 <xTaskIncrementTick+0x48>
 800567a:	2500      	movs	r5, #0
 800567c:	4a39      	ldr	r2, [pc, #228]	; (8005764 <xTaskIncrementTick+0x128>)
 800567e:	6813      	ldr	r3, [r2, #0]
 8005680:	3301      	adds	r3, #1
 8005682:	6013      	str	r3, [r2, #0]
 8005684:	4b38      	ldr	r3, [pc, #224]	; (8005768 <xTaskIncrementTick+0x12c>)
 8005686:	681b      	ldr	r3, [r3, #0]
 8005688:	2b00      	cmp	r3, #0
 800568a:	bf0c      	ite	eq
 800568c:	4628      	moveq	r0, r5
 800568e:	2001      	movne	r0, #1
 8005690:	e8bd 8ff8 	ldmia.w	sp!, {r3, r4, r5, r6, r7, r8, r9, sl, fp, pc}
 8005694:	4c35      	ldr	r4, [pc, #212]	; (800576c <xTaskIncrementTick+0x130>)
 8005696:	6823      	ldr	r3, [r4, #0]
 8005698:	681b      	ldr	r3, [r3, #0]
 800569a:	2b00      	cmp	r3, #0
 800569c:	d044      	beq.n	8005728 <xTaskIncrementTick+0xec>
 800569e:	f04f 0350 	mov.w	r3, #80	; 0x50
 80056a2:	f383 8811 	msr	BASEPRI, r3
 80056a6:	f3bf 8f6f 	isb	sy
 80056aa:	f3bf 8f4f 	dsb	sy
 80056ae:	e7fe      	b.n	80056ae <xTaskIncrementTick+0x72>
 80056b0:	4c2e      	ldr	r4, [pc, #184]	; (800576c <xTaskIncrementTick+0x130>)
 80056b2:	f8df 80c8 	ldr.w	r8, [pc, #200]	; 800577c <xTaskIncrementTick+0x140>
 80056b6:	f8df 90c8 	ldr.w	r9, [pc, #200]	; 8005780 <xTaskIncrementTick+0x144>
 80056ba:	e02b      	b.n	8005714 <xTaskIncrementTick+0xd8>
 80056bc:	6823      	ldr	r3, [r4, #0]
 80056be:	68db      	ldr	r3, [r3, #12]
 80056c0:	f8d3 a00c 	ldr.w	sl, [r3, #12]
 80056c4:	f8da 2004 	ldr.w	r2, [sl, #4]
 80056c8:	f10a 0b04 	add.w	fp, sl, #4
 80056cc:	4297      	cmp	r7, r2
 80056ce:	d329      	bcc.n	8005724 <xTaskIncrementTick+0xe8>
 80056d0:	4658      	mov	r0, fp
 80056d2:	f7fe ff6d 	bl	80045b0 <uxListRemove>
 80056d6:	f8da 2028 	ldr.w	r2, [sl, #40]	; 0x28
 80056da:	f10a 0018 	add.w	r0, sl, #24
 80056de:	b10a      	cbz	r2, 80056e4 <xTaskIncrementTick+0xa8>
 80056e0:	f7fe ff66 	bl	80045b0 <uxListRemove>
 80056e4:	4b22      	ldr	r3, [pc, #136]	; (8005770 <xTaskIncrementTick+0x134>)
 80056e6:	f8da 202c 	ldr.w	r2, [sl, #44]	; 0x2c
 80056ea:	681b      	ldr	r3, [r3, #0]
 80056ec:	eb02 0082 	add.w	r0, r2, r2, lsl #2
 80056f0:	429a      	cmp	r2, r3
 80056f2:	bf88      	it	hi
 80056f4:	4b1e      	ldrhi	r3, [pc, #120]	; (8005770 <xTaskIncrementTick+0x134>)
 80056f6:	4659      	mov	r1, fp
 80056f8:	eb08 0080 	add.w	r0, r8, r0, lsl #2
 80056fc:	bf88      	it	hi
 80056fe:	601a      	strhi	r2, [r3, #0]
 8005700:	f7fe ff2e 	bl	8004560 <vListInsertEnd>
 8005704:	f8d9 1000 	ldr.w	r1, [r9]
 8005708:	f8da 202c 	ldr.w	r2, [sl, #44]	; 0x2c
 800570c:	6acb      	ldr	r3, [r1, #44]	; 0x2c
 800570e:	429a      	cmp	r2, r3
 8005710:	bf28      	it	cs
 8005712:	2501      	movcs	r5, #1
 8005714:	6823      	ldr	r3, [r4, #0]
 8005716:	681b      	ldr	r3, [r3, #0]
 8005718:	2b00      	cmp	r3, #0
 800571a:	d1cf      	bne.n	80056bc <xTaskIncrementTick+0x80>
 800571c:	f04f 33ff 	mov.w	r3, #4294967295
 8005720:	6033      	str	r3, [r6, #0]
 8005722:	e79e      	b.n	8005662 <xTaskIncrementTick+0x26>
 8005724:	6032      	str	r2, [r6, #0]
 8005726:	e79c      	b.n	8005662 <xTaskIncrementTick+0x26>
 8005728:	4b12      	ldr	r3, [pc, #72]	; (8005774 <xTaskIncrementTick+0x138>)
 800572a:	6821      	ldr	r1, [r4, #0]
 800572c:	6818      	ldr	r0, [r3, #0]
 800572e:	4a12      	ldr	r2, [pc, #72]	; (8005778 <xTaskIncrementTick+0x13c>)
 8005730:	6020      	str	r0, [r4, #0]
 8005732:	6019      	str	r1, [r3, #0]
 8005734:	6813      	ldr	r3, [r2, #0]
 8005736:	3301      	adds	r3, #1
 8005738:	6013      	str	r3, [r2, #0]
 800573a:	6823      	ldr	r3, [r4, #0]
 800573c:	681b      	ldr	r3, [r3, #0]
 800573e:	b923      	cbnz	r3, 800574a <xTaskIncrementTick+0x10e>
 8005740:	f04f 33ff 	mov.w	r3, #4294967295
 8005744:	4e06      	ldr	r6, [pc, #24]	; (8005760 <xTaskIncrementTick+0x124>)
 8005746:	6033      	str	r3, [r6, #0]
 8005748:	e783      	b.n	8005652 <xTaskIncrementTick+0x16>
 800574a:	6823      	ldr	r3, [r4, #0]
 800574c:	4e04      	ldr	r6, [pc, #16]	; (8005760 <xTaskIncrementTick+0x124>)
 800574e:	68db      	ldr	r3, [r3, #12]
 8005750:	68db      	ldr	r3, [r3, #12]
 8005752:	685b      	ldr	r3, [r3, #4]
 8005754:	6033      	str	r3, [r6, #0]
 8005756:	e77c      	b.n	8005652 <xTaskIncrementTick+0x16>
 8005758:	20001d1c 	.word	0x20001d1c
 800575c:	20001d98 	.word	0x20001d98
 8005760:	20001d50 	.word	0x20001d50
 8005764:	20001d18 	.word	0x20001d18
 8005768:	20001d9c 	.word	0x20001d9c
 800576c:	200018a8 	.word	0x200018a8
 8005770:	20001d24 	.word	0x20001d24
 8005774:	200018ac 	.word	0x200018ac
 8005778:	20001d54 	.word	0x20001d54
 800577c:	200018b0 	.word	0x200018b0
 8005780:	200018a4 	.word	0x200018a4

08005784 <xTaskResumeAll>:
 8005784:	e92d 47f0 	stmdb	sp!, {r4, r5, r6, r7, r8, r9, sl, lr}
 8005788:	4c36      	ldr	r4, [pc, #216]	; (8005864 <xTaskResumeAll+0xe0>)
 800578a:	6823      	ldr	r3, [r4, #0]
 800578c:	b943      	cbnz	r3, 80057a0 <xTaskResumeAll+0x1c>
 800578e:	f04f 0350 	mov.w	r3, #80	; 0x50
 8005792:	f383 8811 	msr	BASEPRI, r3
 8005796:	f3bf 8f6f 	isb	sy
 800579a:	f3bf 8f4f 	dsb	sy
 800579e:	e7fe      	b.n	800579e <xTaskResumeAll+0x1a>
 80057a0:	f7fe ff70 	bl	8004684 <vPortEnterCritical>
 80057a4:	6823      	ldr	r3, [r4, #0]
 80057a6:	3b01      	subs	r3, #1
 80057a8:	6023      	str	r3, [r4, #0]
 80057aa:	6824      	ldr	r4, [r4, #0]
 80057ac:	bb5c      	cbnz	r4, 8005806 <xTaskResumeAll+0x82>
 80057ae:	4b2e      	ldr	r3, [pc, #184]	; (8005868 <xTaskResumeAll+0xe4>)
 80057b0:	681b      	ldr	r3, [r3, #0]
 80057b2:	b343      	cbz	r3, 8005806 <xTaskResumeAll+0x82>
 80057b4:	4e2d      	ldr	r6, [pc, #180]	; (800586c <xTaskResumeAll+0xe8>)
 80057b6:	4f2e      	ldr	r7, [pc, #184]	; (8005870 <xTaskResumeAll+0xec>)
 80057b8:	4d2e      	ldr	r5, [pc, #184]	; (8005874 <xTaskResumeAll+0xf0>)
 80057ba:	f8df a0cc 	ldr.w	sl, [pc, #204]	; 8005888 <xTaskResumeAll+0x104>
 80057be:	f8df 90cc 	ldr.w	r9, [pc, #204]	; 800588c <xTaskResumeAll+0x108>
 80057c2:	683b      	ldr	r3, [r7, #0]
 80057c4:	b32b      	cbz	r3, 8005812 <xTaskResumeAll+0x8e>
 80057c6:	68fb      	ldr	r3, [r7, #12]
 80057c8:	68dc      	ldr	r4, [r3, #12]
 80057ca:	f104 0804 	add.w	r8, r4, #4
 80057ce:	f104 0018 	add.w	r0, r4, #24
 80057d2:	f7fe feed 	bl	80045b0 <uxListRemove>
 80057d6:	4640      	mov	r0, r8
 80057d8:	f7fe feea 	bl	80045b0 <uxListRemove>
 80057dc:	6ae3      	ldr	r3, [r4, #44]	; 0x2c
 80057de:	682a      	ldr	r2, [r5, #0]
 80057e0:	eb03 0083 	add.w	r0, r3, r3, lsl #2
 80057e4:	4293      	cmp	r3, r2
 80057e6:	4641      	mov	r1, r8
 80057e8:	eb0a 0080 	add.w	r0, sl, r0, lsl #2
 80057ec:	bf88      	it	hi
 80057ee:	602b      	strhi	r3, [r5, #0]
 80057f0:	f7fe feb6 	bl	8004560 <vListInsertEnd>
 80057f4:	f8d9 3000 	ldr.w	r3, [r9]
 80057f8:	6ae2      	ldr	r2, [r4, #44]	; 0x2c
 80057fa:	6adb      	ldr	r3, [r3, #44]	; 0x2c
 80057fc:	429a      	cmp	r2, r3
 80057fe:	d3e0      	bcc.n	80057c2 <xTaskResumeAll+0x3e>
 8005800:	2301      	movs	r3, #1
 8005802:	6033      	str	r3, [r6, #0]
 8005804:	e7dd      	b.n	80057c2 <xTaskResumeAll+0x3e>
 8005806:	2400      	movs	r4, #0
 8005808:	f7fe ff5e 	bl	80046c8 <vPortExitCritical>
 800580c:	4620      	mov	r0, r4
 800580e:	e8bd 87f0 	ldmia.w	sp!, {r4, r5, r6, r7, r8, r9, sl, pc}
 8005812:	b13c      	cbz	r4, 8005824 <xTaskResumeAll+0xa0>
 8005814:	4b18      	ldr	r3, [pc, #96]	; (8005878 <xTaskResumeAll+0xf4>)
 8005816:	681a      	ldr	r2, [r3, #0]
 8005818:	6812      	ldr	r2, [r2, #0]
 800581a:	b9da      	cbnz	r2, 8005854 <xTaskResumeAll+0xd0>
 800581c:	f04f 32ff 	mov.w	r2, #4294967295
 8005820:	4b16      	ldr	r3, [pc, #88]	; (800587c <xTaskResumeAll+0xf8>)
 8005822:	601a      	str	r2, [r3, #0]
 8005824:	4d16      	ldr	r5, [pc, #88]	; (8005880 <xTaskResumeAll+0xfc>)
 8005826:	682c      	ldr	r4, [r5, #0]
 8005828:	b13c      	cbz	r4, 800583a <xTaskResumeAll+0xb6>
 800582a:	2701      	movs	r7, #1
 800582c:	f7ff ff06 	bl	800563c <xTaskIncrementTick>
 8005830:	b100      	cbz	r0, 8005834 <xTaskResumeAll+0xb0>
 8005832:	6037      	str	r7, [r6, #0]
 8005834:	3c01      	subs	r4, #1
 8005836:	d1f9      	bne.n	800582c <xTaskResumeAll+0xa8>
 8005838:	602c      	str	r4, [r5, #0]
 800583a:	6833      	ldr	r3, [r6, #0]
 800583c:	2b00      	cmp	r3, #0
 800583e:	d0e2      	beq.n	8005806 <xTaskResumeAll+0x82>
 8005840:	f04f 5280 	mov.w	r2, #268435456	; 0x10000000
 8005844:	4b0f      	ldr	r3, [pc, #60]	; (8005884 <xTaskResumeAll+0x100>)
 8005846:	601a      	str	r2, [r3, #0]
 8005848:	f3bf 8f4f 	dsb	sy
 800584c:	f3bf 8f6f 	isb	sy
 8005850:	2401      	movs	r4, #1
 8005852:	e7d9      	b.n	8005808 <xTaskResumeAll+0x84>
 8005854:	681a      	ldr	r2, [r3, #0]
 8005856:	4b09      	ldr	r3, [pc, #36]	; (800587c <xTaskResumeAll+0xf8>)
 8005858:	68d2      	ldr	r2, [r2, #12]
 800585a:	68d2      	ldr	r2, [r2, #12]
 800585c:	6852      	ldr	r2, [r2, #4]
 800585e:	601a      	str	r2, [r3, #0]
 8005860:	e7e0      	b.n	8005824 <xTaskResumeAll+0xa0>
 8005862:	bf00      	nop
 8005864:	20001d1c 	.word	0x20001d1c
 8005868:	20001d10 	.word	0x20001d10
 800586c:	20001d9c 	.word	0x20001d9c
 8005870:	20001d58 	.word	0x20001d58
 8005874:	20001d24 	.word	0x20001d24
 8005878:	200018a8 	.word	0x200018a8
 800587c:	20001d50 	.word	0x20001d50
 8005880:	20001d18 	.word	0x20001d18
 8005884:	e000ed04 	.word	0xe000ed04
 8005888:	200018b0 	.word	0x200018b0
 800588c:	200018a4 	.word	0x200018a4

08005890 <vTaskDelay>:
 8005890:	b508      	push	{r3, lr}
 8005892:	b198      	cbz	r0, 80058bc <vTaskDelay+0x2c>
 8005894:	4b0e      	ldr	r3, [pc, #56]	; (80058d0 <vTaskDelay+0x40>)
 8005896:	6819      	ldr	r1, [r3, #0]
 8005898:	b141      	cbz	r1, 80058ac <vTaskDelay+0x1c>
 800589a:	f04f 0350 	mov.w	r3, #80	; 0x50
 800589e:	f383 8811 	msr	BASEPRI, r3
 80058a2:	f3bf 8f6f 	isb	sy
 80058a6:	f3bf 8f4f 	dsb	sy
 80058aa:	e7fe      	b.n	80058aa <vTaskDelay+0x1a>
 80058ac:	681a      	ldr	r2, [r3, #0]
 80058ae:	3201      	adds	r2, #1
 80058b0:	601a      	str	r2, [r3, #0]
 80058b2:	f7ff fcd9 	bl	8005268 <prvAddCurrentTaskToDelayedList>
 80058b6:	f7ff ff65 	bl	8005784 <xTaskResumeAll>
 80058ba:	b938      	cbnz	r0, 80058cc <vTaskDelay+0x3c>
 80058bc:	f04f 5280 	mov.w	r2, #268435456	; 0x10000000
 80058c0:	4b04      	ldr	r3, [pc, #16]	; (80058d4 <vTaskDelay+0x44>)
 80058c2:	601a      	str	r2, [r3, #0]
 80058c4:	f3bf 8f4f 	dsb	sy
 80058c8:	f3bf 8f6f 	isb	sy
 80058cc:	bd08      	pop	{r3, pc}
 80058ce:	bf00      	nop
 80058d0:	20001d1c 	.word	0x20001d1c
 80058d4:	e000ed04 	.word	0xe000ed04

080058d8 <vTaskSwitchContext>:
 80058d8:	4b1c      	ldr	r3, [pc, #112]	; (800594c <vTaskSwitchContext+0x74>)
 80058da:	681b      	ldr	r3, [r3, #0]
 80058dc:	bb13      	cbnz	r3, 8005924 <vTaskSwitchContext+0x4c>
 80058de:	4a1c      	ldr	r2, [pc, #112]	; (8005950 <vTaskSwitchContext+0x78>)
 80058e0:	b430      	push	{r4, r5}
 80058e2:	4c1c      	ldr	r4, [pc, #112]	; (8005954 <vTaskSwitchContext+0x7c>)
 80058e4:	6013      	str	r3, [r2, #0]
 80058e6:	6822      	ldr	r2, [r4, #0]
 80058e8:	481b      	ldr	r0, [pc, #108]	; (8005958 <vTaskSwitchContext+0x80>)
 80058ea:	0093      	lsls	r3, r2, #2
 80058ec:	1899      	adds	r1, r3, r2
 80058ee:	0089      	lsls	r1, r1, #2
 80058f0:	5841      	ldr	r1, [r0, r1]
 80058f2:	b939      	cbnz	r1, 8005904 <vTaskSwitchContext+0x2c>
 80058f4:	b1d2      	cbz	r2, 800592c <vTaskSwitchContext+0x54>
 80058f6:	3a01      	subs	r2, #1
 80058f8:	0093      	lsls	r3, r2, #2
 80058fa:	1899      	adds	r1, r3, r2
 80058fc:	f850 1021 	ldr.w	r1, [r0, r1, lsl #2]
 8005900:	2900      	cmp	r1, #0
 8005902:	d0f7      	beq.n	80058f4 <vTaskSwitchContext+0x1c>
 8005904:	4413      	add	r3, r2
 8005906:	009b      	lsls	r3, r3, #2
 8005908:	18c5      	adds	r5, r0, r3
 800590a:	6869      	ldr	r1, [r5, #4]
 800590c:	3308      	adds	r3, #8
 800590e:	6849      	ldr	r1, [r1, #4]
 8005910:	4403      	add	r3, r0
 8005912:	4299      	cmp	r1, r3
 8005914:	6069      	str	r1, [r5, #4]
 8005916:	d012      	beq.n	800593e <vTaskSwitchContext+0x66>
 8005918:	68c9      	ldr	r1, [r1, #12]
 800591a:	4b10      	ldr	r3, [pc, #64]	; (800595c <vTaskSwitchContext+0x84>)
 800591c:	6019      	str	r1, [r3, #0]
 800591e:	6022      	str	r2, [r4, #0]
 8005920:	bc30      	pop	{r4, r5}
 8005922:	4770      	bx	lr
 8005924:	2201      	movs	r2, #1
 8005926:	4b0a      	ldr	r3, [pc, #40]	; (8005950 <vTaskSwitchContext+0x78>)
 8005928:	601a      	str	r2, [r3, #0]
 800592a:	4770      	bx	lr
 800592c:	f04f 0350 	mov.w	r3, #80	; 0x50
 8005930:	f383 8811 	msr	BASEPRI, r3
 8005934:	f3bf 8f6f 	isb	sy
 8005938:	f3bf 8f4f 	dsb	sy
 800593c:	e7fe      	b.n	800593c <vTaskSwitchContext+0x64>
 800593e:	2314      	movs	r3, #20
 8005940:	fb03 0002 	mla	r0, r3, r2, r0
 8005944:	6849      	ldr	r1, [r1, #4]
 8005946:	6041      	str	r1, [r0, #4]
 8005948:	e7e6      	b.n	8005918 <vTaskSwitchContext+0x40>
 800594a:	bf00      	nop
 800594c:	20001d1c 	.word	0x20001d1c
 8005950:	20001d9c 	.word	0x20001d9c
 8005954:	20001d24 	.word	0x20001d24
 8005958:	200018b0 	.word	0x200018b0
 800595c:	200018a4 	.word	0x200018a4

08005960 <vTaskPlaceOnEventList>:
 8005960:	b940      	cbnz	r0, 8005974 <vTaskPlaceOnEventList+0x14>
 8005962:	f04f 0350 	mov.w	r3, #80	; 0x50
 8005966:	f383 8811 	msr	BASEPRI, r3
 800596a:	f3bf 8f6f 	isb	sy
 800596e:	f3bf 8f4f 	dsb	sy
 8005972:	e7fe      	b.n	8005972 <vTaskPlaceOnEventList+0x12>
 8005974:	b570      	push	{r4, r5, r6, lr}
 8005976:	460c      	mov	r4, r1
 8005978:	4d15      	ldr	r5, [pc, #84]	; (80059d0 <vTaskPlaceOnEventList+0x70>)
 800597a:	6829      	ldr	r1, [r5, #0]
 800597c:	3118      	adds	r1, #24
 800597e:	f7fe fdfd 	bl	800457c <vListInsert>
 8005982:	4b14      	ldr	r3, [pc, #80]	; (80059d4 <vTaskPlaceOnEventList+0x74>)
 8005984:	681e      	ldr	r6, [r3, #0]
 8005986:	6828      	ldr	r0, [r5, #0]
 8005988:	3004      	adds	r0, #4
 800598a:	f7fe fe11 	bl	80045b0 <uxListRemove>
 800598e:	1c63      	adds	r3, r4, #1
 8005990:	d00f      	beq.n	80059b2 <vTaskPlaceOnEventList+0x52>
 8005992:	682b      	ldr	r3, [r5, #0]
 8005994:	19a4      	adds	r4, r4, r6
 8005996:	605c      	str	r4, [r3, #4]
 8005998:	d212      	bcs.n	80059c0 <vTaskPlaceOnEventList+0x60>
 800599a:	4b0f      	ldr	r3, [pc, #60]	; (80059d8 <vTaskPlaceOnEventList+0x78>)
 800599c:	6818      	ldr	r0, [r3, #0]
 800599e:	6829      	ldr	r1, [r5, #0]
 80059a0:	3104      	adds	r1, #4
 80059a2:	f7fe fdeb 	bl	800457c <vListInsert>
 80059a6:	4b0d      	ldr	r3, [pc, #52]	; (80059dc <vTaskPlaceOnEventList+0x7c>)
 80059a8:	681a      	ldr	r2, [r3, #0]
 80059aa:	4294      	cmp	r4, r2
 80059ac:	bf38      	it	cc
 80059ae:	601c      	strcc	r4, [r3, #0]
 80059b0:	bd70      	pop	{r4, r5, r6, pc}
 80059b2:	6829      	ldr	r1, [r5, #0]
 80059b4:	480a      	ldr	r0, [pc, #40]	; (80059e0 <vTaskPlaceOnEventList+0x80>)
 80059b6:	3104      	adds	r1, #4
 80059b8:	e8bd 4070 	ldmia.w	sp!, {r4, r5, r6, lr}
 80059bc:	f7fe bdd0 	b.w	8004560 <vListInsertEnd>
 80059c0:	4b08      	ldr	r3, [pc, #32]	; (80059e4 <vTaskPlaceOnEventList+0x84>)
 80059c2:	6818      	ldr	r0, [r3, #0]
 80059c4:	6829      	ldr	r1, [r5, #0]
 80059c6:	e8bd 4070 	ldmia.w	sp!, {r4, r5, r6, lr}
 80059ca:	3104      	adds	r1, #4
 80059cc:	f7fe bdd6 	b.w	800457c <vListInsert>
 80059d0:	200018a4 	.word	0x200018a4
 80059d4:	20001d98 	.word	0x20001d98
 80059d8:	200018a8 	.word	0x200018a8
 80059dc:	20001d50 	.word	0x20001d50
 80059e0:	20001d70 	.word	0x20001d70
 80059e4:	200018ac 	.word	0x200018ac

080059e8 <vTaskPlaceOnEventListRestricted>:
 80059e8:	b1a8      	cbz	r0, 8005a16 <vTaskPlaceOnEventListRestricted+0x2e>
 80059ea:	b570      	push	{r4, r5, r6, lr}
 80059ec:	4616      	mov	r6, r2
 80059ee:	4d1d      	ldr	r5, [pc, #116]	; (8005a64 <vTaskPlaceOnEventListRestricted+0x7c>)
 80059f0:	460c      	mov	r4, r1
 80059f2:	6829      	ldr	r1, [r5, #0]
 80059f4:	3118      	adds	r1, #24
 80059f6:	f7fe fdb3 	bl	8004560 <vListInsertEnd>
 80059fa:	4b1b      	ldr	r3, [pc, #108]	; (8005a68 <vTaskPlaceOnEventListRestricted+0x80>)
 80059fc:	b1a6      	cbz	r6, 8005a28 <vTaskPlaceOnEventListRestricted+0x40>
 80059fe:	681b      	ldr	r3, [r3, #0]
 8005a00:	6828      	ldr	r0, [r5, #0]
 8005a02:	3004      	adds	r0, #4
 8005a04:	f7fe fdd4 	bl	80045b0 <uxListRemove>
 8005a08:	6829      	ldr	r1, [r5, #0]
 8005a0a:	4818      	ldr	r0, [pc, #96]	; (8005a6c <vTaskPlaceOnEventListRestricted+0x84>)
 8005a0c:	3104      	adds	r1, #4
 8005a0e:	e8bd 4070 	ldmia.w	sp!, {r4, r5, r6, lr}
 8005a12:	f7fe bda5 	b.w	8004560 <vListInsertEnd>
 8005a16:	f04f 0350 	mov.w	r3, #80	; 0x50
 8005a1a:	f383 8811 	msr	BASEPRI, r3
 8005a1e:	f3bf 8f6f 	isb	sy
 8005a22:	f3bf 8f4f 	dsb	sy
 8005a26:	e7fe      	b.n	8005a26 <vTaskPlaceOnEventListRestricted+0x3e>
 8005a28:	681e      	ldr	r6, [r3, #0]
 8005a2a:	6828      	ldr	r0, [r5, #0]
 8005a2c:	3004      	adds	r0, #4
 8005a2e:	f7fe fdbf 	bl	80045b0 <uxListRemove>
 8005a32:	682b      	ldr	r3, [r5, #0]
 8005a34:	19a4      	adds	r4, r4, r6
 8005a36:	605c      	str	r4, [r3, #4]
 8005a38:	d20b      	bcs.n	8005a52 <vTaskPlaceOnEventListRestricted+0x6a>
 8005a3a:	4b0d      	ldr	r3, [pc, #52]	; (8005a70 <vTaskPlaceOnEventListRestricted+0x88>)
 8005a3c:	6818      	ldr	r0, [r3, #0]
 8005a3e:	6829      	ldr	r1, [r5, #0]
 8005a40:	3104      	adds	r1, #4
 8005a42:	f7fe fd9b 	bl	800457c <vListInsert>
 8005a46:	4b0b      	ldr	r3, [pc, #44]	; (8005a74 <vTaskPlaceOnEventListRestricted+0x8c>)
 8005a48:	681a      	ldr	r2, [r3, #0]
 8005a4a:	4294      	cmp	r4, r2
 8005a4c:	bf38      	it	cc
 8005a4e:	601c      	strcc	r4, [r3, #0]
 8005a50:	bd70      	pop	{r4, r5, r6, pc}
 8005a52:	4b09      	ldr	r3, [pc, #36]	; (8005a78 <vTaskPlaceOnEventListRestricted+0x90>)
 8005a54:	6818      	ldr	r0, [r3, #0]
 8005a56:	6829      	ldr	r1, [r5, #0]
 8005a58:	e8bd 4070 	ldmia.w	sp!, {r4, r5, r6, lr}
 8005a5c:	3104      	adds	r1, #4
 8005a5e:	f7fe bd8d 	b.w	800457c <vListInsert>
 8005a62:	bf00      	nop
 8005a64:	200018a4 	.word	0x200018a4
 8005a68:	20001d98 	.word	0x20001d98
 8005a6c:	20001d70 	.word	0x20001d70
 8005a70:	200018a8 	.word	0x200018a8
 8005a74:	20001d50 	.word	0x20001d50
 8005a78:	200018ac 	.word	0x200018ac

08005a7c <xTaskRemoveFromEventList>:
 8005a7c:	b538      	push	{r3, r4, r5, lr}
 8005a7e:	68c3      	ldr	r3, [r0, #12]
 8005a80:	68dc      	ldr	r4, [r3, #12]
 8005a82:	b34c      	cbz	r4, 8005ad8 <xTaskRemoveFromEventList+0x5c>
 8005a84:	f104 0518 	add.w	r5, r4, #24
 8005a88:	4628      	mov	r0, r5
 8005a8a:	f7fe fd91 	bl	80045b0 <uxListRemove>
 8005a8e:	4b18      	ldr	r3, [pc, #96]	; (8005af0 <xTaskRemoveFromEventList+0x74>)
 8005a90:	681b      	ldr	r3, [r3, #0]
 8005a92:	b9e3      	cbnz	r3, 8005ace <xTaskRemoveFromEventList+0x52>
 8005a94:	1d25      	adds	r5, r4, #4
 8005a96:	4628      	mov	r0, r5
 8005a98:	f7fe fd8a 	bl	80045b0 <uxListRemove>
 8005a9c:	4a15      	ldr	r2, [pc, #84]	; (8005af4 <xTaskRemoveFromEventList+0x78>)
 8005a9e:	6ae3      	ldr	r3, [r4, #44]	; 0x2c
 8005aa0:	6811      	ldr	r1, [r2, #0]
 8005aa2:	4815      	ldr	r0, [pc, #84]	; (8005af8 <xTaskRemoveFromEventList+0x7c>)
 8005aa4:	428b      	cmp	r3, r1
 8005aa6:	bf88      	it	hi
 8005aa8:	6013      	strhi	r3, [r2, #0]
 8005aaa:	eb03 0383 	add.w	r3, r3, r3, lsl #2
 8005aae:	4629      	mov	r1, r5
 8005ab0:	eb00 0083 	add.w	r0, r0, r3, lsl #2
 8005ab4:	f7fe fd54 	bl	8004560 <vListInsertEnd>
 8005ab8:	4b10      	ldr	r3, [pc, #64]	; (8005afc <xTaskRemoveFromEventList+0x80>)
 8005aba:	6ae2      	ldr	r2, [r4, #44]	; 0x2c
 8005abc:	681b      	ldr	r3, [r3, #0]
 8005abe:	6adb      	ldr	r3, [r3, #44]	; 0x2c
 8005ac0:	429a      	cmp	r2, r3
 8005ac2:	d912      	bls.n	8005aea <xTaskRemoveFromEventList+0x6e>
 8005ac4:	2301      	movs	r3, #1
 8005ac6:	4a0e      	ldr	r2, [pc, #56]	; (8005b00 <xTaskRemoveFromEventList+0x84>)
 8005ac8:	4618      	mov	r0, r3
 8005aca:	6013      	str	r3, [r2, #0]
 8005acc:	bd38      	pop	{r3, r4, r5, pc}
 8005ace:	4629      	mov	r1, r5
 8005ad0:	480c      	ldr	r0, [pc, #48]	; (8005b04 <xTaskRemoveFromEventList+0x88>)
 8005ad2:	f7fe fd45 	bl	8004560 <vListInsertEnd>
 8005ad6:	e7ef      	b.n	8005ab8 <xTaskRemoveFromEventList+0x3c>
 8005ad8:	f04f 0350 	mov.w	r3, #80	; 0x50
 8005adc:	f383 8811 	msr	BASEPRI, r3
 8005ae0:	f3bf 8f6f 	isb	sy
 8005ae4:	f3bf 8f4f 	dsb	sy
 8005ae8:	e7fe      	b.n	8005ae8 <xTaskRemoveFromEventList+0x6c>
 8005aea:	2000      	movs	r0, #0
 8005aec:	bd38      	pop	{r3, r4, r5, pc}
 8005aee:	bf00      	nop
 8005af0:	20001d1c 	.word	0x20001d1c
 8005af4:	20001d24 	.word	0x20001d24
 8005af8:	200018b0 	.word	0x200018b0
 8005afc:	200018a4 	.word	0x200018a4
 8005b00:	20001d9c 	.word	0x20001d9c
 8005b04:	20001d58 	.word	0x20001d58

08005b08 <vTaskInternalSetTimeOutState>:
 8005b08:	4a03      	ldr	r2, [pc, #12]	; (8005b18 <vTaskInternalSetTimeOutState+0x10>)
 8005b0a:	4b04      	ldr	r3, [pc, #16]	; (8005b1c <vTaskInternalSetTimeOutState+0x14>)
 8005b0c:	6812      	ldr	r2, [r2, #0]
 8005b0e:	681b      	ldr	r3, [r3, #0]
 8005b10:	e9c0 2300 	strd	r2, r3, [r0]
 8005b14:	4770      	bx	lr
 8005b16:	bf00      	nop
 8005b18:	20001d54 	.word	0x20001d54
 8005b1c:	20001d98 	.word	0x20001d98

08005b20 <xTaskCheckForTimeOut>:
 8005b20:	b5f8      	push	{r3, r4, r5, r6, r7, lr}
 8005b22:	b340      	cbz	r0, 8005b76 <xTaskCheckForTimeOut+0x56>
 8005b24:	b1f1      	cbz	r1, 8005b64 <xTaskCheckForTimeOut+0x44>
 8005b26:	460d      	mov	r5, r1
 8005b28:	4604      	mov	r4, r0
 8005b2a:	f7fe fdab 	bl	8004684 <vPortEnterCritical>
 8005b2e:	f8df c078 	ldr.w	ip, [pc, #120]	; 8005ba8 <xTaskCheckForTimeOut+0x88>
 8005b32:	682b      	ldr	r3, [r5, #0]
 8005b34:	6867      	ldr	r7, [r4, #4]
 8005b36:	f8dc 6000 	ldr.w	r6, [ip]
 8005b3a:	1c59      	adds	r1, r3, #1
 8005b3c:	eba6 0207 	sub.w	r2, r6, r7
 8005b40:	d022      	beq.n	8005b88 <xTaskCheckForTimeOut+0x68>
 8005b42:	4818      	ldr	r0, [pc, #96]	; (8005ba4 <xTaskCheckForTimeOut+0x84>)
 8005b44:	6821      	ldr	r1, [r4, #0]
 8005b46:	f8d0 e000 	ldr.w	lr, [r0]
 8005b4a:	4571      	cmp	r1, lr
 8005b4c:	d001      	beq.n	8005b52 <xTaskCheckForTimeOut+0x32>
 8005b4e:	42b7      	cmp	r7, r6
 8005b50:	d925      	bls.n	8005b9e <xTaskCheckForTimeOut+0x7e>
 8005b52:	4293      	cmp	r3, r2
 8005b54:	d81a      	bhi.n	8005b8c <xTaskCheckForTimeOut+0x6c>
 8005b56:	2300      	movs	r3, #0
 8005b58:	2601      	movs	r6, #1
 8005b5a:	602b      	str	r3, [r5, #0]
 8005b5c:	f7fe fdb4 	bl	80046c8 <vPortExitCritical>
 8005b60:	4630      	mov	r0, r6
 8005b62:	bdf8      	pop	{r3, r4, r5, r6, r7, pc}
 8005b64:	f04f 0350 	mov.w	r3, #80	; 0x50
 8005b68:	f383 8811 	msr	BASEPRI, r3
 8005b6c:	f3bf 8f6f 	isb	sy
 8005b70:	f3bf 8f4f 	dsb	sy
 8005b74:	e7fe      	b.n	8005b74 <xTaskCheckForTimeOut+0x54>
 8005b76:	f04f 0350 	mov.w	r3, #80	; 0x50
 8005b7a:	f383 8811 	msr	BASEPRI, r3
 8005b7e:	f3bf 8f6f 	isb	sy
 8005b82:	f3bf 8f4f 	dsb	sy
 8005b86:	e7fe      	b.n	8005b86 <xTaskCheckForTimeOut+0x66>
 8005b88:	2600      	movs	r6, #0
 8005b8a:	e7e7      	b.n	8005b5c <xTaskCheckForTimeOut+0x3c>
 8005b8c:	6800      	ldr	r0, [r0, #0]
 8005b8e:	f8dc 1000 	ldr.w	r1, [ip]
 8005b92:	1a9b      	subs	r3, r3, r2
 8005b94:	602b      	str	r3, [r5, #0]
 8005b96:	2600      	movs	r6, #0
 8005b98:	e9c4 0100 	strd	r0, r1, [r4]
 8005b9c:	e7de      	b.n	8005b5c <xTaskCheckForTimeOut+0x3c>
 8005b9e:	2601      	movs	r6, #1
 8005ba0:	e7dc      	b.n	8005b5c <xTaskCheckForTimeOut+0x3c>
 8005ba2:	bf00      	nop
 8005ba4:	20001d54 	.word	0x20001d54
 8005ba8:	20001d98 	.word	0x20001d98

08005bac <vTaskMissedYield>:
 8005bac:	2201      	movs	r2, #1
 8005bae:	4b01      	ldr	r3, [pc, #4]	; (8005bb4 <vTaskMissedYield+0x8>)
 8005bb0:	601a      	str	r2, [r3, #0]
 8005bb2:	4770      	bx	lr
 8005bb4:	20001d9c 	.word	0x20001d9c

08005bb8 <xTaskGetSchedulerState>:
 8005bb8:	4b05      	ldr	r3, [pc, #20]	; (8005bd0 <xTaskGetSchedulerState+0x18>)
 8005bba:	681b      	ldr	r3, [r3, #0]
 8005bbc:	b133      	cbz	r3, 8005bcc <xTaskGetSchedulerState+0x14>
 8005bbe:	4b05      	ldr	r3, [pc, #20]	; (8005bd4 <xTaskGetSchedulerState+0x1c>)
 8005bc0:	681b      	ldr	r3, [r3, #0]
 8005bc2:	2b00      	cmp	r3, #0
 8005bc4:	bf0c      	ite	eq
 8005bc6:	2002      	moveq	r0, #2
 8005bc8:	2000      	movne	r0, #0
 8005bca:	4770      	bx	lr
 8005bcc:	2001      	movs	r0, #1
 8005bce:	4770      	bx	lr
 8005bd0:	20001d6c 	.word	0x20001d6c
 8005bd4:	20001d1c 	.word	0x20001d1c

08005bd8 <xTaskPriorityDisinherit>:
 8005bd8:	b168      	cbz	r0, 8005bf6 <xTaskPriorityDisinherit+0x1e>
 8005bda:	b538      	push	{r3, r4, r5, lr}
 8005bdc:	4b1c      	ldr	r3, [pc, #112]	; (8005c50 <xTaskPriorityDisinherit+0x78>)
 8005bde:	681c      	ldr	r4, [r3, #0]
 8005be0:	4284      	cmp	r4, r0
 8005be2:	d00a      	beq.n	8005bfa <xTaskPriorityDisinherit+0x22>
 8005be4:	f04f 0350 	mov.w	r3, #80	; 0x50
 8005be8:	f383 8811 	msr	BASEPRI, r3
 8005bec:	f3bf 8f6f 	isb	sy
 8005bf0:	f3bf 8f4f 	dsb	sy
 8005bf4:	e7fe      	b.n	8005bf4 <xTaskPriorityDisinherit+0x1c>
 8005bf6:	2000      	movs	r0, #0
 8005bf8:	4770      	bx	lr
 8005bfa:	6d23      	ldr	r3, [r4, #80]	; 0x50
 8005bfc:	b943      	cbnz	r3, 8005c10 <xTaskPriorityDisinherit+0x38>
 8005bfe:	f04f 0350 	mov.w	r3, #80	; 0x50
 8005c02:	f383 8811 	msr	BASEPRI, r3
 8005c06:	f3bf 8f6f 	isb	sy
 8005c0a:	f3bf 8f4f 	dsb	sy
 8005c0e:	e7fe      	b.n	8005c0e <xTaskPriorityDisinherit+0x36>
 8005c10:	6ae1      	ldr	r1, [r4, #44]	; 0x2c
 8005c12:	6ce2      	ldr	r2, [r4, #76]	; 0x4c
 8005c14:	3b01      	subs	r3, #1
 8005c16:	4291      	cmp	r1, r2
 8005c18:	6523      	str	r3, [r4, #80]	; 0x50
 8005c1a:	d000      	beq.n	8005c1e <xTaskPriorityDisinherit+0x46>
 8005c1c:	b10b      	cbz	r3, 8005c22 <xTaskPriorityDisinherit+0x4a>
 8005c1e:	2000      	movs	r0, #0
 8005c20:	bd38      	pop	{r3, r4, r5, pc}
 8005c22:	1d25      	adds	r5, r4, #4
 8005c24:	4628      	mov	r0, r5
 8005c26:	f7fe fcc3 	bl	80045b0 <uxListRemove>
 8005c2a:	6ce3      	ldr	r3, [r4, #76]	; 0x4c
 8005c2c:	4a09      	ldr	r2, [pc, #36]	; (8005c54 <xTaskPriorityDisinherit+0x7c>)
 8005c2e:	f1c3 0038 	rsb	r0, r3, #56	; 0x38
 8005c32:	61a0      	str	r0, [r4, #24]
 8005c34:	2014      	movs	r0, #20
 8005c36:	6811      	ldr	r1, [r2, #0]
 8005c38:	62e3      	str	r3, [r4, #44]	; 0x2c
 8005c3a:	428b      	cmp	r3, r1
 8005c3c:	bf88      	it	hi
 8005c3e:	6013      	strhi	r3, [r2, #0]
 8005c40:	4a05      	ldr	r2, [pc, #20]	; (8005c58 <xTaskPriorityDisinherit+0x80>)
 8005c42:	4629      	mov	r1, r5
 8005c44:	fb00 2003 	mla	r0, r0, r3, r2
 8005c48:	f7fe fc8a 	bl	8004560 <vListInsertEnd>
 8005c4c:	2001      	movs	r0, #1
 8005c4e:	bd38      	pop	{r3, r4, r5, pc}
 8005c50:	200018a4 	.word	0x200018a4
 8005c54:	20001d24 	.word	0x20001d24
 8005c58:	200018b0 	.word	0x200018b0

08005c5c <prvSwitchTimerLists>:
 8005c5c:	e92d 43f0 	stmdb	sp!, {r4, r5, r6, r7, r8, r9, lr}
 8005c60:	4e20      	ldr	r6, [pc, #128]	; (8005ce4 <prvSwitchTimerLists+0x88>)
 8005c62:	b085      	sub	sp, #20
 8005c64:	4f20      	ldr	r7, [pc, #128]	; (8005ce8 <prvSwitchTimerLists+0x8c>)
 8005c66:	f04f 0800 	mov.w	r8, #0
 8005c6a:	e00d      	b.n	8005c88 <prvSwitchTimerLists+0x2c>
 8005c6c:	68db      	ldr	r3, [r3, #12]
 8005c6e:	68dc      	ldr	r4, [r3, #12]
 8005c70:	f8d3 9000 	ldr.w	r9, [r3]
 8005c74:	1d25      	adds	r5, r4, #4
 8005c76:	4628      	mov	r0, r5
 8005c78:	f7fe fc9a 	bl	80045b0 <uxListRemove>
 8005c7c:	6a63      	ldr	r3, [r4, #36]	; 0x24
 8005c7e:	4620      	mov	r0, r4
 8005c80:	4798      	blx	r3
 8005c82:	69e3      	ldr	r3, [r4, #28]
 8005c84:	2b01      	cmp	r3, #1
 8005c86:	d00a      	beq.n	8005c9e <prvSwitchTimerLists+0x42>
 8005c88:	6833      	ldr	r3, [r6, #0]
 8005c8a:	681a      	ldr	r2, [r3, #0]
 8005c8c:	2a00      	cmp	r2, #0
 8005c8e:	d1ed      	bne.n	8005c6c <prvSwitchTimerLists+0x10>
 8005c90:	4a16      	ldr	r2, [pc, #88]	; (8005cec <prvSwitchTimerLists+0x90>)
 8005c92:	6811      	ldr	r1, [r2, #0]
 8005c94:	6013      	str	r3, [r2, #0]
 8005c96:	6031      	str	r1, [r6, #0]
 8005c98:	b005      	add	sp, #20
 8005c9a:	e8bd 83f0 	ldmia.w	sp!, {r4, r5, r6, r7, r8, r9, pc}
 8005c9e:	69a3      	ldr	r3, [r4, #24]
 8005ca0:	444b      	add	r3, r9
 8005ca2:	4599      	cmp	r9, r3
 8005ca4:	d317      	bcc.n	8005cd6 <prvSwitchTimerLists+0x7a>
 8005ca6:	683b      	ldr	r3, [r7, #0]
 8005ca8:	b163      	cbz	r3, 8005cc4 <prvSwitchTimerLists+0x68>
 8005caa:	e9cd 8900 	strd	r8, r9, [sp]
 8005cae:	9402      	str	r4, [sp, #8]
 8005cb0:	f7ff ff82 	bl	8005bb8 <xTaskGetSchedulerState>
 8005cb4:	2300      	movs	r3, #0
 8005cb6:	4669      	mov	r1, sp
 8005cb8:	461a      	mov	r2, r3
 8005cba:	6838      	ldr	r0, [r7, #0]
 8005cbc:	f7fe fe44 	bl	8004948 <xQueueGenericSend>
 8005cc0:	2800      	cmp	r0, #0
 8005cc2:	d1e1      	bne.n	8005c88 <prvSwitchTimerLists+0x2c>
 8005cc4:	f04f 0350 	mov.w	r3, #80	; 0x50
 8005cc8:	f383 8811 	msr	BASEPRI, r3
 8005ccc:	f3bf 8f6f 	isb	sy
 8005cd0:	f3bf 8f4f 	dsb	sy
 8005cd4:	e7fe      	b.n	8005cd4 <prvSwitchTimerLists+0x78>
 8005cd6:	6063      	str	r3, [r4, #4]
 8005cd8:	6124      	str	r4, [r4, #16]
 8005cda:	4629      	mov	r1, r5
 8005cdc:	6830      	ldr	r0, [r6, #0]
 8005cde:	f7fe fc4d 	bl	800457c <vListInsert>
 8005ce2:	e7d1      	b.n	8005c88 <prvSwitchTimerLists+0x2c>
 8005ce4:	20001da0 	.word	0x20001da0
 8005ce8:	20001ec4 	.word	0x20001ec4
 8005cec:	20001da4 	.word	0x20001da4

08005cf0 <prvTimerTask>:
 8005cf0:	e92d 4ff0 	stmdb	sp!, {r4, r5, r6, r7, r8, r9, sl, fp, lr}
 8005cf4:	f04f 0a01 	mov.w	sl, #1
 8005cf8:	4f8e      	ldr	r7, [pc, #568]	; (8005f34 <prvTimerTask+0x244>)
 8005cfa:	4e8f      	ldr	r6, [pc, #572]	; (8005f38 <prvTimerTask+0x248>)
 8005cfc:	f8df 9244 	ldr.w	r9, [pc, #580]	; 8005f44 <prvTimerTask+0x254>
 8005d00:	4d8e      	ldr	r5, [pc, #568]	; (8005f3c <prvTimerTask+0x24c>)
 8005d02:	b08b      	sub	sp, #44	; 0x2c
 8005d04:	683b      	ldr	r3, [r7, #0]
 8005d06:	681c      	ldr	r4, [r3, #0]
 8005d08:	2c00      	cmp	r4, #0
 8005d0a:	d052      	beq.n	8005db2 <prvTimerTask+0xc2>
 8005d0c:	68db      	ldr	r3, [r3, #12]
 8005d0e:	681c      	ldr	r4, [r3, #0]
 8005d10:	f7ff fc86 	bl	8005620 <vTaskSuspendAll>
 8005d14:	f7ff fc8c 	bl	8005630 <xTaskGetTickCount>
 8005d18:	6832      	ldr	r2, [r6, #0]
 8005d1a:	4683      	mov	fp, r0
 8005d1c:	4290      	cmp	r0, r2
 8005d1e:	d359      	bcc.n	8005dd4 <prvTimerTask+0xe4>
 8005d20:	4284      	cmp	r4, r0
 8005d22:	6030      	str	r0, [r6, #0]
 8005d24:	d973      	bls.n	8005e0e <prvTimerTask+0x11e>
 8005d26:	2200      	movs	r2, #0
 8005d28:	eba4 010b 	sub.w	r1, r4, fp
 8005d2c:	6828      	ldr	r0, [r5, #0]
 8005d2e:	f7ff f965 	bl	8004ffc <vQueueWaitForMessageRestricted>
 8005d32:	f7ff fd27 	bl	8005784 <xTaskResumeAll>
 8005d36:	b938      	cbnz	r0, 8005d48 <prvTimerTask+0x58>
 8005d38:	f04f 5380 	mov.w	r3, #268435456	; 0x10000000
 8005d3c:	4a80      	ldr	r2, [pc, #512]	; (8005f40 <prvTimerTask+0x250>)
 8005d3e:	6013      	str	r3, [r2, #0]
 8005d40:	f3bf 8f4f 	dsb	sy
 8005d44:	f3bf 8f6f 	isb	sy
 8005d48:	f04f 0800 	mov.w	r8, #0
 8005d4c:	2200      	movs	r2, #0
 8005d4e:	a902      	add	r1, sp, #8
 8005d50:	6828      	ldr	r0, [r5, #0]
 8005d52:	f7fe ffc5 	bl	8004ce0 <xQueueReceive>
 8005d56:	2800      	cmp	r0, #0
 8005d58:	d0d4      	beq.n	8005d04 <prvTimerTask+0x14>
 8005d5a:	9b02      	ldr	r3, [sp, #8]
 8005d5c:	9c04      	ldr	r4, [sp, #16]
 8005d5e:	2b00      	cmp	r3, #0
 8005d60:	da07      	bge.n	8005d72 <prvTimerTask+0x82>
 8005d62:	9b03      	ldr	r3, [sp, #12]
 8005d64:	4620      	mov	r0, r4
 8005d66:	9905      	ldr	r1, [sp, #20]
 8005d68:	4798      	blx	r3
 8005d6a:	9b02      	ldr	r3, [sp, #8]
 8005d6c:	2b00      	cmp	r3, #0
 8005d6e:	dbed      	blt.n	8005d4c <prvTimerTask+0x5c>
 8005d70:	9c04      	ldr	r4, [sp, #16]
 8005d72:	6963      	ldr	r3, [r4, #20]
 8005d74:	b113      	cbz	r3, 8005d7c <prvTimerTask+0x8c>
 8005d76:	1d20      	adds	r0, r4, #4
 8005d78:	f7fe fc1a 	bl	80045b0 <uxListRemove>
 8005d7c:	f7ff fc58 	bl	8005630 <xTaskGetTickCount>
 8005d80:	6833      	ldr	r3, [r6, #0]
 8005d82:	4298      	cmp	r0, r3
 8005d84:	d32d      	bcc.n	8005de2 <prvTimerTask+0xf2>
 8005d86:	9b02      	ldr	r3, [sp, #8]
 8005d88:	6030      	str	r0, [r6, #0]
 8005d8a:	2b09      	cmp	r3, #9
 8005d8c:	d8de      	bhi.n	8005d4c <prvTimerTask+0x5c>
 8005d8e:	fa0a f303 	lsl.w	r3, sl, r3
 8005d92:	f413 7f04 	tst.w	r3, #528	; 0x210
 8005d96:	d129      	bne.n	8005dec <prvTimerTask+0xfc>
 8005d98:	f013 0fc7 	tst.w	r3, #199	; 0xc7
 8005d9c:	d14d      	bne.n	8005e3a <prvTimerTask+0x14a>
 8005d9e:	069b      	lsls	r3, r3, #26
 8005da0:	d5d4      	bpl.n	8005d4c <prvTimerTask+0x5c>
 8005da2:	f894 302c 	ldrb.w	r3, [r4, #44]	; 0x2c
 8005da6:	2b00      	cmp	r3, #0
 8005da8:	d1d0      	bne.n	8005d4c <prvTimerTask+0x5c>
 8005daa:	4620      	mov	r0, r4
 8005dac:	f7fe fb90 	bl	80044d0 <vPortFree>
 8005db0:	e7cc      	b.n	8005d4c <prvTimerTask+0x5c>
 8005db2:	f7ff fc35 	bl	8005620 <vTaskSuspendAll>
 8005db6:	f7ff fc3b 	bl	8005630 <xTaskGetTickCount>
 8005dba:	6832      	ldr	r2, [r6, #0]
 8005dbc:	4683      	mov	fp, r0
 8005dbe:	4282      	cmp	r2, r0
 8005dc0:	d808      	bhi.n	8005dd4 <prvTimerTask+0xe4>
 8005dc2:	f8d9 2000 	ldr.w	r2, [r9]
 8005dc6:	f8c6 b000 	str.w	fp, [r6]
 8005dca:	6812      	ldr	r2, [r2, #0]
 8005dcc:	fab2 f282 	clz	r2, r2
 8005dd0:	0952      	lsrs	r2, r2, #5
 8005dd2:	e7a9      	b.n	8005d28 <prvTimerTask+0x38>
 8005dd4:	f7ff ff42 	bl	8005c5c <prvSwitchTimerLists>
 8005dd8:	f8c6 b000 	str.w	fp, [r6]
 8005ddc:	f7ff fcd2 	bl	8005784 <xTaskResumeAll>
 8005de0:	e7b2      	b.n	8005d48 <prvTimerTask+0x58>
 8005de2:	9001      	str	r0, [sp, #4]
 8005de4:	f7ff ff3a 	bl	8005c5c <prvSwitchTimerLists>
 8005de8:	9801      	ldr	r0, [sp, #4]
 8005dea:	e7cc      	b.n	8005d86 <prvTimerTask+0x96>
 8005dec:	9b03      	ldr	r3, [sp, #12]
 8005dee:	61a3      	str	r3, [r4, #24]
 8005df0:	2b00      	cmp	r3, #0
 8005df2:	d064      	beq.n	8005ebe <prvTimerTask+0x1ce>
 8005df4:	4403      	add	r3, r0
 8005df6:	4283      	cmp	r3, r0
 8005df8:	6063      	str	r3, [r4, #4]
 8005dfa:	6124      	str	r4, [r4, #16]
 8005dfc:	f104 0104 	add.w	r1, r4, #4
 8005e00:	bf94      	ite	ls
 8005e02:	f8d9 0000 	ldrls.w	r0, [r9]
 8005e06:	6838      	ldrhi	r0, [r7, #0]
 8005e08:	f7fe fbb8 	bl	800457c <vListInsert>
 8005e0c:	e79e      	b.n	8005d4c <prvTimerTask+0x5c>
 8005e0e:	f7ff fcb9 	bl	8005784 <xTaskResumeAll>
 8005e12:	683a      	ldr	r2, [r7, #0]
 8005e14:	68d2      	ldr	r2, [r2, #12]
 8005e16:	f8d2 800c 	ldr.w	r8, [r2, #12]
 8005e1a:	f108 0104 	add.w	r1, r8, #4
 8005e1e:	4608      	mov	r0, r1
 8005e20:	9101      	str	r1, [sp, #4]
 8005e22:	f7fe fbc5 	bl	80045b0 <uxListRemove>
 8005e26:	f8d8 201c 	ldr.w	r2, [r8, #28]
 8005e2a:	9901      	ldr	r1, [sp, #4]
 8005e2c:	2a01      	cmp	r2, #1
 8005e2e:	d04f      	beq.n	8005ed0 <prvTimerTask+0x1e0>
 8005e30:	f8d8 3024 	ldr.w	r3, [r8, #36]	; 0x24
 8005e34:	4640      	mov	r0, r8
 8005e36:	4798      	blx	r3
 8005e38:	e786      	b.n	8005d48 <prvTimerTask+0x58>
 8005e3a:	9b03      	ldr	r3, [sp, #12]
 8005e3c:	69a2      	ldr	r2, [r4, #24]
 8005e3e:	6124      	str	r4, [r4, #16]
 8005e40:	1899      	adds	r1, r3, r2
 8005e42:	bf2c      	ite	cs
 8005e44:	f04f 0c01 	movcs.w	ip, #1
 8005e48:	f04f 0c00 	movcc.w	ip, #0
 8005e4c:	4281      	cmp	r1, r0
 8005e4e:	6061      	str	r1, [r4, #4]
 8005e50:	d825      	bhi.n	8005e9e <prvTimerTask+0x1ae>
 8005e52:	1ac3      	subs	r3, r0, r3
 8005e54:	429a      	cmp	r2, r3
 8005e56:	d82c      	bhi.n	8005eb2 <prvTimerTask+0x1c2>
 8005e58:	6a63      	ldr	r3, [r4, #36]	; 0x24
 8005e5a:	4620      	mov	r0, r4
 8005e5c:	4798      	blx	r3
 8005e5e:	69e3      	ldr	r3, [r4, #28]
 8005e60:	2b01      	cmp	r3, #1
 8005e62:	f47f af73 	bne.w	8005d4c <prvTimerTask+0x5c>
 8005e66:	9b03      	ldr	r3, [sp, #12]
 8005e68:	69a1      	ldr	r1, [r4, #24]
 8005e6a:	682a      	ldr	r2, [r5, #0]
 8005e6c:	440b      	add	r3, r1
 8005e6e:	b16a      	cbz	r2, 8005e8c <prvTimerTask+0x19c>
 8005e70:	e9cd 8306 	strd	r8, r3, [sp, #24]
 8005e74:	9408      	str	r4, [sp, #32]
 8005e76:	f7ff fe9f 	bl	8005bb8 <xTaskGetSchedulerState>
 8005e7a:	2300      	movs	r3, #0
 8005e7c:	a906      	add	r1, sp, #24
 8005e7e:	461a      	mov	r2, r3
 8005e80:	6828      	ldr	r0, [r5, #0]
 8005e82:	f7fe fd61 	bl	8004948 <xQueueGenericSend>
 8005e86:	2800      	cmp	r0, #0
 8005e88:	f47f af60 	bne.w	8005d4c <prvTimerTask+0x5c>
 8005e8c:	f04f 0350 	mov.w	r3, #80	; 0x50
 8005e90:	f383 8811 	msr	BASEPRI, r3
 8005e94:	f3bf 8f6f 	isb	sy
 8005e98:	f3bf 8f4f 	dsb	sy
 8005e9c:	e7fe      	b.n	8005e9c <prvTimerTask+0x1ac>
 8005e9e:	4283      	cmp	r3, r0
 8005ea0:	d902      	bls.n	8005ea8 <prvTimerTask+0x1b8>
 8005ea2:	f1bc 0f00 	cmp.w	ip, #0
 8005ea6:	d0d7      	beq.n	8005e58 <prvTimerTask+0x168>
 8005ea8:	1d21      	adds	r1, r4, #4
 8005eaa:	6838      	ldr	r0, [r7, #0]
 8005eac:	f7fe fb66 	bl	800457c <vListInsert>
 8005eb0:	e74c      	b.n	8005d4c <prvTimerTask+0x5c>
 8005eb2:	1d21      	adds	r1, r4, #4
 8005eb4:	f8d9 0000 	ldr.w	r0, [r9]
 8005eb8:	f7fe fb60 	bl	800457c <vListInsert>
 8005ebc:	e746      	b.n	8005d4c <prvTimerTask+0x5c>
 8005ebe:	f04f 0350 	mov.w	r3, #80	; 0x50
 8005ec2:	f383 8811 	msr	BASEPRI, r3
 8005ec6:	f3bf 8f6f 	isb	sy
 8005eca:	f3bf 8f4f 	dsb	sy
 8005ece:	e7fe      	b.n	8005ece <prvTimerTask+0x1de>
 8005ed0:	f8d8 2018 	ldr.w	r2, [r8, #24]
 8005ed4:	f8c8 8010 	str.w	r8, [r8, #16]
 8005ed8:	18a0      	adds	r0, r4, r2
 8005eda:	4583      	cmp	fp, r0
 8005edc:	f8c8 0004 	str.w	r0, [r8, #4]
 8005ee0:	d323      	bcc.n	8005f2a <prvTimerTask+0x23a>
 8005ee2:	ebab 0304 	sub.w	r3, fp, r4
 8005ee6:	429a      	cmp	r2, r3
 8005ee8:	d81a      	bhi.n	8005f20 <prvTimerTask+0x230>
 8005eea:	682b      	ldr	r3, [r5, #0]
 8005eec:	b17b      	cbz	r3, 8005f0e <prvTimerTask+0x21e>
 8005eee:	f04f 0b00 	mov.w	fp, #0
 8005ef2:	e9cd 4807 	strd	r4, r8, [sp, #28]
 8005ef6:	f8cd b018 	str.w	fp, [sp, #24]
 8005efa:	f7ff fe5d 	bl	8005bb8 <xTaskGetSchedulerState>
 8005efe:	465b      	mov	r3, fp
 8005f00:	465a      	mov	r2, fp
 8005f02:	a906      	add	r1, sp, #24
 8005f04:	6828      	ldr	r0, [r5, #0]
 8005f06:	f7fe fd1f 	bl	8004948 <xQueueGenericSend>
 8005f0a:	2800      	cmp	r0, #0
 8005f0c:	d190      	bne.n	8005e30 <prvTimerTask+0x140>
 8005f0e:	f04f 0350 	mov.w	r3, #80	; 0x50
 8005f12:	f383 8811 	msr	BASEPRI, r3
 8005f16:	f3bf 8f6f 	isb	sy
 8005f1a:	f3bf 8f4f 	dsb	sy
 8005f1e:	e7fe      	b.n	8005f1e <prvTimerTask+0x22e>
 8005f20:	f8d9 0000 	ldr.w	r0, [r9]
 8005f24:	f7fe fb2a 	bl	800457c <vListInsert>
 8005f28:	e782      	b.n	8005e30 <prvTimerTask+0x140>
 8005f2a:	6838      	ldr	r0, [r7, #0]
 8005f2c:	f7fe fb26 	bl	800457c <vListInsert>
 8005f30:	e77e      	b.n	8005e30 <prvTimerTask+0x140>
 8005f32:	bf00      	nop
 8005f34:	20001da0 	.word	0x20001da0
 8005f38:	20001e70 	.word	0x20001e70
 8005f3c:	20001ec4 	.word	0x20001ec4
 8005f40:	e000ed04 	.word	0xe000ed04
 8005f44:	20001da4 	.word	0x20001da4

08005f48 <xTimerCreateTimerTask>:
 8005f48:	b5f0      	push	{r4, r5, r6, r7, lr}
 8005f4a:	4c23      	ldr	r4, [pc, #140]	; (8005fd8 <xTimerCreateTimerTask+0x90>)
 8005f4c:	b089      	sub	sp, #36	; 0x24
 8005f4e:	f7fe fb99 	bl	8004684 <vPortEnterCritical>
 8005f52:	6827      	ldr	r7, [r4, #0]
 8005f54:	b32f      	cbz	r7, 8005fa2 <xTimerCreateTimerTask+0x5a>
 8005f56:	f7fe fbb7 	bl	80046c8 <vPortExitCritical>
 8005f5a:	6823      	ldr	r3, [r4, #0]
 8005f5c:	b1c3      	cbz	r3, 8005f90 <xTimerCreateTimerTask+0x48>
 8005f5e:	2400      	movs	r4, #0
 8005f60:	2502      	movs	r5, #2
 8005f62:	aa07      	add	r2, sp, #28
 8005f64:	a906      	add	r1, sp, #24
 8005f66:	a805      	add	r0, sp, #20
 8005f68:	e9cd 4405 	strd	r4, r4, [sp, #20]
 8005f6c:	f7fe f9e6 	bl	800433c <vApplicationGetTimerTaskMemory>
 8005f70:	a805      	add	r0, sp, #20
 8005f72:	c807      	ldmia	r0, {r0, r1, r2}
 8005f74:	4623      	mov	r3, r4
 8005f76:	e9cd 1001 	strd	r1, r0, [sp, #4]
 8005f7a:	9500      	str	r5, [sp, #0]
 8005f7c:	4917      	ldr	r1, [pc, #92]	; (8005fdc <xTimerCreateTimerTask+0x94>)
 8005f7e:	4818      	ldr	r0, [pc, #96]	; (8005fe0 <xTimerCreateTimerTask+0x98>)
 8005f80:	f7ff f9fc 	bl	800537c <xTaskCreateStatic>
 8005f84:	4b17      	ldr	r3, [pc, #92]	; (8005fe4 <xTimerCreateTimerTask+0x9c>)
 8005f86:	6018      	str	r0, [r3, #0]
 8005f88:	b110      	cbz	r0, 8005f90 <xTimerCreateTimerTask+0x48>
 8005f8a:	2001      	movs	r0, #1
 8005f8c:	b009      	add	sp, #36	; 0x24
 8005f8e:	bdf0      	pop	{r4, r5, r6, r7, pc}
 8005f90:	f04f 0350 	mov.w	r3, #80	; 0x50
 8005f94:	f383 8811 	msr	BASEPRI, r3
 8005f98:	f3bf 8f6f 	isb	sy
 8005f9c:	f3bf 8f4f 	dsb	sy
 8005fa0:	e7fe      	b.n	8005fa0 <xTimerCreateTimerTask+0x58>
 8005fa2:	4e11      	ldr	r6, [pc, #68]	; (8005fe8 <xTimerCreateTimerTask+0xa0>)
 8005fa4:	4d11      	ldr	r5, [pc, #68]	; (8005fec <xTimerCreateTimerTask+0xa4>)
 8005fa6:	4630      	mov	r0, r6
 8005fa8:	f7fe faca 	bl	8004540 <vListInitialise>
 8005fac:	4628      	mov	r0, r5
 8005fae:	f7fe fac7 	bl	8004540 <vListInitialise>
 8005fb2:	4a0f      	ldr	r2, [pc, #60]	; (8005ff0 <xTimerCreateTimerTask+0xa8>)
 8005fb4:	480f      	ldr	r0, [pc, #60]	; (8005ff4 <xTimerCreateTimerTask+0xac>)
 8005fb6:	9700      	str	r7, [sp, #0]
 8005fb8:	4b0f      	ldr	r3, [pc, #60]	; (8005ff8 <xTimerCreateTimerTask+0xb0>)
 8005fba:	6016      	str	r6, [r2, #0]
 8005fbc:	6005      	str	r5, [r0, #0]
 8005fbe:	4a0f      	ldr	r2, [pc, #60]	; (8005ffc <xTimerCreateTimerTask+0xb4>)
 8005fc0:	2110      	movs	r1, #16
 8005fc2:	200a      	movs	r0, #10
 8005fc4:	f7fe fc6a 	bl	800489c <xQueueGenericCreateStatic>
 8005fc8:	6020      	str	r0, [r4, #0]
 8005fca:	2800      	cmp	r0, #0
 8005fcc:	d0c3      	beq.n	8005f56 <xTimerCreateTimerTask+0xe>
 8005fce:	490c      	ldr	r1, [pc, #48]	; (8006000 <xTimerCreateTimerTask+0xb8>)
 8005fd0:	f7fe ffea 	bl	8004fa8 <vQueueAddToRegistry>
 8005fd4:	e7bf      	b.n	8005f56 <xTimerCreateTimerTask+0xe>
 8005fd6:	bf00      	nop
 8005fd8:	20001ec4 	.word	0x20001ec4
 8005fdc:	08007fd4 	.word	0x08007fd4
 8005fe0:	08005cf1 	.word	0x08005cf1
 8005fe4:	20001ec8 	.word	0x20001ec8
 8005fe8:	20001e48 	.word	0x20001e48
 8005fec:	20001e5c 	.word	0x20001e5c
 8005ff0:	20001da0 	.word	0x20001da0
 8005ff4:	20001da4 	.word	0x20001da4
 8005ff8:	20001e74 	.word	0x20001e74
 8005ffc:	20001da8 	.word	0x20001da8
 8006000:	08007fcc 	.word	0x08007fcc

08006004 <VBS_GetAvBusVoltage_V>:
 8006004:	88c3      	ldrh	r3, [r0, #6]
 8006006:	8840      	ldrh	r0, [r0, #2]
 8006008:	fb03 f000 	mul.w	r0, r3, r0
 800600c:	0c00      	lsrs	r0, r0, #16
 800600e:	4770      	bx	lr

08006010 <Circle_Limitation>:
 8006010:	140b      	asrs	r3, r1, #16
 8006012:	b410      	push	{r4}
 8006014:	fb03 f403 	mul.w	r4, r3, r3
 8006018:	8802      	ldrh	r2, [r0, #0]
 800601a:	b209      	sxth	r1, r1
 800601c:	fb02 f202 	mul.w	r2, r2, r2
 8006020:	fb01 4401 	mla	r4, r1, r1, r4
 8006024:	42a2      	cmp	r2, r4
 8006026:	b085      	sub	sp, #20
 8006028:	d219      	bcs.n	800605e <Circle_Limitation+0x4e>
 800602a:	f890 20b2 	ldrb.w	r2, [r0, #178]	; 0xb2
 800602e:	ebc2 6414 	rsb	r4, r2, r4, lsr #24
 8006032:	b2e4      	uxtb	r4, r4
 8006034:	eb00 0044 	add.w	r0, r0, r4, lsl #1
 8006038:	8882      	ldrh	r2, [r0, #4]
 800603a:	fb02 f101 	mul.w	r1, r2, r1
 800603e:	fb02 f303 	mul.w	r3, r2, r3
 8006042:	2900      	cmp	r1, #0
 8006044:	bfbc      	itt	lt
 8006046:	f501 41ff 	addlt.w	r1, r1, #32640	; 0x7f80
 800604a:	317f      	addlt	r1, #127	; 0x7f
 800604c:	2b00      	cmp	r3, #0
 800604e:	bfbc      	itt	lt
 8006050:	f503 43ff 	addlt.w	r3, r3, #32640	; 0x7f80
 8006054:	337f      	addlt	r3, #127	; 0x7f
 8006056:	f341 31cf 	sbfx	r1, r1, #15, #16
 800605a:	f343 33cf 	sbfx	r3, r3, #15, #16
 800605e:	2000      	movs	r0, #0
 8006060:	b289      	uxth	r1, r1
 8006062:	b29b      	uxth	r3, r3
 8006064:	f361 000f 	bfi	r0, r1, #0, #16
 8006068:	f363 401f 	bfi	r0, r3, #16, #16
 800606c:	b005      	add	sp, #20
 800606e:	bc10      	pop	{r4}
 8006070:	4770      	bx	lr
 8006072:	bf00      	nop

08006074 <FCP_Init>:
 8006074:	2300      	movs	r3, #0
 8006076:	8243      	strh	r3, [r0, #18]
 8006078:	8283      	strh	r3, [r0, #20]
 800607a:	f8c0 3096 	str.w	r3, [r0, #150]	; 0x96
 800607e:	f880 309a 	strb.w	r3, [r0, #154]	; 0x9a
 8006082:	f880 311b 	strb.w	r3, [r0, #283]	; 0x11b
 8006086:	f880 311c 	strb.w	r3, [r0, #284]	; 0x11c
 800608a:	f880 311d 	strb.w	r3, [r0, #285]	; 0x11d
 800608e:	4770      	bx	lr

08006090 <FCP_SetClient>:
 8006090:	b120      	cbz	r0, 800609c <FCP_SetClient+0xc>
 8006092:	6083      	str	r3, [r0, #8]
 8006094:	e9c0 1200 	strd	r1, r2, [r0]
 8006098:	9b00      	ldr	r3, [sp, #0]
 800609a:	60c3      	str	r3, [r0, #12]
 800609c:	4770      	bx	lr
 800609e:	bf00      	nop

080060a0 <FCP_CalcCRC>:
 80060a0:	b190      	cbz	r0, 80060c8 <FCP_CalcCRC+0x28>
 80060a2:	7841      	ldrb	r1, [r0, #1]
 80060a4:	7802      	ldrb	r2, [r0, #0]
 80060a6:	1853      	adds	r3, r2, r1
 80060a8:	b151      	cbz	r1, 80060c0 <FCP_CalcCRC+0x20>
 80060aa:	3901      	subs	r1, #1
 80060ac:	b2ca      	uxtb	r2, r1
 80060ae:	1c81      	adds	r1, r0, #2
 80060b0:	4411      	add	r1, r2
 80060b2:	3001      	adds	r0, #1
 80060b4:	f810 2f01 	ldrb.w	r2, [r0, #1]!
 80060b8:	4413      	add	r3, r2
 80060ba:	4281      	cmp	r1, r0
 80060bc:	b29b      	uxth	r3, r3
 80060be:	d1f9      	bne.n	80060b4 <FCP_CalcCRC+0x14>
 80060c0:	eb03 2313 	add.w	r3, r3, r3, lsr #8
 80060c4:	f003 00ff 	and.w	r0, r3, #255	; 0xff
 80060c8:	4770      	bx	lr
 80060ca:	bf00      	nop

080060cc <HALL_Init>:
 80060cc:	b5f0      	push	{r4, r5, r6, r7, lr}
 80060ce:	8ac1      	ldrh	r1, [r0, #22]
 80060d0:	7843      	ldrb	r3, [r0, #1]
 80060d2:	8a84      	ldrh	r4, [r0, #20]
 80060d4:	fb01 f103 	mul.w	r1, r1, r3
 80060d8:	0064      	lsls	r4, r4, #1
 80060da:	fb04 f403 	mul.w	r4, r4, r3
 80060de:	6a82      	ldr	r2, [r0, #40]	; 0x28
 80060e0:	f3c1 018d 	ubfx	r1, r1, #2, #14
 80060e4:	0c17      	lsrs	r7, r2, #16
 80060e6:	b2a4      	uxth	r4, r4
 80060e8:	f8a0 70c2 	strh.w	r7, [r0, #194]	; 0xc2
 80060ec:	6ac3      	ldr	r3, [r0, #44]	; 0x2c
 80060ee:	2900      	cmp	r1, #0
 80060f0:	d071      	beq.n	80061d6 <HALL_Init+0x10a>
 80060f2:	f242 7510 	movw	r5, #10000	; 0x2710
 80060f6:	eb01 0141 	add.w	r1, r1, r1, lsl #1
 80060fa:	0049      	lsls	r1, r1, #1
 80060fc:	fbb5 f1f1 	udiv	r1, r5, r1
 8006100:	b28e      	uxth	r6, r1
 8006102:	4d36      	ldr	r5, [pc, #216]	; (80061dc <HALL_Init+0x110>)
 8006104:	fb01 f107 	mul.w	r1, r1, r7
 8006108:	fba5 5202 	umull	r5, r2, r5, r2
 800610c:	8b45      	ldrh	r5, [r0, #26]
 800610e:	0892      	lsrs	r2, r2, #2
 8006110:	fbb2 f7f5 	udiv	r7, r2, r5
 8006114:	eb02 0282 	add.w	r2, r2, r2, lsl #2
 8006118:	0052      	lsls	r2, r2, #1
 800611a:	fbb2 f2f4 	udiv	r2, r2, r4
 800611e:	f890 c0c6 	ldrb.w	ip, [r0, #198]	; 0xc6
 8006122:	f04f 0e01 	mov.w	lr, #1
 8006126:	fb05 f50c 	mul.w	r5, r5, ip
 800612a:	f8b0 c024 	ldrh.w	ip, [r0, #36]	; 0x24
 800612e:	f8c0 20bc 	str.w	r2, [r0, #188]	; 0xbc
 8006132:	fb95 f5fc 	sdiv	r5, r5, ip
 8006136:	f04f 0c00 	mov.w	ip, #0
 800613a:	4a29      	ldr	r2, [pc, #164]	; (80061e0 <HALL_Init+0x114>)
 800613c:	3d01      	subs	r5, #1
 800613e:	fba2 1201 	umull	r1, r2, r2, r1
 8006142:	69c1      	ldr	r1, [r0, #28]
 8006144:	0992      	lsrs	r2, r2, #6
 8006146:	fb01 f707 	mul.w	r7, r1, r7
 800614a:	f8c0 70b4 	str.w	r7, [r0, #180]	; 0xb4
 800614e:	b297      	uxth	r7, r2
 8006150:	0439      	lsls	r1, r7, #16
 8006152:	f8c0 10b8 	str.w	r1, [r0, #184]	; 0xb8
 8006156:	6999      	ldr	r1, [r3, #24]
 8006158:	f8a0 40b0 	strh.w	r4, [r0, #176]	; 0xb0
 800615c:	f890 4048 	ldrb.w	r4, [r0, #72]	; 0x48
 8006160:	f021 01f0 	bic.w	r1, r1, #240	; 0xf0
 8006164:	ea41 1104 	orr.w	r1, r1, r4, lsl #4
 8006168:	f8a0 20ae 	strh.w	r2, [r0, #174]	; 0xae
 800616c:	f8a0 60c0 	strh.w	r6, [r0, #192]	; 0xc0
 8006170:	f8a0 50c4 	strh.w	r5, [r0, #196]	; 0xc4
 8006174:	f880 e049 	strb.w	lr, [r0, #73]	; 0x49
 8006178:	6199      	str	r1, [r3, #24]
 800617a:	629f      	str	r7, [r3, #40]	; 0x28
 800617c:	695a      	ldr	r2, [r3, #20]
 800617e:	ea42 020e 	orr.w	r2, r2, lr
 8006182:	615a      	str	r2, [r3, #20]
 8006184:	f8c3 c010 	str.w	ip, [r3, #16]
 8006188:	681a      	ldr	r2, [r3, #0]
 800618a:	f042 0204 	orr.w	r2, r2, #4
 800618e:	601a      	str	r2, [r3, #0]
 8006190:	68da      	ldr	r2, [r3, #12]
 8006192:	f042 0202 	orr.w	r2, r2, #2
 8006196:	60da      	str	r2, [r3, #12]
 8006198:	68da      	ldr	r2, [r3, #12]
 800619a:	ea42 020e 	orr.w	r2, r2, lr
 800619e:	60da      	str	r2, [r3, #12]
 80061a0:	f8c3 c024 	str.w	ip, [r3, #36]	; 0x24
 80061a4:	6a1a      	ldr	r2, [r3, #32]
 80061a6:	ea42 020e 	orr.w	r2, r2, lr
 80061aa:	621a      	str	r2, [r3, #32]
 80061ac:	681a      	ldr	r2, [r3, #0]
 80061ae:	ea42 020e 	orr.w	r2, r2, lr
 80061b2:	601a      	str	r2, [r3, #0]
 80061b4:	f890 3026 	ldrb.w	r3, [r0, #38]	; 0x26
 80061b8:	b163      	cbz	r3, 80061d4 <HALL_Init+0x108>
 80061ba:	3b01      	subs	r3, #1
 80061bc:	b2d9      	uxtb	r1, r3
 80061be:	f100 0350 	add.w	r3, r0, #80	; 0x50
 80061c2:	f8d0 20b8 	ldr.w	r2, [r0, #184]	; 0xb8
 80061c6:	eb03 0381 	add.w	r3, r3, r1, lsl #2
 80061ca:	304c      	adds	r0, #76	; 0x4c
 80061cc:	f840 2f04 	str.w	r2, [r0, #4]!
 80061d0:	4298      	cmp	r0, r3
 80061d2:	d1fb      	bne.n	80061cc <HALL_Init+0x100>
 80061d4:	bdf0      	pop	{r4, r5, r6, r7, pc}
 80061d6:	2196      	movs	r1, #150	; 0x96
 80061d8:	460e      	mov	r6, r1
 80061da:	e792      	b.n	8006102 <HALL_Init+0x36>
 80061dc:	aaaaaaab 	.word	0xaaaaaaab
 80061e0:	10624dd3 	.word	0x10624dd3

080061e4 <HALL_Clear>:
 80061e4:	2300      	movs	r3, #0
 80061e6:	b4f0      	push	{r4, r5, r6, r7}
 80061e8:	2401      	movs	r4, #1
 80061ea:	6ac2      	ldr	r2, [r0, #44]	; 0x2c
 80061ec:	f8b0 60ae 	ldrh.w	r6, [r0, #174]	; 0xae
 80061f0:	68d1      	ldr	r1, [r2, #12]
 80061f2:	6b45      	ldr	r5, [r0, #52]	; 0x34
 80061f4:	f021 0102 	bic.w	r1, r1, #2
 80061f8:	60d1      	str	r1, [r2, #12]
 80061fa:	f880 304a 	strb.w	r3, [r0, #74]	; 0x4a
 80061fe:	f880 40a2 	strb.w	r4, [r0, #162]	; 0xa2
 8006202:	f880 304b 	strb.w	r3, [r0, #75]	; 0x4b
 8006206:	f880 3098 	strb.w	r3, [r0, #152]	; 0x98
 800620a:	f880 304c 	strb.w	r3, [r0, #76]	; 0x4c
 800620e:	7003      	strb	r3, [r0, #0]
 8006210:	f880 304d 	strb.w	r3, [r0, #77]	; 0x4d
 8006214:	8243      	strh	r3, [r0, #18]
 8006216:	f880 304e 	strb.w	r3, [r0, #78]	; 0x4e
 800621a:	f8a0 30ac 	strh.w	r3, [r0, #172]	; 0xac
 800621e:	f880 4049 	strb.w	r4, [r0, #73]	; 0x49
 8006222:	6296      	str	r6, [r2, #40]	; 0x28
 8006224:	6253      	str	r3, [r2, #36]	; 0x24
 8006226:	6813      	ldr	r3, [r2, #0]
 8006228:	6c41      	ldr	r1, [r0, #68]	; 0x44
 800622a:	4323      	orrs	r3, r4
 800622c:	6013      	str	r3, [r2, #0]
 800622e:	68d3      	ldr	r3, [r2, #12]
 8006230:	6bc4      	ldr	r4, [r0, #60]	; 0x3c
 8006232:	f043 0302 	orr.w	r3, r3, #2
 8006236:	60d3      	str	r3, [r2, #12]
 8006238:	f890 3020 	ldrb.w	r3, [r0, #32]
 800623c:	f3c5 250f 	ubfx	r5, r5, #8, #16
 8006240:	f3c1 210f 	ubfx	r1, r1, #8, #16
 8006244:	f3c4 240f 	ubfx	r4, r4, #8, #16
 8006248:	6b87      	ldr	r7, [r0, #56]	; 0x38
 800624a:	6c06      	ldr	r6, [r0, #64]	; 0x40
 800624c:	6b02      	ldr	r2, [r0, #48]	; 0x30
 800624e:	b9e3      	cbnz	r3, 800628a <HALL_Clear+0xa6>
 8006250:	68b3      	ldr	r3, [r6, #8]
 8006252:	68be      	ldr	r6, [r7, #8]
 8006254:	ea31 0303 	bics.w	r3, r1, r3
 8006258:	bf0c      	ite	eq
 800625a:	2304      	moveq	r3, #4
 800625c:	2300      	movne	r3, #0
 800625e:	ea34 0106 	bics.w	r1, r4, r6
 8006262:	bf0c      	ite	eq
 8006264:	2102      	moveq	r1, #2
 8006266:	2100      	movne	r1, #0
 8006268:	6892      	ldr	r2, [r2, #8]
 800626a:	430b      	orrs	r3, r1
 800626c:	ea35 0202 	bics.w	r2, r5, r2
 8006270:	bf08      	it	eq
 8006272:	f043 0301 	orreq.w	r3, r3, #1
 8006276:	1e5a      	subs	r2, r3, #1
 8006278:	f880 30a6 	strb.w	r3, [r0, #166]	; 0xa6
 800627c:	2a05      	cmp	r2, #5
 800627e:	d854      	bhi.n	800632a <HALL_Clear+0x146>
 8006280:	e8df f002 	tbb	[pc, r2]
 8006284:	3f352b21 	.word	0x3f352b21
 8006288:	1749      	.short	0x1749
 800628a:	68bf      	ldr	r7, [r7, #8]
 800628c:	68b3      	ldr	r3, [r6, #8]
 800628e:	6892      	ldr	r2, [r2, #8]
 8006290:	ea31 0303 	bics.w	r3, r1, r3
 8006294:	bf0c      	ite	eq
 8006296:	2302      	moveq	r3, #2
 8006298:	2300      	movne	r3, #0
 800629a:	ea35 0202 	bics.w	r2, r5, r2
 800629e:	bf08      	it	eq
 80062a0:	f043 0301 	orreq.w	r3, r3, #1
 80062a4:	ea34 0207 	bics.w	r2, r4, r7
 80062a8:	bf14      	ite	ne
 80062aa:	2204      	movne	r2, #4
 80062ac:	2200      	moveq	r2, #0
 80062ae:	4313      	orrs	r3, r2
 80062b0:	e7e1      	b.n	8006276 <HALL_Clear+0x92>
 80062b2:	8c43      	ldrh	r3, [r0, #34]	; 0x22
 80062b4:	bcf0      	pop	{r4, r5, r6, r7}
 80062b6:	f5a3 537f 	sub.w	r3, r3, #16320	; 0x3fc0
 80062ba:	3b3f      	subs	r3, #63	; 0x3f
 80062bc:	b21b      	sxth	r3, r3
 80062be:	8083      	strh	r3, [r0, #4]
 80062c0:	f8a0 30aa 	strh.w	r3, [r0, #170]	; 0xaa
 80062c4:	4770      	bx	lr
 80062c6:	8c43      	ldrh	r3, [r0, #34]	; 0x22
 80062c8:	bcf0      	pop	{r4, r5, r6, r7}
 80062ca:	f503 537f 	add.w	r3, r3, #16320	; 0x3fc0
 80062ce:	333f      	adds	r3, #63	; 0x3f
 80062d0:	b21b      	sxth	r3, r3
 80062d2:	8083      	strh	r3, [r0, #4]
 80062d4:	f8a0 30aa 	strh.w	r3, [r0, #170]	; 0xaa
 80062d8:	4770      	bx	lr
 80062da:	8c43      	ldrh	r3, [r0, #34]	; 0x22
 80062dc:	bcf0      	pop	{r4, r5, r6, r7}
 80062de:	f5a3 43d5 	sub.w	r3, r3, #27264	; 0x6a80
 80062e2:	3b2a      	subs	r3, #42	; 0x2a
 80062e4:	b21b      	sxth	r3, r3
 80062e6:	8083      	strh	r3, [r0, #4]
 80062e8:	f8a0 30aa 	strh.w	r3, [r0, #170]	; 0xaa
 80062ec:	4770      	bx	lr
 80062ee:	8c43      	ldrh	r3, [r0, #34]	; 0x22
 80062f0:	bcf0      	pop	{r4, r5, r6, r7}
 80062f2:	f503 43d5 	add.w	r3, r3, #27264	; 0x6a80
 80062f6:	332a      	adds	r3, #42	; 0x2a
 80062f8:	b21b      	sxth	r3, r3
 80062fa:	8083      	strh	r3, [r0, #4]
 80062fc:	f8a0 30aa 	strh.w	r3, [r0, #170]	; 0xaa
 8006300:	4770      	bx	lr
 8006302:	8c43      	ldrh	r3, [r0, #34]	; 0x22
 8006304:	bcf0      	pop	{r4, r5, r6, r7}
 8006306:	f5a3 53aa 	sub.w	r3, r3, #5440	; 0x1540
 800630a:	3b15      	subs	r3, #21
 800630c:	b21b      	sxth	r3, r3
 800630e:	8083      	strh	r3, [r0, #4]
 8006310:	f8a0 30aa 	strh.w	r3, [r0, #170]	; 0xaa
 8006314:	4770      	bx	lr
 8006316:	8c43      	ldrh	r3, [r0, #34]	; 0x22
 8006318:	bcf0      	pop	{r4, r5, r6, r7}
 800631a:	f503 53aa 	add.w	r3, r3, #5440	; 0x1540
 800631e:	3315      	adds	r3, #21
 8006320:	b21b      	sxth	r3, r3
 8006322:	8083      	strh	r3, [r0, #4]
 8006324:	f8a0 30aa 	strh.w	r3, [r0, #170]	; 0xaa
 8006328:	4770      	bx	lr
 800632a:	2200      	movs	r2, #0
 800632c:	bcf0      	pop	{r4, r5, r6, r7}
 800632e:	f9b0 3004 	ldrsh.w	r3, [r0, #4]
 8006332:	f880 2049 	strb.w	r2, [r0, #73]	; 0x49
 8006336:	f8a0 30aa 	strh.w	r3, [r0, #170]	; 0xaa
 800633a:	4770      	bx	lr

0800633c <HALL_CalcElAngle>:
 800633c:	f647 71ff 	movw	r1, #32767	; 0x7fff
 8006340:	f9b0 200e 	ldrsh.w	r2, [r0, #14]
 8006344:	8883      	ldrh	r3, [r0, #4]
 8006346:	428a      	cmp	r2, r1
 8006348:	d011      	beq.n	800636e <HALL_CalcElAngle+0x32>
 800634a:	b430      	push	{r4, r5}
 800634c:	b291      	uxth	r1, r2
 800634e:	f8b0 50ac 	ldrh.w	r5, [r0, #172]	; 0xac
 8006352:	f8b0 40aa 	ldrh.w	r4, [r0, #170]	; 0xaa
 8006356:	440b      	add	r3, r1
 8006358:	442b      	add	r3, r5
 800635a:	4421      	add	r1, r4
 800635c:	b21b      	sxth	r3, r3
 800635e:	f8a0 20a0 	strh.w	r2, [r0, #160]	; 0xa0
 8006362:	f8a0 10aa 	strh.w	r1, [r0, #170]	; 0xaa
 8006366:	8083      	strh	r3, [r0, #4]
 8006368:	bc30      	pop	{r4, r5}
 800636a:	4618      	mov	r0, r3
 800636c:	4770      	bx	lr
 800636e:	f8b0 20a0 	ldrh.w	r2, [r0, #160]	; 0xa0
 8006372:	4413      	add	r3, r2
 8006374:	b21b      	sxth	r3, r3
 8006376:	8083      	strh	r3, [r0, #4]
 8006378:	4618      	mov	r0, r3
 800637a:	4770      	bx	lr

0800637c <HALL_CalcAvrgMecSpeedUnit>:
 800637c:	b538      	push	{r3, r4, r5, lr}
 800637e:	4604      	mov	r4, r0
 8006380:	f890 0049 	ldrb.w	r0, [r0, #73]	; 0x49
 8006384:	460d      	mov	r5, r1
 8006386:	b180      	cbz	r0, 80063aa <HALL_CalcAvrgMecSpeedUnit+0x2e>
 8006388:	6ae3      	ldr	r3, [r4, #44]	; 0x2c
 800638a:	f8b4 20ae 	ldrh.w	r2, [r4, #174]	; 0xae
 800638e:	6a9b      	ldr	r3, [r3, #40]	; 0x28
 8006390:	429a      	cmp	r2, r3
 8006392:	d811      	bhi.n	80063b8 <HALL_CalcAvrgMecSpeedUnit+0x3c>
 8006394:	2300      	movs	r3, #0
 8006396:	81e3      	strh	r3, [r4, #14]
 8006398:	800b      	strh	r3, [r1, #0]
 800639a:	4629      	mov	r1, r5
 800639c:	4620      	mov	r0, r4
 800639e:	f001 f8f1 	bl	8007584 <SPD_IsMecSpeedReliable>
 80063a2:	f9b5 3000 	ldrsh.w	r3, [r5]
 80063a6:	81a3      	strh	r3, [r4, #12]
 80063a8:	bd38      	pop	{r3, r4, r5, pc}
 80063aa:	4603      	mov	r3, r0
 80063ac:	78e2      	ldrb	r2, [r4, #3]
 80063ae:	81e0      	strh	r0, [r4, #14]
 80063b0:	7022      	strb	r2, [r4, #0]
 80063b2:	8008      	strh	r0, [r1, #0]
 80063b4:	81a3      	strh	r3, [r4, #12]
 80063b6:	bd38      	pop	{r3, r4, r5, pc}
 80063b8:	f9b4 30a4 	ldrsh.w	r3, [r4, #164]	; 0xa4
 80063bc:	81e3      	strh	r3, [r4, #14]
 80063be:	b1cb      	cbz	r3, 80063f4 <HALL_CalcAvrgMecSpeedUnit+0x78>
 80063c0:	f647 72ff 	movw	r2, #32767	; 0x7fff
 80063c4:	4293      	cmp	r3, r2
 80063c6:	d013      	beq.n	80063f0 <HALL_CalcAvrgMecSpeedUnit+0x74>
 80063c8:	f894 20c7 	ldrb.w	r2, [r4, #199]	; 0xc7
 80063cc:	b1a2      	cbz	r2, 80063f8 <HALL_CalcAvrgMecSpeedUnit+0x7c>
 80063ce:	2200      	movs	r2, #0
 80063d0:	8b61      	ldrh	r1, [r4, #26]
 80063d2:	7860      	ldrb	r0, [r4, #1]
 80063d4:	fb03 f301 	mul.w	r3, r3, r1
 80063d8:	69e1      	ldr	r1, [r4, #28]
 80063da:	eb03 0383 	add.w	r3, r3, r3, lsl #2
 80063de:	fb01 f100 	mul.w	r1, r1, r0
 80063e2:	005b      	lsls	r3, r3, #1
 80063e4:	fb93 f3f1 	sdiv	r3, r3, r1
 80063e8:	f8a4 20ac 	strh.w	r2, [r4, #172]	; 0xac
 80063ec:	802b      	strh	r3, [r5, #0]
 80063ee:	e7d4      	b.n	800639a <HALL_CalcAvrgMecSpeedUnit+0x1e>
 80063f0:	f8b4 30b0 	ldrh.w	r3, [r4, #176]	; 0xb0
 80063f4:	802b      	strh	r3, [r5, #0]
 80063f6:	e7d0      	b.n	800639a <HALL_CalcAvrgMecSpeedUnit+0x1e>
 80063f8:	f8b4 20aa 	ldrh.w	r2, [r4, #170]	; 0xaa
 80063fc:	88a0      	ldrh	r0, [r4, #4]
 80063fe:	f8b4 10c4 	ldrh.w	r1, [r4, #196]	; 0xc4
 8006402:	1a12      	subs	r2, r2, r0
 8006404:	b212      	sxth	r2, r2
 8006406:	f8a4 20a8 	strh.w	r2, [r4, #168]	; 0xa8
 800640a:	fb92 f2f1 	sdiv	r2, r2, r1
 800640e:	e7df      	b.n	80063d0 <HALL_CalcAvrgMecSpeedUnit+0x54>

08006410 <HALL_TIMx_CC_IRQHandler>:
 8006410:	f890 3049 	ldrb.w	r3, [r0, #73]	; 0x49
 8006414:	2b00      	cmp	r3, #0
 8006416:	d045      	beq.n	80064a4 <HALL_TIMx_CC_IRQHandler+0x94>
 8006418:	b5f0      	push	{r4, r5, r6, r7, lr}
 800641a:	6b41      	ldr	r1, [r0, #52]	; 0x34
 800641c:	6c43      	ldr	r3, [r0, #68]	; 0x44
 800641e:	6bc2      	ldr	r2, [r0, #60]	; 0x3c
 8006420:	f890 7020 	ldrb.w	r7, [r0, #32]
 8006424:	f3c1 2c0f 	ubfx	ip, r1, #8, #16
 8006428:	f3c3 230f 	ubfx	r3, r3, #8, #16
 800642c:	f3c2 220f 	ubfx	r2, r2, #8, #16
 8006430:	f890 10a6 	ldrb.w	r1, [r0, #166]	; 0xa6
 8006434:	f990 50a2 	ldrsb.w	r5, [r0, #162]	; 0xa2
 8006438:	6b86      	ldr	r6, [r0, #56]	; 0x38
 800643a:	6c04      	ldr	r4, [r0, #64]	; 0x40
 800643c:	f8d0 e030 	ldr.w	lr, [r0, #48]	; 0x30
 8006440:	b1ef      	cbz	r7, 800647e <HALL_TIMx_CC_IRQHandler+0x6e>
 8006442:	68b6      	ldr	r6, [r6, #8]
 8006444:	68a7      	ldr	r7, [r4, #8]
 8006446:	f8de 4008 	ldr.w	r4, [lr, #8]
 800644a:	43bb      	bics	r3, r7
 800644c:	bf0c      	ite	eq
 800644e:	2302      	moveq	r3, #2
 8006450:	2300      	movne	r3, #0
 8006452:	ea3c 0404 	bics.w	r4, ip, r4
 8006456:	bf08      	it	eq
 8006458:	f043 0301 	orreq.w	r3, r3, #1
 800645c:	43b2      	bics	r2, r6
 800645e:	bf14      	ite	ne
 8006460:	2204      	movne	r2, #4
 8006462:	2200      	moveq	r2, #0
 8006464:	4313      	orrs	r3, r2
 8006466:	1e5a      	subs	r2, r3, #1
 8006468:	f880 30a6 	strb.w	r3, [r0, #166]	; 0xa6
 800646c:	6ac4      	ldr	r4, [r0, #44]	; 0x2c
 800646e:	2a05      	cmp	r2, #5
 8006470:	f200 8100 	bhi.w	8006674 <HALL_TIMx_CC_IRQHandler+0x264>
 8006474:	e8df f002 	tbb	[pc, r2]
 8006478:	9eadbfd1 	.word	0x9eadbfd1
 800647c:	188d      	.short	0x188d
 800647e:	68a7      	ldr	r7, [r4, #8]
 8006480:	68b4      	ldr	r4, [r6, #8]
 8006482:	43bb      	bics	r3, r7
 8006484:	bf0c      	ite	eq
 8006486:	2304      	moveq	r3, #4
 8006488:	2300      	movne	r3, #0
 800648a:	43a2      	bics	r2, r4
 800648c:	bf0c      	ite	eq
 800648e:	2402      	moveq	r4, #2
 8006490:	2400      	movne	r4, #0
 8006492:	f8de 2008 	ldr.w	r2, [lr, #8]
 8006496:	4323      	orrs	r3, r4
 8006498:	ea3c 0202 	bics.w	r2, ip, r2
 800649c:	bf08      	it	eq
 800649e:	f043 0301 	orreq.w	r3, r3, #1
 80064a2:	e7e0      	b.n	8006466 <HALL_TIMx_CC_IRQHandler+0x56>
 80064a4:	2000      	movs	r0, #0
 80064a6:	4770      	bx	lr
 80064a8:	2902      	cmp	r1, #2
 80064aa:	f000 8127 	beq.w	80066fc <HALL_TIMx_CC_IRQHandler+0x2ec>
 80064ae:	2904      	cmp	r1, #4
 80064b0:	f000 8111 	beq.w	80066d6 <HALL_TIMx_CC_IRQHandler+0x2c6>
 80064b4:	4629      	mov	r1, r5
 80064b6:	f890 30c7 	ldrb.w	r3, [r0, #199]	; 0xc7
 80064ba:	b113      	cbz	r3, 80064c2 <HALL_TIMx_CC_IRQHandler+0xb2>
 80064bc:	f8b0 30aa 	ldrh.w	r3, [r0, #170]	; 0xaa
 80064c0:	8083      	strh	r3, [r0, #4]
 80064c2:	f890 304c 	ldrb.w	r3, [r0, #76]	; 0x4c
 80064c6:	2b00      	cmp	r3, #0
 80064c8:	f000 80c1 	beq.w	800664e <HALL_TIMx_CC_IRQHandler+0x23e>
 80064cc:	f890 304d 	ldrb.w	r3, [r0, #77]	; 0x4d
 80064d0:	f890 5026 	ldrb.w	r5, [r0, #38]	; 0x26
 80064d4:	42ab      	cmp	r3, r5
 80064d6:	d205      	bcs.n	80064e4 <HALL_TIMx_CC_IRQHandler+0xd4>
 80064d8:	f890 304d 	ldrb.w	r3, [r0, #77]	; 0x4d
 80064dc:	3301      	adds	r3, #1
 80064de:	b2db      	uxtb	r3, r3
 80064e0:	f880 304d 	strb.w	r3, [r0, #77]	; 0x4d
 80064e4:	6b67      	ldr	r7, [r4, #52]	; 0x34
 80064e6:	6aa2      	ldr	r2, [r4, #40]	; 0x28
 80064e8:	f890 c04e 	ldrb.w	ip, [r0, #78]	; 0x4e
 80064ec:	f890 604e 	ldrb.w	r6, [r0, #78]	; 0x4e
 80064f0:	b2bb      	uxth	r3, r7
 80064f2:	eb03 430c 	add.w	r3, r3, ip, lsl #16
 80064f6:	b292      	uxth	r2, r2
 80064f8:	f006 0cff 	and.w	ip, r6, #255	; 0xff
 80064fc:	2e00      	cmp	r6, #0
 80064fe:	f000 80af 	beq.w	8006660 <HALL_TIMx_CC_IRQHandler+0x250>
 8006502:	3201      	adds	r2, #1
 8006504:	f890 604b 	ldrb.w	r6, [r0, #75]	; 0x4b
 8006508:	b292      	uxth	r2, r2
 800650a:	fb03 f302 	mul.w	r3, r3, r2
 800650e:	2e00      	cmp	r6, #0
 8006510:	f000 80b7 	beq.w	8006682 <HALL_TIMx_CC_IRQHandler+0x272>
 8006514:	2200      	movs	r2, #0
 8006516:	f880 204b 	strb.w	r2, [r0, #75]	; 0x4b
 800651a:	f8d0 20bc 	ldr.w	r2, [r0, #188]	; 0xbc
 800651e:	429a      	cmp	r2, r3
 8006520:	d832      	bhi.n	8006588 <HALL_TIMx_CC_IRQHandler+0x178>
 8006522:	f8d0 60b8 	ldr.w	r6, [r0, #184]	; 0xb8
 8006526:	f890 2098 	ldrb.w	r2, [r0, #152]	; 0x98
 800652a:	429e      	cmp	r6, r3
 800652c:	eb00 0c82 	add.w	ip, r0, r2, lsl #2
 8006530:	bf88      	it	hi
 8006532:	fb01 f603 	mulhi.w	r6, r1, r3
 8006536:	f8dc 7050 	ldr.w	r7, [ip, #80]	; 0x50
 800653a:	f8d0 409c 	ldr.w	r4, [r0, #156]	; 0x9c
 800653e:	f102 0201 	add.w	r2, r2, #1
 8006542:	eba4 0407 	sub.w	r4, r4, r7
 8006546:	b2d2      	uxtb	r2, r2
 8006548:	f8c0 409c 	str.w	r4, [r0, #156]	; 0x9c
 800654c:	bf8a      	itet	hi
 800654e:	19a4      	addhi	r4, r4, r6
 8006550:	434e      	mulls	r6, r1
 8006552:	f8c0 409c 	strhi.w	r4, [r0, #156]	; 0x9c
 8006556:	4295      	cmp	r5, r2
 8006558:	bf08      	it	eq
 800655a:	2200      	moveq	r2, #0
 800655c:	f8cc 6050 	str.w	r6, [ip, #80]	; 0x50
 8006560:	f880 2098 	strb.w	r2, [r0, #152]	; 0x98
 8006564:	f890 2049 	ldrb.w	r2, [r0, #73]	; 0x49
 8006568:	2a00      	cmp	r2, #0
 800656a:	f000 8087 	beq.w	800667c <HALL_TIMx_CC_IRQHandler+0x26c>
 800656e:	f890 404d 	ldrb.w	r4, [r0, #77]	; 0x4d
 8006572:	f8d0 20b4 	ldr.w	r2, [r0, #180]	; 0xb4
 8006576:	42a5      	cmp	r5, r4
 8006578:	f240 80a4 	bls.w	80066c4 <HALL_TIMx_CC_IRQHandler+0x2b4>
 800657c:	fbb2 f3f3 	udiv	r3, r2, r3
 8006580:	fb03 f101 	mul.w	r1, r3, r1
 8006584:	f8a0 10a4 	strh.w	r1, [r0, #164]	; 0xa4
 8006588:	2300      	movs	r3, #0
 800658a:	f880 304e 	strb.w	r3, [r0, #78]	; 0x4e
 800658e:	2000      	movs	r0, #0
 8006590:	bdf0      	pop	{r4, r5, r6, r7, pc}
 8006592:	2904      	cmp	r1, #4
 8006594:	f000 80ab 	beq.w	80066ee <HALL_TIMx_CC_IRQHandler+0x2de>
 8006598:	2901      	cmp	r1, #1
 800659a:	d18b      	bne.n	80064b4 <HALL_TIMx_CC_IRQHandler+0xa4>
 800659c:	22ff      	movs	r2, #255	; 0xff
 800659e:	8c43      	ldrh	r3, [r0, #34]	; 0x22
 80065a0:	f880 20a2 	strb.w	r2, [r0, #162]	; 0xa2
 80065a4:	f503 532a 	add.w	r3, r3, #10880	; 0x2a80
 80065a8:	332a      	adds	r3, #42	; 0x2a
 80065aa:	f8a0 30aa 	strh.w	r3, [r0, #170]	; 0xaa
 80065ae:	f04f 31ff 	mov.w	r1, #4294967295
 80065b2:	e043      	b.n	800663c <HALL_TIMx_CC_IRQHandler+0x22c>
 80065b4:	2906      	cmp	r1, #6
 80065b6:	f000 80b4 	beq.w	8006722 <HALL_TIMx_CC_IRQHandler+0x312>
 80065ba:	2905      	cmp	r1, #5
 80065bc:	f47f af7a 	bne.w	80064b4 <HALL_TIMx_CC_IRQHandler+0xa4>
 80065c0:	22ff      	movs	r2, #255	; 0xff
 80065c2:	8c43      	ldrh	r3, [r0, #34]	; 0x22
 80065c4:	f880 20a2 	strb.w	r2, [r0, #162]	; 0xa2
 80065c8:	f8a0 30aa 	strh.w	r3, [r0, #170]	; 0xaa
 80065cc:	f04f 31ff 	mov.w	r1, #4294967295
 80065d0:	e034      	b.n	800663c <HALL_TIMx_CC_IRQHandler+0x22c>
 80065d2:	2901      	cmp	r1, #1
 80065d4:	f000 809c 	beq.w	8006710 <HALL_TIMx_CC_IRQHandler+0x300>
 80065d8:	2902      	cmp	r1, #2
 80065da:	f47f af6b 	bne.w	80064b4 <HALL_TIMx_CC_IRQHandler+0xa4>
 80065de:	22ff      	movs	r2, #255	; 0xff
 80065e0:	8c43      	ldrh	r3, [r0, #34]	; 0x22
 80065e2:	f880 20a2 	strb.w	r2, [r0, #162]	; 0xa2
 80065e6:	f503 43ff 	add.w	r3, r3, #32640	; 0x7f80
 80065ea:	337f      	adds	r3, #127	; 0x7f
 80065ec:	f8a0 30aa 	strh.w	r3, [r0, #170]	; 0xaa
 80065f0:	f04f 31ff 	mov.w	r1, #4294967295
 80065f4:	e022      	b.n	800663c <HALL_TIMx_CC_IRQHandler+0x22c>
 80065f6:	2903      	cmp	r1, #3
 80065f8:	f000 80a7 	beq.w	800674a <HALL_TIMx_CC_IRQHandler+0x33a>
 80065fc:	2906      	cmp	r1, #6
 80065fe:	f47f af59 	bne.w	80064b4 <HALL_TIMx_CC_IRQHandler+0xa4>
 8006602:	22ff      	movs	r2, #255	; 0xff
 8006604:	8c43      	ldrh	r3, [r0, #34]	; 0x22
 8006606:	f880 20a2 	strb.w	r2, [r0, #162]	; 0xa2
 800660a:	f5a3 43aa 	sub.w	r3, r3, #21760	; 0x5500
 800660e:	3b55      	subs	r3, #85	; 0x55
 8006610:	f8a0 30aa 	strh.w	r3, [r0, #170]	; 0xaa
 8006614:	f04f 31ff 	mov.w	r1, #4294967295
 8006618:	e010      	b.n	800663c <HALL_TIMx_CC_IRQHandler+0x22c>
 800661a:	2905      	cmp	r1, #5
 800661c:	f000 808b 	beq.w	8006736 <HALL_TIMx_CC_IRQHandler+0x326>
 8006620:	2903      	cmp	r1, #3
 8006622:	f47f af47 	bne.w	80064b4 <HALL_TIMx_CC_IRQHandler+0xa4>
 8006626:	22ff      	movs	r2, #255	; 0xff
 8006628:	f04f 31ff 	mov.w	r1, #4294967295
 800662c:	8c43      	ldrh	r3, [r0, #34]	; 0x22
 800662e:	f880 20a2 	strb.w	r2, [r0, #162]	; 0xa2
 8006632:	f503 43aa 	add.w	r3, r3, #21760	; 0x5500
 8006636:	3355      	adds	r3, #85	; 0x55
 8006638:	f8a0 30aa 	strh.w	r3, [r0, #170]	; 0xaa
 800663c:	428d      	cmp	r5, r1
 800663e:	f43f af3a 	beq.w	80064b6 <HALL_TIMx_CC_IRQHandler+0xa6>
 8006642:	2300      	movs	r3, #0
 8006644:	f880 304d 	strb.w	r3, [r0, #77]	; 0x4d
 8006648:	f880 3098 	strb.w	r3, [r0, #152]	; 0x98
 800664c:	e733      	b.n	80064b6 <HALL_TIMx_CC_IRQHandler+0xa6>
 800664e:	f890 304c 	ldrb.w	r3, [r0, #76]	; 0x4c
 8006652:	3301      	adds	r3, #1
 8006654:	b2db      	uxtb	r3, r3
 8006656:	f880 304c 	strb.w	r3, [r0, #76]	; 0x4c
 800665a:	6b63      	ldr	r3, [r4, #52]	; 0x34
 800665c:	2000      	movs	r0, #0
 800665e:	bdf0      	pop	{r4, r5, r6, r7, pc}
 8006660:	f890 604a 	ldrb.w	r6, [r0, #74]	; 0x4a
 8006664:	b1d6      	cbz	r6, 800669c <HALL_TIMx_CC_IRQHandler+0x28c>
 8006666:	3202      	adds	r2, #2
 8006668:	b292      	uxth	r2, r2
 800666a:	fb03 f302 	mul.w	r3, r3, r2
 800666e:	f880 c04a 	strb.w	ip, [r0, #74]	; 0x4a
 8006672:	e752      	b.n	800651a <HALL_TIMx_CC_IRQHandler+0x10a>
 8006674:	2300      	movs	r3, #0
 8006676:	f880 3049 	strb.w	r3, [r0, #73]	; 0x49
 800667a:	e71b      	b.n	80064b4 <HALL_TIMx_CC_IRQHandler+0xa4>
 800667c:	f8a0 20a4 	strh.w	r2, [r0, #164]	; 0xa4
 8006680:	e782      	b.n	8006588 <HALL_TIMx_CC_IRQHandler+0x178>
 8006682:	6aa2      	ldr	r2, [r4, #40]	; 0x28
 8006684:	f8b0 60ae 	ldrh.w	r6, [r0, #174]	; 0xae
 8006688:	4296      	cmp	r6, r2
 800668a:	f67f af46 	bls.w	800651a <HALL_TIMx_CC_IRQHandler+0x10a>
 800668e:	2601      	movs	r6, #1
 8006690:	6aa2      	ldr	r2, [r4, #40]	; 0x28
 8006692:	4432      	add	r2, r6
 8006694:	62a2      	str	r2, [r4, #40]	; 0x28
 8006696:	f880 604b 	strb.w	r6, [r0, #75]	; 0x4b
 800669a:	e73e      	b.n	800651a <HALL_TIMx_CC_IRQHandler+0x10a>
 800669c:	3201      	adds	r2, #1
 800669e:	b2bf      	uxth	r7, r7
 80066a0:	b292      	uxth	r2, r2
 80066a2:	f5b7 4faa 	cmp.w	r7, #21760	; 0x5500
 80066a6:	fb03 f302 	mul.w	r3, r3, r2
 80066aa:	f4bf af36 	bcs.w	800651a <HALL_TIMx_CC_IRQHandler+0x10a>
 80066ae:	6aa2      	ldr	r2, [r4, #40]	; 0x28
 80066b0:	2a00      	cmp	r2, #0
 80066b2:	f43f af32 	beq.w	800651a <HALL_TIMx_CC_IRQHandler+0x10a>
 80066b6:	2601      	movs	r6, #1
 80066b8:	6aa2      	ldr	r2, [r4, #40]	; 0x28
 80066ba:	3a01      	subs	r2, #1
 80066bc:	62a2      	str	r2, [r4, #40]	; 0x28
 80066be:	f880 604a 	strb.w	r6, [r0, #74]	; 0x4a
 80066c2:	e72a      	b.n	800651a <HALL_TIMx_CC_IRQHandler+0x10a>
 80066c4:	f8d0 309c 	ldr.w	r3, [r0, #156]	; 0x9c
 80066c8:	fb93 f5f5 	sdiv	r5, r3, r5
 80066cc:	fb92 f2f5 	sdiv	r2, r2, r5
 80066d0:	f8a0 20a4 	strh.w	r2, [r0, #164]	; 0xa4
 80066d4:	e758      	b.n	8006588 <HALL_TIMx_CC_IRQHandler+0x178>
 80066d6:	22ff      	movs	r2, #255	; 0xff
 80066d8:	8c43      	ldrh	r3, [r0, #34]	; 0x22
 80066da:	f880 20a2 	strb.w	r2, [r0, #162]	; 0xa2
 80066de:	f5a3 532a 	sub.w	r3, r3, #10880	; 0x2a80
 80066e2:	3b2a      	subs	r3, #42	; 0x2a
 80066e4:	f8a0 30aa 	strh.w	r3, [r0, #170]	; 0xaa
 80066e8:	f04f 31ff 	mov.w	r1, #4294967295
 80066ec:	e7a6      	b.n	800663c <HALL_TIMx_CC_IRQHandler+0x22c>
 80066ee:	2101      	movs	r1, #1
 80066f0:	8c43      	ldrh	r3, [r0, #34]	; 0x22
 80066f2:	f880 10a2 	strb.w	r1, [r0, #162]	; 0xa2
 80066f6:	f8a0 30aa 	strh.w	r3, [r0, #170]	; 0xaa
 80066fa:	e79f      	b.n	800663c <HALL_TIMx_CC_IRQHandler+0x22c>
 80066fc:	2101      	movs	r1, #1
 80066fe:	8c43      	ldrh	r3, [r0, #34]	; 0x22
 8006700:	f880 10a2 	strb.w	r1, [r0, #162]	; 0xa2
 8006704:	f5a3 43aa 	sub.w	r3, r3, #21760	; 0x5500
 8006708:	3b55      	subs	r3, #85	; 0x55
 800670a:	f8a0 30aa 	strh.w	r3, [r0, #170]	; 0xaa
 800670e:	e795      	b.n	800663c <HALL_TIMx_CC_IRQHandler+0x22c>
 8006710:	8c43      	ldrh	r3, [r0, #34]	; 0x22
 8006712:	f880 10a2 	strb.w	r1, [r0, #162]	; 0xa2
 8006716:	f503 43aa 	add.w	r3, r3, #21760	; 0x5500
 800671a:	3355      	adds	r3, #85	; 0x55
 800671c:	f8a0 30aa 	strh.w	r3, [r0, #170]	; 0xaa
 8006720:	e78c      	b.n	800663c <HALL_TIMx_CC_IRQHandler+0x22c>
 8006722:	2101      	movs	r1, #1
 8006724:	8c43      	ldrh	r3, [r0, #34]	; 0x22
 8006726:	f880 10a2 	strb.w	r1, [r0, #162]	; 0xa2
 800672a:	f5a3 532a 	sub.w	r3, r3, #10880	; 0x2a80
 800672e:	3b2a      	subs	r3, #42	; 0x2a
 8006730:	f8a0 30aa 	strh.w	r3, [r0, #170]	; 0xaa
 8006734:	e782      	b.n	800663c <HALL_TIMx_CC_IRQHandler+0x22c>
 8006736:	2101      	movs	r1, #1
 8006738:	8c43      	ldrh	r3, [r0, #34]	; 0x22
 800673a:	f880 10a2 	strb.w	r1, [r0, #162]	; 0xa2
 800673e:	f503 532a 	add.w	r3, r3, #10880	; 0x2a80
 8006742:	332a      	adds	r3, #42	; 0x2a
 8006744:	f8a0 30aa 	strh.w	r3, [r0, #170]	; 0xaa
 8006748:	e778      	b.n	800663c <HALL_TIMx_CC_IRQHandler+0x22c>
 800674a:	2101      	movs	r1, #1
 800674c:	8c43      	ldrh	r3, [r0, #34]	; 0x22
 800674e:	f880 10a2 	strb.w	r1, [r0, #162]	; 0xa2
 8006752:	f503 43ff 	add.w	r3, r3, #32640	; 0x7f80
 8006756:	337f      	adds	r3, #127	; 0x7f
 8006758:	f8a0 30aa 	strh.w	r3, [r0, #170]	; 0xaa
 800675c:	e76e      	b.n	800663c <HALL_TIMx_CC_IRQHandler+0x22c>
 800675e:	bf00      	nop

08006760 <HALL_TIMx_UP_IRQHandler>:
 8006760:	f890 3049 	ldrb.w	r3, [r0, #73]	; 0x49
 8006764:	b1e3      	cbz	r3, 80067a0 <HALL_TIMx_UP_IRQHandler+0x40>
 8006766:	f44f 717a 	mov.w	r1, #1000	; 0x3e8
 800676a:	b4f0      	push	{r4, r5, r6, r7}
 800676c:	f890 204e 	ldrb.w	r2, [r0, #78]	; 0x4e
 8006770:	6ac3      	ldr	r3, [r0, #44]	; 0x2c
 8006772:	3201      	adds	r2, #1
 8006774:	b2d2      	uxtb	r2, r2
 8006776:	f880 204e 	strb.w	r2, [r0, #78]	; 0x4e
 800677a:	6a9c      	ldr	r4, [r3, #40]	; 0x28
 800677c:	f8b0 20c0 	ldrh.w	r2, [r0, #192]	; 0xc0
 8006780:	f8b0 30c2 	ldrh.w	r3, [r0, #194]	; 0xc2
 8006784:	fb04 1101 	mla	r1, r4, r1, r1
 8006788:	fb03 f302 	mul.w	r3, r3, r2
 800678c:	fbb3 f3f1 	udiv	r3, r3, r1
 8006790:	f890 204e 	ldrb.w	r2, [r0, #78]	; 0x4e
 8006794:	b29b      	uxth	r3, r3
 8006796:	429a      	cmp	r2, r3
 8006798:	d204      	bcs.n	80067a4 <HALL_TIMx_UP_IRQHandler+0x44>
 800679a:	bcf0      	pop	{r4, r5, r6, r7}
 800679c:	2000      	movs	r0, #0
 800679e:	4770      	bx	lr
 80067a0:	2000      	movs	r0, #0
 80067a2:	4770      	bx	lr
 80067a4:	2400      	movs	r4, #0
 80067a6:	6bc1      	ldr	r1, [r0, #60]	; 0x3c
 80067a8:	6b42      	ldr	r2, [r0, #52]	; 0x34
 80067aa:	6c43      	ldr	r3, [r0, #68]	; 0x44
 80067ac:	f890 5020 	ldrb.w	r5, [r0, #32]
 80067b0:	81c4      	strh	r4, [r0, #14]
 80067b2:	f3c1 270f 	ubfx	r7, r1, #8, #16
 80067b6:	f3c2 260f 	ubfx	r6, r2, #8, #16
 80067ba:	f3c3 230f 	ubfx	r3, r3, #8, #16
 80067be:	6b84      	ldr	r4, [r0, #56]	; 0x38
 80067c0:	6c01      	ldr	r1, [r0, #64]	; 0x40
 80067c2:	6b02      	ldr	r2, [r0, #48]	; 0x30
 80067c4:	b9dd      	cbnz	r5, 80067fe <HALL_TIMx_UP_IRQHandler+0x9e>
 80067c6:	688d      	ldr	r5, [r1, #8]
 80067c8:	68a1      	ldr	r1, [r4, #8]
 80067ca:	43ab      	bics	r3, r5
 80067cc:	bf0c      	ite	eq
 80067ce:	2304      	moveq	r3, #4
 80067d0:	2300      	movne	r3, #0
 80067d2:	ea37 0101 	bics.w	r1, r7, r1
 80067d6:	bf0c      	ite	eq
 80067d8:	2102      	moveq	r1, #2
 80067da:	2100      	movne	r1, #0
 80067dc:	6892      	ldr	r2, [r2, #8]
 80067de:	430b      	orrs	r3, r1
 80067e0:	ea36 0202 	bics.w	r2, r6, r2
 80067e4:	bf08      	it	eq
 80067e6:	f043 0301 	orreq.w	r3, r3, #1
 80067ea:	1e5a      	subs	r2, r3, #1
 80067ec:	f880 30a6 	strb.w	r3, [r0, #166]	; 0xa6
 80067f0:	2a05      	cmp	r2, #5
 80067f2:	d866      	bhi.n	80068c2 <HALL_TIMx_UP_IRQHandler+0x162>
 80067f4:	e8df f002 	tbb	[pc, r2]
 80067f8:	4950575e 	.word	0x4950575e
 80067fc:	1642      	.short	0x1642
 80067fe:	68a4      	ldr	r4, [r4, #8]
 8006800:	6889      	ldr	r1, [r1, #8]
 8006802:	6892      	ldr	r2, [r2, #8]
 8006804:	438b      	bics	r3, r1
 8006806:	bf0c      	ite	eq
 8006808:	2302      	moveq	r3, #2
 800680a:	2300      	movne	r3, #0
 800680c:	ea36 0202 	bics.w	r2, r6, r2
 8006810:	bf08      	it	eq
 8006812:	f043 0301 	orreq.w	r3, r3, #1
 8006816:	ea37 0204 	bics.w	r2, r7, r4
 800681a:	bf14      	ite	ne
 800681c:	2204      	movne	r2, #4
 800681e:	2200      	moveq	r2, #0
 8006820:	4313      	orrs	r3, r2
 8006822:	e7e2      	b.n	80067ea <HALL_TIMx_UP_IRQHandler+0x8a>
 8006824:	8c43      	ldrh	r3, [r0, #34]	; 0x22
 8006826:	f5a3 537f 	sub.w	r3, r3, #16320	; 0x3fc0
 800682a:	3b3f      	subs	r3, #63	; 0x3f
 800682c:	b21b      	sxth	r3, r3
 800682e:	8083      	strh	r3, [r0, #4]
 8006830:	2200      	movs	r2, #0
 8006832:	f890 4026 	ldrb.w	r4, [r0, #38]	; 0x26
 8006836:	f880 204e 	strb.w	r2, [r0, #78]	; 0x4e
 800683a:	f8a0 30aa 	strh.w	r3, [r0, #170]	; 0xaa
 800683e:	f8d0 10b8 	ldr.w	r1, [r0, #184]	; 0xb8
 8006842:	f880 204c 	strb.w	r2, [r0, #76]	; 0x4c
 8006846:	b16c      	cbz	r4, 8006864 <HALL_TIMx_UP_IRQHandler+0x104>
 8006848:	1e62      	subs	r2, r4, #1
 800684a:	b2d3      	uxtb	r3, r2
 800684c:	f100 0250 	add.w	r2, r0, #80	; 0x50
 8006850:	eb02 0283 	add.w	r2, r2, r3, lsl #2
 8006854:	f100 034c 	add.w	r3, r0, #76	; 0x4c
 8006858:	f843 1f04 	str.w	r1, [r3, #4]!
 800685c:	429a      	cmp	r2, r3
 800685e:	d1fb      	bne.n	8006858 <HALL_TIMx_UP_IRQHandler+0xf8>
 8006860:	fb01 f404 	mul.w	r4, r1, r4
 8006864:	2300      	movs	r3, #0
 8006866:	f880 304d 	strb.w	r3, [r0, #77]	; 0x4d
 800686a:	f880 3098 	strb.w	r3, [r0, #152]	; 0x98
 800686e:	f8c0 409c 	str.w	r4, [r0, #156]	; 0x9c
 8006872:	f8a0 30a4 	strh.w	r3, [r0, #164]	; 0xa4
 8006876:	bcf0      	pop	{r4, r5, r6, r7}
 8006878:	2000      	movs	r0, #0
 800687a:	4770      	bx	lr
 800687c:	8c43      	ldrh	r3, [r0, #34]	; 0x22
 800687e:	f503 53aa 	add.w	r3, r3, #5440	; 0x1540
 8006882:	3315      	adds	r3, #21
 8006884:	b21b      	sxth	r3, r3
 8006886:	8083      	strh	r3, [r0, #4]
 8006888:	e7d2      	b.n	8006830 <HALL_TIMx_UP_IRQHandler+0xd0>
 800688a:	8c43      	ldrh	r3, [r0, #34]	; 0x22
 800688c:	f5a3 53aa 	sub.w	r3, r3, #5440	; 0x1540
 8006890:	3b15      	subs	r3, #21
 8006892:	b21b      	sxth	r3, r3
 8006894:	8083      	strh	r3, [r0, #4]
 8006896:	e7cb      	b.n	8006830 <HALL_TIMx_UP_IRQHandler+0xd0>
 8006898:	8c43      	ldrh	r3, [r0, #34]	; 0x22
 800689a:	f503 43d5 	add.w	r3, r3, #27264	; 0x6a80
 800689e:	332a      	adds	r3, #42	; 0x2a
 80068a0:	b21b      	sxth	r3, r3
 80068a2:	8083      	strh	r3, [r0, #4]
 80068a4:	e7c4      	b.n	8006830 <HALL_TIMx_UP_IRQHandler+0xd0>
 80068a6:	8c43      	ldrh	r3, [r0, #34]	; 0x22
 80068a8:	f5a3 43d5 	sub.w	r3, r3, #27264	; 0x6a80
 80068ac:	3b2a      	subs	r3, #42	; 0x2a
 80068ae:	b21b      	sxth	r3, r3
 80068b0:	8083      	strh	r3, [r0, #4]
 80068b2:	e7bd      	b.n	8006830 <HALL_TIMx_UP_IRQHandler+0xd0>
 80068b4:	8c43      	ldrh	r3, [r0, #34]	; 0x22
 80068b6:	f503 537f 	add.w	r3, r3, #16320	; 0x3fc0
 80068ba:	333f      	adds	r3, #63	; 0x3f
 80068bc:	b21b      	sxth	r3, r3
 80068be:	8083      	strh	r3, [r0, #4]
 80068c0:	e7b6      	b.n	8006830 <HALL_TIMx_UP_IRQHandler+0xd0>
 80068c2:	2200      	movs	r2, #0
 80068c4:	f9b0 3004 	ldrsh.w	r3, [r0, #4]
 80068c8:	f880 2049 	strb.w	r2, [r0, #73]	; 0x49
 80068cc:	e7b0      	b.n	8006830 <HALL_TIMx_UP_IRQHandler+0xd0>
 80068ce:	bf00      	nop

080068d0 <MPM_Clear>:
 80068d0:	f44f 7280 	mov.w	r2, #256	; 0x100
 80068d4:	b508      	push	{r3, lr}
 80068d6:	2100      	movs	r1, #0
 80068d8:	f001 f9af 	bl	8007c3a <memset>
 80068dc:	2200      	movs	r2, #0
 80068de:	f8c0 2100 	str.w	r2, [r0, #256]	; 0x100
 80068e2:	bd08      	pop	{r3, pc}

080068e4 <MPM_CalcElMotorPower>:
 80068e4:	f8b0 2100 	ldrh.w	r2, [r0, #256]	; 0x100
 80068e8:	b430      	push	{r4, r5}
 80068ea:	1c53      	adds	r3, r2, #1
 80068ec:	b29b      	uxth	r3, r3
 80068ee:	2b7f      	cmp	r3, #127	; 0x7f
 80068f0:	bf88      	it	hi
 80068f2:	2300      	movhi	r3, #0
 80068f4:	f820 1012 	strh.w	r1, [r0, r2, lsl #1]
 80068f8:	f8a0 2102 	strh.w	r2, [r0, #258]	; 0x102
 80068fc:	2200      	movs	r2, #0
 80068fe:	f8a0 3100 	strh.w	r3, [r0, #256]	; 0x100
 8006902:	f100 05fe 	add.w	r5, r0, #254	; 0xfe
 8006906:	1e83      	subs	r3, r0, #2
 8006908:	f933 4f02 	ldrsh.w	r4, [r3, #2]!
 800690c:	42ab      	cmp	r3, r5
 800690e:	4422      	add	r2, r4
 8006910:	d1fa      	bne.n	8006908 <MPM_CalcElMotorPower+0x24>
 8006912:	2a00      	cmp	r2, #0
 8006914:	bfb8      	it	lt
 8006916:	327f      	addlt	r2, #127	; 0x7f
 8006918:	11d2      	asrs	r2, r2, #7
 800691a:	f8a0 2104 	strh.w	r2, [r0, #260]	; 0x104
 800691e:	bc30      	pop	{r4, r5}
 8006920:	4608      	mov	r0, r1
 8006922:	4770      	bx	lr

08006924 <MPM_GetAvrgElMotorPowerW>:
 8006924:	f9b0 0104 	ldrsh.w	r0, [r0, #260]	; 0x104
 8006928:	4770      	bx	lr
 800692a:	bf00      	nop

0800692c <NTC_SetFaultState>:
 800692c:	8a03      	ldrh	r3, [r0, #16]
 800692e:	8b42      	ldrh	r2, [r0, #26]
 8006930:	429a      	cmp	r2, r3
 8006932:	d306      	bcc.n	8006942 <NTC_SetFaultState+0x16>
 8006934:	8b82      	ldrh	r2, [r0, #28]
 8006936:	429a      	cmp	r2, r3
 8006938:	d801      	bhi.n	800693e <NTC_SetFaultState+0x12>
 800693a:	8ac0      	ldrh	r0, [r0, #22]
 800693c:	4770      	bx	lr
 800693e:	2000      	movs	r0, #0
 8006940:	4770      	bx	lr
 8006942:	2008      	movs	r0, #8
 8006944:	4770      	bx	lr
 8006946:	bf00      	nop

08006948 <NTC_Clear>:
 8006948:	2300      	movs	r3, #0
 800694a:	8203      	strh	r3, [r0, #16]
 800694c:	4770      	bx	lr
 800694e:	bf00      	nop

08006950 <NTC_Init>:
 8006950:	7803      	ldrb	r3, [r0, #0]
 8006952:	b123      	cbz	r3, 800695e <NTC_Init+0xe>
 8006954:	2200      	movs	r2, #0
 8006956:	8a43      	ldrh	r3, [r0, #18]
 8006958:	82c2      	strh	r2, [r0, #22]
 800695a:	8203      	strh	r3, [r0, #16]
 800695c:	4770      	bx	lr
 800695e:	b510      	push	{r4, lr}
 8006960:	4604      	mov	r4, r0
 8006962:	3004      	adds	r0, #4
 8006964:	f7fa ff80 	bl	8001868 <RCM_RegisterRegConv>
 8006968:	f884 0026 	strb.w	r0, [r4, #38]	; 0x26
 800696c:	4620      	mov	r0, r4
 800696e:	f7ff ffeb 	bl	8006948 <NTC_Clear>
 8006972:	bd10      	pop	{r4, pc}

08006974 <NTC_CalcAvTemp>:
 8006974:	7802      	ldrb	r2, [r0, #0]
 8006976:	b510      	push	{r4, lr}
 8006978:	4604      	mov	r4, r0
 800697a:	b11a      	cbz	r2, 8006984 <NTC_CalcAvTemp+0x10>
 800697c:	2200      	movs	r2, #0
 800697e:	4610      	mov	r0, r2
 8006980:	82e2      	strh	r2, [r4, #22]
 8006982:	bd10      	pop	{r4, pc}
 8006984:	f890 0026 	ldrb.w	r0, [r0, #38]	; 0x26
 8006988:	f7fb f82e 	bl	80019e8 <RCM_ExecRegularConv>
 800698c:	f64f 73ff 	movw	r3, #65535	; 0xffff
 8006990:	4298      	cmp	r0, r3
 8006992:	d007      	beq.n	80069a4 <NTC_CalcAvTemp+0x30>
 8006994:	8b22      	ldrh	r2, [r4, #24]
 8006996:	8a23      	ldrh	r3, [r4, #16]
 8006998:	1e51      	subs	r1, r2, #1
 800699a:	fb01 0003 	mla	r0, r1, r3, r0
 800699e:	fbb0 f0f2 	udiv	r0, r0, r2
 80069a2:	8220      	strh	r0, [r4, #16]
 80069a4:	4620      	mov	r0, r4
 80069a6:	f7ff ffc1 	bl	800692c <NTC_SetFaultState>
 80069aa:	82e0      	strh	r0, [r4, #22]
 80069ac:	bd10      	pop	{r4, pc}
 80069ae:	bf00      	nop

080069b0 <NTC_GetAvTemp_C>:
 80069b0:	7803      	ldrb	r3, [r0, #0]
 80069b2:	b113      	cbz	r3, 80069ba <NTC_GetAvTemp_C+0xa>
 80069b4:	8a80      	ldrh	r0, [r0, #20]
 80069b6:	b200      	sxth	r0, r0
 80069b8:	4770      	bx	lr
 80069ba:	8a03      	ldrh	r3, [r0, #16]
 80069bc:	6a01      	ldr	r1, [r0, #32]
 80069be:	f9b0 201e 	ldrsh.w	r2, [r0, #30]
 80069c2:	1a5b      	subs	r3, r3, r1
 80069c4:	fb03 f302 	mul.w	r3, r3, r2
 80069c8:	2b00      	cmp	r3, #0
 80069ca:	bfb8      	it	lt
 80069cc:	f503 437f 	addlt.w	r3, r3, #65280	; 0xff00
 80069d0:	8c80      	ldrh	r0, [r0, #36]	; 0x24
 80069d2:	bfb8      	it	lt
 80069d4:	33ff      	addlt	r3, #255	; 0xff
 80069d6:	eb00 4023 	add.w	r0, r0, r3, asr #16
 80069da:	b200      	sxth	r0, r0
 80069dc:	4770      	bx	lr
 80069de:	bf00      	nop

080069e0 <PID_HandleInit>:
 80069e0:	2300      	movs	r3, #0
 80069e2:	6801      	ldr	r1, [r0, #0]
 80069e4:	8c02      	ldrh	r2, [r0, #32]
 80069e6:	6041      	str	r1, [r0, #4]
 80069e8:	8442      	strh	r2, [r0, #34]	; 0x22
 80069ea:	6083      	str	r3, [r0, #8]
 80069ec:	6283      	str	r3, [r0, #40]	; 0x28
 80069ee:	4770      	bx	lr

080069f0 <PID_SetKP>:
 80069f0:	8081      	strh	r1, [r0, #4]
 80069f2:	4770      	bx	lr

080069f4 <PID_SetKI>:
 80069f4:	80c1      	strh	r1, [r0, #6]
 80069f6:	4770      	bx	lr

080069f8 <PID_GetKP>:
 80069f8:	f9b0 0004 	ldrsh.w	r0, [r0, #4]
 80069fc:	4770      	bx	lr
 80069fe:	bf00      	nop

08006a00 <PID_GetKI>:
 8006a00:	f9b0 0006 	ldrsh.w	r0, [r0, #6]
 8006a04:	4770      	bx	lr
 8006a06:	bf00      	nop

08006a08 <PID_SetIntegralTerm>:
 8006a08:	6081      	str	r1, [r0, #8]
 8006a0a:	4770      	bx	lr

08006a0c <PID_GetKPDivisor>:
 8006a0c:	8b00      	ldrh	r0, [r0, #24]
 8006a0e:	4770      	bx	lr

08006a10 <PID_GetKIDivisor>:
 8006a10:	8b40      	ldrh	r0, [r0, #26]
 8006a12:	4770      	bx	lr

08006a14 <PID_SetKD>:
 8006a14:	8441      	strh	r1, [r0, #34]	; 0x22
 8006a16:	4770      	bx	lr

08006a18 <PID_GetKD>:
 8006a18:	f9b0 0022 	ldrsh.w	r0, [r0, #34]	; 0x22
 8006a1c:	4770      	bx	lr
 8006a1e:	bf00      	nop

08006a20 <PI_Controller>:
 8006a20:	b4f0      	push	{r4, r5, r6, r7}
 8006a22:	f9b0 2004 	ldrsh.w	r2, [r0, #4]
 8006a26:	f9b0 4006 	ldrsh.w	r4, [r0, #6]
 8006a2a:	fb01 f202 	mul.w	r2, r1, r2
 8006a2e:	f9b0 5014 	ldrsh.w	r5, [r0, #20]
 8006a32:	f9b0 6016 	ldrsh.w	r6, [r0, #22]
 8006a36:	b18c      	cbz	r4, 8006a5c <PI_Controller+0x3c>
 8006a38:	fb01 f104 	mul.w	r1, r1, r4
 8006a3c:	e9d0 3402 	ldrd	r3, r4, [r0, #8]
 8006a40:	185f      	adds	r7, r3, r1
 8006a42:	d423      	bmi.n	8006a8c <PI_Controller+0x6c>
 8006a44:	2b00      	cmp	r3, #0
 8006a46:	da04      	bge.n	8006a52 <PI_Controller+0x32>
 8006a48:	4b16      	ldr	r3, [pc, #88]	; (8006aa4 <PI_Controller+0x84>)
 8006a4a:	ea37 0721 	bics.w	r7, r7, r1, asr #32
 8006a4e:	bf28      	it	cs
 8006a50:	461f      	movcs	r7, r3
 8006a52:	42a7      	cmp	r7, r4
 8006a54:	dc02      	bgt.n	8006a5c <PI_Controller+0x3c>
 8006a56:	6904      	ldr	r4, [r0, #16]
 8006a58:	42bc      	cmp	r4, r7
 8006a5a:	dd20      	ble.n	8006a9e <PI_Controller+0x7e>
 8006a5c:	8b81      	ldrh	r1, [r0, #28]
 8006a5e:	8bc3      	ldrh	r3, [r0, #30]
 8006a60:	410a      	asrs	r2, r1
 8006a62:	fa44 f303 	asr.w	r3, r4, r3
 8006a66:	4413      	add	r3, r2
 8006a68:	429d      	cmp	r5, r3
 8006a6a:	db08      	blt.n	8006a7e <PI_Controller+0x5e>
 8006a6c:	429e      	cmp	r6, r3
 8006a6e:	dd02      	ble.n	8006a76 <PI_Controller+0x56>
 8006a70:	1af2      	subs	r2, r6, r3
 8006a72:	4633      	mov	r3, r6
 8006a74:	4414      	add	r4, r2
 8006a76:	6084      	str	r4, [r0, #8]
 8006a78:	b218      	sxth	r0, r3
 8006a7a:	bcf0      	pop	{r4, r5, r6, r7}
 8006a7c:	4770      	bx	lr
 8006a7e:	1aeb      	subs	r3, r5, r3
 8006a80:	441c      	add	r4, r3
 8006a82:	462b      	mov	r3, r5
 8006a84:	6084      	str	r4, [r0, #8]
 8006a86:	b218      	sxth	r0, r3
 8006a88:	bcf0      	pop	{r4, r5, r6, r7}
 8006a8a:	4770      	bx	lr
 8006a8c:	2b00      	cmp	r3, #0
 8006a8e:	dde0      	ble.n	8006a52 <PI_Controller+0x32>
 8006a90:	2900      	cmp	r1, #0
 8006a92:	ddde      	ble.n	8006a52 <PI_Controller+0x32>
 8006a94:	f06f 4300 	mvn.w	r3, #2147483648	; 0x80000000
 8006a98:	429c      	cmp	r4, r3
 8006a9a:	d1df      	bne.n	8006a5c <PI_Controller+0x3c>
 8006a9c:	4627      	mov	r7, r4
 8006a9e:	463c      	mov	r4, r7
 8006aa0:	e7dc      	b.n	8006a5c <PI_Controller+0x3c>
 8006aa2:	bf00      	nop
 8006aa4:	80000001 	.word	0x80000001

08006aa8 <PQD_CalcElMotorPower>:
 8006aa8:	b570      	push	{r4, r5, r6, lr}
 8006aaa:	4605      	mov	r5, r0
 8006aac:	f8d0 110c 	ldr.w	r1, [r0, #268]	; 0x10c
 8006ab0:	f8d0 0110 	ldr.w	r0, [r0, #272]	; 0x110
 8006ab4:	f9b1 300e 	ldrsh.w	r3, [r1, #14]
 8006ab8:	f9b1 4018 	ldrsh.w	r4, [r1, #24]
 8006abc:	f9b1 200c 	ldrsh.w	r2, [r1, #12]
 8006ac0:	fb04 f403 	mul.w	r4, r4, r3
 8006ac4:	f9b1 3016 	ldrsh.w	r3, [r1, #22]
 8006ac8:	f8d5 6108 	ldr.w	r6, [r5, #264]	; 0x108
 8006acc:	fb03 4402 	mla	r4, r3, r2, r4
 8006ad0:	f7ff fa98 	bl	8006004 <VBS_GetAvBusVoltage_V>
 8006ad4:	fb06 f000 	mul.w	r0, r6, r0
 8006ad8:	490d      	ldr	r1, [pc, #52]	; (8006b10 <PQD_CalcElMotorPower+0x68>)
 8006ada:	17c3      	asrs	r3, r0, #31
 8006adc:	fb81 1000 	smull	r1, r0, r1, r0
 8006ae0:	1e22      	subs	r2, r4, #0
 8006ae2:	bfbc      	itt	lt
 8006ae4:	f502 427f 	addlt.w	r2, r2, #65280	; 0xff00
 8006ae8:	32ff      	addlt	r2, #255	; 0xff
 8006aea:	1412      	asrs	r2, r2, #16
 8006aec:	ebc3 13a0 	rsb	r3, r3, r0, asr #6
 8006af0:	fb03 f302 	mul.w	r3, r3, r2
 8006af4:	4907      	ldr	r1, [pc, #28]	; (8006b14 <PQD_CalcElMotorPower+0x6c>)
 8006af6:	eb03 0343 	add.w	r3, r3, r3, lsl #1
 8006afa:	005b      	lsls	r3, r3, #1
 8006afc:	fb81 2103 	smull	r2, r1, r1, r3
 8006b00:	17db      	asrs	r3, r3, #31
 8006b02:	4628      	mov	r0, r5
 8006b04:	e8bd 4070 	ldmia.w	sp!, {r4, r5, r6, lr}
 8006b08:	ebc3 41a1 	rsb	r1, r3, r1, asr #18
 8006b0c:	f7ff beea 	b.w	80068e4 <MPM_CalcElMotorPower>
 8006b10:	1b4e81b5 	.word	0x1b4e81b5
 8006b14:	66666667 	.word	0x66666667

08006b18 <startTimers>:
 8006b18:	4b17      	ldr	r3, [pc, #92]	; (8006b78 <startTimers+0x60>)
 8006b1a:	69da      	ldr	r2, [r3, #28]
 8006b1c:	07d2      	lsls	r2, r2, #31
 8006b1e:	d514      	bpl.n	8006b4a <startTimers+0x32>
 8006b20:	f04f 4380 	mov.w	r3, #1073741824	; 0x40000000
 8006b24:	685a      	ldr	r2, [r3, #4]
 8006b26:	6859      	ldr	r1, [r3, #4]
 8006b28:	f002 0270 	and.w	r2, r2, #112	; 0x70
 8006b2c:	f021 0170 	bic.w	r1, r1, #112	; 0x70
 8006b30:	f041 0120 	orr.w	r1, r1, #32
 8006b34:	6059      	str	r1, [r3, #4]
 8006b36:	6959      	ldr	r1, [r3, #20]
 8006b38:	f041 0101 	orr.w	r1, r1, #1
 8006b3c:	6159      	str	r1, [r3, #20]
 8006b3e:	6859      	ldr	r1, [r3, #4]
 8006b40:	f021 0170 	bic.w	r1, r1, #112	; 0x70
 8006b44:	430a      	orrs	r2, r1
 8006b46:	605a      	str	r2, [r3, #4]
 8006b48:	4770      	bx	lr
 8006b4a:	f04f 4180 	mov.w	r1, #1073741824	; 0x40000000
 8006b4e:	69da      	ldr	r2, [r3, #28]
 8006b50:	b082      	sub	sp, #8
 8006b52:	f042 0201 	orr.w	r2, r2, #1
 8006b56:	61da      	str	r2, [r3, #28]
 8006b58:	69da      	ldr	r2, [r3, #28]
 8006b5a:	f002 0201 	and.w	r2, r2, #1
 8006b5e:	9201      	str	r2, [sp, #4]
 8006b60:	9a01      	ldr	r2, [sp, #4]
 8006b62:	694a      	ldr	r2, [r1, #20]
 8006b64:	f042 0201 	orr.w	r2, r2, #1
 8006b68:	614a      	str	r2, [r1, #20]
 8006b6a:	69da      	ldr	r2, [r3, #28]
 8006b6c:	f022 0201 	bic.w	r2, r2, #1
 8006b70:	61da      	str	r2, [r3, #28]
 8006b72:	b002      	add	sp, #8
 8006b74:	4770      	bx	lr
 8006b76:	bf00      	nop
 8006b78:	40021000 	.word	0x40021000

08006b7c <waitForPolarizationEnd>:
 8006b7c:	b470      	push	{r4, r5, r6}
 8006b7e:	f06f 0602 	mvn.w	r6, #2
 8006b82:	6804      	ldr	r4, [r0, #0]
 8006b84:	3201      	adds	r2, #1
 8006b86:	f004 0460 	and.w	r4, r4, #96	; 0x60
 8006b8a:	2c60      	cmp	r4, #96	; 0x60
 8006b8c:	bf18      	it	ne
 8006b8e:	0852      	lsrne	r2, r2, #1
 8006b90:	0155      	lsls	r5, r2, #5
 8006b92:	2400      	movs	r4, #0
 8006b94:	6106      	str	r6, [r0, #16]
 8006b96:	e002      	b.n	8006b9e <waitForPolarizationEnd+0x22>
 8006b98:	6902      	ldr	r2, [r0, #16]
 8006b9a:	0792      	lsls	r2, r2, #30
 8006b9c:	d404      	bmi.n	8006ba8 <waitForPolarizationEnd+0x2c>
 8006b9e:	781a      	ldrb	r2, [r3, #0]
 8006ba0:	2a0f      	cmp	r2, #15
 8006ba2:	d9f9      	bls.n	8006b98 <waitForPolarizationEnd+0x1c>
 8006ba4:	bc70      	pop	{r4, r5, r6}
 8006ba6:	4770      	bx	lr
 8006ba8:	3401      	adds	r4, #1
 8006baa:	b2a4      	uxth	r4, r4
 8006bac:	42a5      	cmp	r5, r4
 8006bae:	6106      	str	r6, [r0, #16]
 8006bb0:	d8f5      	bhi.n	8006b9e <waitForPolarizationEnd+0x22>
 8006bb2:	781a      	ldrb	r2, [r3, #0]
 8006bb4:	2a0f      	cmp	r2, #15
 8006bb6:	d8f2      	bhi.n	8006b9e <waitForPolarizationEnd+0x22>
 8006bb8:	2301      	movs	r3, #1
 8006bba:	800b      	strh	r3, [r1, #0]
 8006bbc:	e7f2      	b.n	8006ba4 <waitForPolarizationEnd+0x28>
 8006bbe:	bf00      	nop

08006bc0 <PWMC_GetPhaseCurrents>:
 8006bc0:	6843      	ldr	r3, [r0, #4]
 8006bc2:	4718      	bx	r3

08006bc4 <PWMC_SetPhaseVoltage>:
 8006bc4:	b4f0      	push	{r4, r5, r6, r7}
 8006bc6:	f8b0 7050 	ldrh.w	r7, [r0, #80]	; 0x50
 8006bca:	140c      	asrs	r4, r1, #16
 8006bcc:	8e03      	ldrh	r3, [r0, #48]	; 0x30
 8006bce:	fb07 f404 	mul.w	r4, r7, r4
 8006bd2:	b20a      	sxth	r2, r1
 8006bd4:	fb03 f302 	mul.w	r3, r3, r2
 8006bd8:	ebc4 74c4 	rsb	r4, r4, r4, lsl #31
 8006bdc:	0064      	lsls	r4, r4, #1
 8006bde:	1ae2      	subs	r2, r4, r3
 8006be0:	4423      	add	r3, r4
 8006be2:	eb03 75d3 	add.w	r5, r3, r3, lsr #31
 8006be6:	b082      	sub	sp, #8
 8006be8:	eb02 76d2 	add.w	r6, r2, r2, lsr #31
 8006bec:	106d      	asrs	r5, r5, #1
 8006bee:	9101      	str	r1, [sp, #4]
 8006bf0:	ea4f 0666 	mov.w	r6, r6, asr #1
 8006bf4:	ea4f 0197 	mov.w	r1, r7, lsr #2
 8006bf8:	d46c      	bmi.n	8006cd4 <PWMC_SetPhaseVoltage+0x110>
 8006bfa:	2e00      	cmp	r6, #0
 8006bfc:	db4c      	blt.n	8006c98 <PWMC_SetPhaseVoltage+0xd4>
 8006bfe:	2401      	movs	r4, #1
 8006c00:	1bad      	subs	r5, r5, r6
 8006c02:	bf44      	itt	mi
 8006c04:	f505 357f 	addmi.w	r5, r5, #261120	; 0x3fc00
 8006c08:	f205 35ff 	addwmi	r5, r5, #1023	; 0x3ff
 8006c0c:	2a00      	cmp	r2, #0
 8006c0e:	bfbc      	itt	lt
 8006c10:	f502 327f 	addlt.w	r2, r2, #261120	; 0x3fc00
 8006c14:	f202 32ff 	addwlt	r2, r2, #1023	; 0x3ff
 8006c18:	2b00      	cmp	r3, #0
 8006c1a:	bfb8      	it	lt
 8006c1c:	f503 337f 	addlt.w	r3, r3, #261120	; 0x3fc00
 8006c20:	eb01 41a5 	add.w	r1, r1, r5, asr #18
 8006c24:	bfb8      	it	lt
 8006c26:	f203 33ff 	addwlt	r3, r3, #1023	; 0x3ff
 8006c2a:	eb01 42a2 	add.w	r2, r1, r2, asr #18
 8006c2e:	eba1 43a3 	sub.w	r3, r1, r3, asr #18
 8006c32:	f880 403a 	strb.w	r4, [r0, #58]	; 0x3a
 8006c36:	f8a0 3040 	strh.w	r3, [r0, #64]	; 0x40
 8006c3a:	8782      	strh	r2, [r0, #60]	; 0x3c
 8006c3c:	87c1      	strh	r1, [r0, #62]	; 0x3e
 8006c3e:	f8b0 404e 	ldrh.w	r4, [r0, #78]	; 0x4e
 8006c42:	ea21 71e1 	bic.w	r1, r1, r1, asr #31
 8006c46:	ea22 72e2 	bic.w	r2, r2, r2, asr #31
 8006c4a:	ea23 73e3 	bic.w	r3, r3, r3, asr #31
 8006c4e:	b289      	uxth	r1, r1
 8006c50:	b292      	uxth	r2, r2
 8006c52:	b29b      	uxth	r3, r3
 8006c54:	2c01      	cmp	r4, #1
 8006c56:	8641      	strh	r1, [r0, #50]	; 0x32
 8006c58:	8682      	strh	r2, [r0, #52]	; 0x34
 8006c5a:	86c3      	strh	r3, [r0, #54]	; 0x36
 8006c5c:	d118      	bne.n	8006c90 <PWMC_SetPhaseVoltage+0xcc>
 8006c5e:	f9b0 5048 	ldrsh.w	r5, [r0, #72]	; 0x48
 8006c62:	f8b0 4054 	ldrh.w	r4, [r0, #84]	; 0x54
 8006c66:	2d00      	cmp	r5, #0
 8006c68:	bfcc      	ite	gt
 8006c6a:	1909      	addgt	r1, r1, r4
 8006c6c:	1b09      	suble	r1, r1, r4
 8006c6e:	b289      	uxth	r1, r1
 8006c70:	f9b0 504a 	ldrsh.w	r5, [r0, #74]	; 0x4a
 8006c74:	8641      	strh	r1, [r0, #50]	; 0x32
 8006c76:	f9b0 104c 	ldrsh.w	r1, [r0, #76]	; 0x4c
 8006c7a:	2d00      	cmp	r5, #0
 8006c7c:	bfcc      	ite	gt
 8006c7e:	1912      	addgt	r2, r2, r4
 8006c80:	1b12      	suble	r2, r2, r4
 8006c82:	2900      	cmp	r1, #0
 8006c84:	b292      	uxth	r2, r2
 8006c86:	bfcc      	ite	gt
 8006c88:	191b      	addgt	r3, r3, r4
 8006c8a:	1b1b      	suble	r3, r3, r4
 8006c8c:	8682      	strh	r2, [r0, #52]	; 0x34
 8006c8e:	86c3      	strh	r3, [r0, #54]	; 0x36
 8006c90:	6983      	ldr	r3, [r0, #24]
 8006c92:	b002      	add	sp, #8
 8006c94:	bcf0      	pop	{r4, r5, r6, r7}
 8006c96:	4718      	bx	r3
 8006c98:	2c00      	cmp	r4, #0
 8006c9a:	dd3a      	ble.n	8006d12 <PWMC_SetPhaseVoltage+0x14e>
 8006c9c:	2300      	movs	r3, #0
 8006c9e:	2a00      	cmp	r2, #0
 8006ca0:	bfbc      	itt	lt
 8006ca2:	f502 327f 	addlt.w	r2, r2, #261120	; 0x3fc00
 8006ca6:	f202 32ff 	addwlt	r2, r2, #1023	; 0x3ff
 8006caa:	1ba5      	subs	r5, r4, r6
 8006cac:	f880 303a 	strb.w	r3, [r0, #58]	; 0x3a
 8006cb0:	1e23      	subs	r3, r4, #0
 8006cb2:	eb01 41a5 	add.w	r1, r1, r5, asr #18
 8006cb6:	bfb8      	it	lt
 8006cb8:	f503 33ff 	addlt.w	r3, r3, #130560	; 0x1fe00
 8006cbc:	eb01 42a2 	add.w	r2, r1, r2, asr #18
 8006cc0:	bfb8      	it	lt
 8006cc2:	f203 13ff 	addwlt	r3, r3, #511	; 0x1ff
 8006cc6:	eba2 4363 	sub.w	r3, r2, r3, asr #17
 8006cca:	f8a0 3040 	strh.w	r3, [r0, #64]	; 0x40
 8006cce:	8781      	strh	r1, [r0, #60]	; 0x3c
 8006cd0:	87c2      	strh	r2, [r0, #62]	; 0x3e
 8006cd2:	e7b4      	b.n	8006c3e <PWMC_SetPhaseVoltage+0x7a>
 8006cd4:	2e00      	cmp	r6, #0
 8006cd6:	db59      	blt.n	8006d8c <PWMC_SetPhaseVoltage+0x1c8>
 8006cd8:	2c00      	cmp	r4, #0
 8006cda:	dd36      	ble.n	8006d4a <PWMC_SetPhaseVoltage+0x186>
 8006cdc:	2202      	movs	r2, #2
 8006cde:	1b2d      	subs	r5, r5, r4
 8006ce0:	bf44      	itt	mi
 8006ce2:	f505 357f 	addmi.w	r5, r5, #261120	; 0x3fc00
 8006ce6:	f205 35ff 	addwmi	r5, r5, #1023	; 0x3ff
 8006cea:	2b00      	cmp	r3, #0
 8006cec:	bfb8      	it	lt
 8006cee:	f503 337f 	addlt.w	r3, r3, #261120	; 0x3fc00
 8006cf2:	eb01 41a5 	add.w	r1, r1, r5, asr #18
 8006cf6:	bfb8      	it	lt
 8006cf8:	f203 33ff 	addwlt	r3, r3, #1023	; 0x3ff
 8006cfc:	eba1 43a3 	sub.w	r3, r1, r3, asr #18
 8006d00:	f880 203a 	strb.w	r2, [r0, #58]	; 0x3a
 8006d04:	eb03 4264 	add.w	r2, r3, r4, asr #17
 8006d08:	8782      	strh	r2, [r0, #60]	; 0x3c
 8006d0a:	87c3      	strh	r3, [r0, #62]	; 0x3e
 8006d0c:	f8a0 1040 	strh.w	r1, [r0, #64]	; 0x40
 8006d10:	e795      	b.n	8006c3e <PWMC_SetPhaseVoltage+0x7a>
 8006d12:	2205      	movs	r2, #5
 8006d14:	2b00      	cmp	r3, #0
 8006d16:	bfbc      	itt	lt
 8006d18:	f503 337f 	addlt.w	r3, r3, #261120	; 0x3fc00
 8006d1c:	f203 33ff 	addwlt	r3, r3, #1023	; 0x3ff
 8006d20:	1b2d      	subs	r5, r5, r4
 8006d22:	f880 203a 	strb.w	r2, [r0, #58]	; 0x3a
 8006d26:	1e22      	subs	r2, r4, #0
 8006d28:	eb01 41a5 	add.w	r1, r1, r5, asr #18
 8006d2c:	bfb8      	it	lt
 8006d2e:	f502 32ff 	addlt.w	r2, r2, #130560	; 0x1fe00
 8006d32:	eba1 43a3 	sub.w	r3, r1, r3, asr #18
 8006d36:	bfb8      	it	lt
 8006d38:	f202 12ff 	addwlt	r2, r2, #511	; 0x1ff
 8006d3c:	eb03 4262 	add.w	r2, r3, r2, asr #17
 8006d40:	f8a0 2040 	strh.w	r2, [r0, #64]	; 0x40
 8006d44:	8781      	strh	r1, [r0, #60]	; 0x3c
 8006d46:	87c3      	strh	r3, [r0, #62]	; 0x3e
 8006d48:	e779      	b.n	8006c3e <PWMC_SetPhaseVoltage+0x7a>
 8006d4a:	2303      	movs	r3, #3
 8006d4c:	1ba5      	subs	r5, r4, r6
 8006d4e:	bf44      	itt	mi
 8006d50:	f505 357f 	addmi.w	r5, r5, #261120	; 0x3fc00
 8006d54:	f205 35ff 	addwmi	r5, r5, #1023	; 0x3ff
 8006d58:	2a00      	cmp	r2, #0
 8006d5a:	bfbc      	itt	lt
 8006d5c:	f502 327f 	addlt.w	r2, r2, #261120	; 0x3fc00
 8006d60:	f202 32ff 	addwlt	r2, r2, #1023	; 0x3ff
 8006d64:	f880 303a 	strb.w	r3, [r0, #58]	; 0x3a
 8006d68:	1e23      	subs	r3, r4, #0
 8006d6a:	eb01 41a5 	add.w	r1, r1, r5, asr #18
 8006d6e:	bfb8      	it	lt
 8006d70:	f503 33ff 	addlt.w	r3, r3, #130560	; 0x1fe00
 8006d74:	eb01 42a2 	add.w	r2, r1, r2, asr #18
 8006d78:	bfb8      	it	lt
 8006d7a:	f203 13ff 	addwlt	r3, r3, #511	; 0x1ff
 8006d7e:	eba2 4363 	sub.w	r3, r2, r3, asr #17
 8006d82:	8783      	strh	r3, [r0, #60]	; 0x3c
 8006d84:	87c2      	strh	r2, [r0, #62]	; 0x3e
 8006d86:	f8a0 1040 	strh.w	r1, [r0, #64]	; 0x40
 8006d8a:	e758      	b.n	8006c3e <PWMC_SetPhaseVoltage+0x7a>
 8006d8c:	2404      	movs	r4, #4
 8006d8e:	1bad      	subs	r5, r5, r6
 8006d90:	bf44      	itt	mi
 8006d92:	f505 357f 	addmi.w	r5, r5, #261120	; 0x3fc00
 8006d96:	f205 35ff 	addwmi	r5, r5, #1023	; 0x3ff
 8006d9a:	2a00      	cmp	r2, #0
 8006d9c:	bfbc      	itt	lt
 8006d9e:	f502 327f 	addlt.w	r2, r2, #261120	; 0x3fc00
 8006da2:	f202 32ff 	addwlt	r2, r2, #1023	; 0x3ff
 8006da6:	2b00      	cmp	r3, #0
 8006da8:	bfb8      	it	lt
 8006daa:	f503 337f 	addlt.w	r3, r3, #261120	; 0x3fc00
 8006dae:	eb01 41a5 	add.w	r1, r1, r5, asr #18
 8006db2:	bfb8      	it	lt
 8006db4:	f203 33ff 	addwlt	r3, r3, #1023	; 0x3ff
 8006db8:	eb01 42a2 	add.w	r2, r1, r2, asr #18
 8006dbc:	eba1 43a3 	sub.w	r3, r1, r3, asr #18
 8006dc0:	f880 403a 	strb.w	r4, [r0, #58]	; 0x3a
 8006dc4:	8783      	strh	r3, [r0, #60]	; 0x3c
 8006dc6:	87c1      	strh	r1, [r0, #62]	; 0x3e
 8006dc8:	f8a0 2040 	strh.w	r2, [r0, #64]	; 0x40
 8006dcc:	e737      	b.n	8006c3e <PWMC_SetPhaseVoltage+0x7a>
 8006dce:	bf00      	nop

08006dd0 <PWMC_SwitchOffPWM>:
 8006dd0:	6883      	ldr	r3, [r0, #8]
 8006dd2:	4718      	bx	r3

08006dd4 <PWMC_CurrentReadingCalibr>:
 8006dd4:	b510      	push	{r4, lr}
 8006dd6:	4604      	mov	r4, r0
 8006dd8:	b082      	sub	sp, #8
 8006dda:	b1a1      	cbz	r1, 8006e06 <PWMC_CurrentReadingCalibr+0x32>
 8006ddc:	2901      	cmp	r1, #1
 8006dde:	d002      	beq.n	8006de6 <PWMC_CurrentReadingCalibr+0x12>
 8006de0:	2000      	movs	r0, #0
 8006de2:	b002      	add	sp, #8
 8006de4:	bd10      	pop	{r4, pc}
 8006de6:	f8b0 3044 	ldrh.w	r3, [r0, #68]	; 0x44
 8006dea:	b1d3      	cbz	r3, 8006e22 <PWMC_CurrentReadingCalibr+0x4e>
 8006dec:	3b01      	subs	r3, #1
 8006dee:	b29b      	uxth	r3, r3
 8006df0:	9101      	str	r1, [sp, #4]
 8006df2:	f8a0 3044 	strh.w	r3, [r0, #68]	; 0x44
 8006df6:	2b00      	cmp	r3, #0
 8006df8:	d1f2      	bne.n	8006de0 <PWMC_CurrentReadingCalibr+0xc>
 8006dfa:	6903      	ldr	r3, [r0, #16]
 8006dfc:	4798      	blx	r3
 8006dfe:	9901      	ldr	r1, [sp, #4]
 8006e00:	4608      	mov	r0, r1
 8006e02:	b002      	add	sp, #8
 8006e04:	bd10      	pop	{r4, pc}
 8006e06:	f7ff ffe3 	bl	8006dd0 <PWMC_SwitchOffPWM>
 8006e0a:	f8b4 3052 	ldrh.w	r3, [r4, #82]	; 0x52
 8006e0e:	f8a4 3044 	strh.w	r3, [r4, #68]	; 0x44
 8006e12:	2b00      	cmp	r3, #0
 8006e14:	d1e4      	bne.n	8006de0 <PWMC_CurrentReadingCalibr+0xc>
 8006e16:	4620      	mov	r0, r4
 8006e18:	6923      	ldr	r3, [r4, #16]
 8006e1a:	4798      	blx	r3
 8006e1c:	2001      	movs	r0, #1
 8006e1e:	b002      	add	sp, #8
 8006e20:	bd10      	pop	{r4, pc}
 8006e22:	4608      	mov	r0, r1
 8006e24:	b002      	add	sp, #8
 8006e26:	bd10      	pop	{r4, pc}

08006e28 <PWMC_CheckOverCurrent>:
 8006e28:	69c3      	ldr	r3, [r0, #28]
 8006e2a:	4718      	bx	r3

08006e2c <R3_2_GetPhaseCurrents>:
 8006e2c:	6f43      	ldr	r3, [r0, #116]	; 0x74
 8006e2e:	b4f0      	push	{r4, r5, r6, r7}
 8006e30:	689c      	ldr	r4, [r3, #8]
 8006e32:	6a22      	ldr	r2, [r4, #32]
 8006e34:	f422 5280 	bic.w	r2, r2, #4096	; 0x1000
 8006e38:	6222      	str	r2, [r4, #32]
 8006e3a:	f890 203a 	ldrb.w	r2, [r0, #58]	; 0x3a
 8006e3e:	eb03 0382 	add.w	r3, r3, r2, lsl #2
 8006e42:	6b1c      	ldr	r4, [r3, #48]	; 0x30
 8006e44:	699d      	ldr	r5, [r3, #24]
 8006e46:	2a05      	cmp	r2, #5
 8006e48:	682b      	ldr	r3, [r5, #0]
 8006e4a:	6824      	ldr	r4, [r4, #0]
 8006e4c:	d823      	bhi.n	8006e96 <R3_2_GetPhaseCurrents+0x6a>
 8006e4e:	2501      	movs	r5, #1
 8006e50:	fa05 f202 	lsl.w	r2, r5, r2
 8006e54:	40ab      	lsls	r3, r5
 8006e56:	40ac      	lsls	r4, r5
 8006e58:	f012 0f21 	tst.w	r2, #33	; 0x21
 8006e5c:	b29b      	uxth	r3, r3
 8006e5e:	b2a4      	uxth	r4, r4
 8006e60:	d129      	bne.n	8006eb6 <R3_2_GetPhaseCurrents+0x8a>
 8006e62:	f012 0f06 	tst.w	r2, #6
 8006e66:	d040      	beq.n	8006eea <R3_2_GetPhaseCurrents+0xbe>
 8006e68:	6dc2      	ldr	r2, [r0, #92]	; 0x5c
 8006e6a:	4d4d      	ldr	r5, [pc, #308]	; (8006fa0 <R3_2_GetPhaseCurrents+0x174>)
 8006e6c:	1ad2      	subs	r2, r2, r3
 8006e6e:	42aa      	cmp	r2, r5
 8006e70:	da6f      	bge.n	8006f52 <R3_2_GetPhaseCurrents+0x126>
 8006e72:	462a      	mov	r2, r5
 8006e74:	462e      	mov	r6, r5
 8006e76:	f248 0301 	movw	r3, #32769	; 0x8001
 8006e7a:	800d      	strh	r5, [r1, #0]
 8006e7c:	6e45      	ldr	r5, [r0, #100]	; 0x64
 8006e7e:	1b64      	subs	r4, r4, r5
 8006e80:	1aa4      	subs	r4, r4, r2
 8006e82:	f5b4 4f00 	cmp.w	r4, #32768	; 0x8000
 8006e86:	da6d      	bge.n	8006f64 <R3_2_GetPhaseCurrents+0x138>
 8006e88:	4f45      	ldr	r7, [pc, #276]	; (8006fa0 <R3_2_GetPhaseCurrents+0x174>)
 8006e8a:	42bc      	cmp	r4, r7
 8006e8c:	db76      	blt.n	8006f7c <R3_2_GetPhaseCurrents+0x150>
 8006e8e:	b227      	sxth	r7, r4
 8006e90:	804f      	strh	r7, [r1, #2]
 8006e92:	b2a2      	uxth	r2, r4
 8006e94:	e005      	b.n	8006ea2 <R3_2_GetPhaseCurrents+0x76>
 8006e96:	f9b1 6000 	ldrsh.w	r6, [r1]
 8006e9a:	f9b1 7002 	ldrsh.w	r7, [r1, #2]
 8006e9e:	b2b3      	uxth	r3, r6
 8006ea0:	b2ba      	uxth	r2, r7
 8006ea2:	4413      	add	r3, r2
 8006ea4:	425b      	negs	r3, r3
 8006ea6:	f8a0 6048 	strh.w	r6, [r0, #72]	; 0x48
 8006eaa:	f8a0 704a 	strh.w	r7, [r0, #74]	; 0x4a
 8006eae:	f8a0 304c 	strh.w	r3, [r0, #76]	; 0x4c
 8006eb2:	bcf0      	pop	{r4, r5, r6, r7}
 8006eb4:	4770      	bx	lr
 8006eb6:	6e05      	ldr	r5, [r0, #96]	; 0x60
 8006eb8:	4a39      	ldr	r2, [pc, #228]	; (8006fa0 <R3_2_GetPhaseCurrents+0x174>)
 8006eba:	1aeb      	subs	r3, r5, r3
 8006ebc:	4293      	cmp	r3, r2
 8006ebe:	db34      	blt.n	8006f2a <R3_2_GetPhaseCurrents+0xfe>
 8006ec0:	f5b3 4f00 	cmp.w	r3, #32768	; 0x8000
 8006ec4:	db41      	blt.n	8006f4a <R3_2_GetPhaseCurrents+0x11e>
 8006ec6:	f647 73ff 	movw	r3, #32767	; 0x7fff
 8006eca:	461a      	mov	r2, r3
 8006ecc:	461f      	mov	r7, r3
 8006ece:	804b      	strh	r3, [r1, #2]
 8006ed0:	6e45      	ldr	r5, [r0, #100]	; 0x64
 8006ed2:	1b65      	subs	r5, r4, r5
 8006ed4:	1aeb      	subs	r3, r5, r3
 8006ed6:	f5b3 4f00 	cmp.w	r3, #32768	; 0x8000
 8006eda:	da2c      	bge.n	8006f36 <R3_2_GetPhaseCurrents+0x10a>
 8006edc:	4e30      	ldr	r6, [pc, #192]	; (8006fa0 <R3_2_GetPhaseCurrents+0x174>)
 8006ede:	42b3      	cmp	r3, r6
 8006ee0:	da2f      	bge.n	8006f42 <R3_2_GetPhaseCurrents+0x116>
 8006ee2:	800e      	strh	r6, [r1, #0]
 8006ee4:	f248 0301 	movw	r3, #32769	; 0x8001
 8006ee8:	e7db      	b.n	8006ea2 <R3_2_GetPhaseCurrents+0x76>
 8006eea:	f012 0f18 	tst.w	r2, #24
 8006eee:	d0d2      	beq.n	8006e96 <R3_2_GetPhaseCurrents+0x6a>
 8006ef0:	6dc2      	ldr	r2, [r0, #92]	; 0x5c
 8006ef2:	f5a5 4500 	sub.w	r5, r5, #32768	; 0x8000
 8006ef6:	1ad3      	subs	r3, r2, r3
 8006ef8:	42ab      	cmp	r3, r5
 8006efa:	db3d      	blt.n	8006f78 <R3_2_GetPhaseCurrents+0x14c>
 8006efc:	f5b3 4f00 	cmp.w	r3, #32768	; 0x8000
 8006f00:	bfa8      	it	ge
 8006f02:	f647 73ff 	movwge	r3, #32767	; 0x7fff
 8006f06:	800b      	strh	r3, [r1, #0]
 8006f08:	6e02      	ldr	r2, [r0, #96]	; 0x60
 8006f0a:	4f25      	ldr	r7, [pc, #148]	; (8006fa0 <R3_2_GetPhaseCurrents+0x174>)
 8006f0c:	1b14      	subs	r4, r2, r4
 8006f0e:	42bc      	cmp	r4, r7
 8006f10:	db38      	blt.n	8006f84 <R3_2_GetPhaseCurrents+0x158>
 8006f12:	f5b4 4f00 	cmp.w	r4, #32768	; 0x8000
 8006f16:	db3c      	blt.n	8006f92 <R3_2_GetPhaseCurrents+0x166>
 8006f18:	f647 73ff 	movw	r3, #32767	; 0x7fff
 8006f1c:	f9b1 6000 	ldrsh.w	r6, [r1]
 8006f20:	461a      	mov	r2, r3
 8006f22:	804b      	strh	r3, [r1, #2]
 8006f24:	461f      	mov	r7, r3
 8006f26:	b2b3      	uxth	r3, r6
 8006f28:	e7bb      	b.n	8006ea2 <R3_2_GetPhaseCurrents+0x76>
 8006f2a:	4613      	mov	r3, r2
 8006f2c:	804a      	strh	r2, [r1, #2]
 8006f2e:	4617      	mov	r7, r2
 8006f30:	f248 0201 	movw	r2, #32769	; 0x8001
 8006f34:	e7cc      	b.n	8006ed0 <R3_2_GetPhaseCurrents+0xa4>
 8006f36:	f647 74ff 	movw	r4, #32767	; 0x7fff
 8006f3a:	4623      	mov	r3, r4
 8006f3c:	800c      	strh	r4, [r1, #0]
 8006f3e:	4626      	mov	r6, r4
 8006f40:	e7af      	b.n	8006ea2 <R3_2_GetPhaseCurrents+0x76>
 8006f42:	b21e      	sxth	r6, r3
 8006f44:	800e      	strh	r6, [r1, #0]
 8006f46:	b29b      	uxth	r3, r3
 8006f48:	e7ab      	b.n	8006ea2 <R3_2_GetPhaseCurrents+0x76>
 8006f4a:	b21f      	sxth	r7, r3
 8006f4c:	804f      	strh	r7, [r1, #2]
 8006f4e:	b29a      	uxth	r2, r3
 8006f50:	e7be      	b.n	8006ed0 <R3_2_GetPhaseCurrents+0xa4>
 8006f52:	f5b2 4f00 	cmp.w	r2, #32768	; 0x8000
 8006f56:	db0b      	blt.n	8006f70 <R3_2_GetPhaseCurrents+0x144>
 8006f58:	f647 72ff 	movw	r2, #32767	; 0x7fff
 8006f5c:	4613      	mov	r3, r2
 8006f5e:	800a      	strh	r2, [r1, #0]
 8006f60:	4616      	mov	r6, r2
 8006f62:	e78b      	b.n	8006e7c <R3_2_GetPhaseCurrents+0x50>
 8006f64:	f647 74ff 	movw	r4, #32767	; 0x7fff
 8006f68:	4622      	mov	r2, r4
 8006f6a:	804c      	strh	r4, [r1, #2]
 8006f6c:	4627      	mov	r7, r4
 8006f6e:	e798      	b.n	8006ea2 <R3_2_GetPhaseCurrents+0x76>
 8006f70:	b216      	sxth	r6, r2
 8006f72:	800e      	strh	r6, [r1, #0]
 8006f74:	b293      	uxth	r3, r2
 8006f76:	e781      	b.n	8006e7c <R3_2_GetPhaseCurrents+0x50>
 8006f78:	800d      	strh	r5, [r1, #0]
 8006f7a:	e7c5      	b.n	8006f08 <R3_2_GetPhaseCurrents+0xdc>
 8006f7c:	804f      	strh	r7, [r1, #2]
 8006f7e:	f248 0201 	movw	r2, #32769	; 0x8001
 8006f82:	e78e      	b.n	8006ea2 <R3_2_GetPhaseCurrents+0x76>
 8006f84:	f9b1 6000 	ldrsh.w	r6, [r1]
 8006f88:	804f      	strh	r7, [r1, #2]
 8006f8a:	b2b3      	uxth	r3, r6
 8006f8c:	f248 0201 	movw	r2, #32769	; 0x8001
 8006f90:	e787      	b.n	8006ea2 <R3_2_GetPhaseCurrents+0x76>
 8006f92:	f9b1 6000 	ldrsh.w	r6, [r1]
 8006f96:	b227      	sxth	r7, r4
 8006f98:	b2b3      	uxth	r3, r6
 8006f9a:	804f      	strh	r7, [r1, #2]
 8006f9c:	b2a2      	uxth	r2, r4
 8006f9e:	e780      	b.n	8006ea2 <R3_2_GetPhaseCurrents+0x76>
 8006fa0:	ffff8001 	.word	0xffff8001

08006fa4 <R3_2_HFCurrentsPolarizationAB>:
 8006fa4:	6f43      	ldr	r3, [r0, #116]	; 0x74
 8006fa6:	b430      	push	{r4, r5}
 8006fa8:	689c      	ldr	r4, [r3, #8]
 8006faa:	6a22      	ldr	r2, [r4, #32]
 8006fac:	f422 5280 	bic.w	r2, r2, #4096	; 0x1000
 8006fb0:	6222      	str	r2, [r4, #32]
 8006fb2:	f890 2070 	ldrb.w	r2, [r0, #112]	; 0x70
 8006fb6:	2a0f      	cmp	r2, #15
 8006fb8:	d813      	bhi.n	8006fe2 <R3_2_HFCurrentsPolarizationAB+0x3e>
 8006fba:	f890 2071 	ldrb.w	r2, [r0, #113]	; 0x71
 8006fbe:	6dc4      	ldr	r4, [r0, #92]	; 0x5c
 8006fc0:	eb03 0382 	add.w	r3, r3, r2, lsl #2
 8006fc4:	699a      	ldr	r2, [r3, #24]
 8006fc6:	6b1b      	ldr	r3, [r3, #48]	; 0x30
 8006fc8:	6815      	ldr	r5, [r2, #0]
 8006fca:	6e02      	ldr	r2, [r0, #96]	; 0x60
 8006fcc:	442c      	add	r4, r5
 8006fce:	65c4      	str	r4, [r0, #92]	; 0x5c
 8006fd0:	681c      	ldr	r4, [r3, #0]
 8006fd2:	f890 3070 	ldrb.w	r3, [r0, #112]	; 0x70
 8006fd6:	4422      	add	r2, r4
 8006fd8:	3301      	adds	r3, #1
 8006fda:	b2db      	uxtb	r3, r3
 8006fdc:	6602      	str	r2, [r0, #96]	; 0x60
 8006fde:	f880 3070 	strb.w	r3, [r0, #112]	; 0x70
 8006fe2:	2300      	movs	r3, #0
 8006fe4:	bc30      	pop	{r4, r5}
 8006fe6:	600b      	str	r3, [r1, #0]
 8006fe8:	4770      	bx	lr
 8006fea:	bf00      	nop

08006fec <R3_2_HFCurrentsPolarizationC>:
 8006fec:	b410      	push	{r4}
 8006fee:	6f44      	ldr	r4, [r0, #116]	; 0x74
 8006ff0:	68a2      	ldr	r2, [r4, #8]
 8006ff2:	6a13      	ldr	r3, [r2, #32]
 8006ff4:	f423 5380 	bic.w	r3, r3, #4096	; 0x1000
 8006ff8:	6213      	str	r3, [r2, #32]
 8006ffa:	f890 3070 	ldrb.w	r3, [r0, #112]	; 0x70
 8006ffe:	2b0f      	cmp	r3, #15
 8007000:	d80e      	bhi.n	8007020 <R3_2_HFCurrentsPolarizationC+0x34>
 8007002:	f890 3071 	ldrb.w	r3, [r0, #113]	; 0x71
 8007006:	6e42      	ldr	r2, [r0, #100]	; 0x64
 8007008:	330c      	adds	r3, #12
 800700a:	f854 3023 	ldr.w	r3, [r4, r3, lsl #2]
 800700e:	681c      	ldr	r4, [r3, #0]
 8007010:	f890 3070 	ldrb.w	r3, [r0, #112]	; 0x70
 8007014:	4422      	add	r2, r4
 8007016:	3301      	adds	r3, #1
 8007018:	b2db      	uxtb	r3, r3
 800701a:	6642      	str	r2, [r0, #100]	; 0x64
 800701c:	f880 3070 	strb.w	r3, [r0, #112]	; 0x70
 8007020:	2300      	movs	r3, #0
 8007022:	bc10      	pop	{r4}
 8007024:	600b      	str	r3, [r1, #0]
 8007026:	4770      	bx	lr

08007028 <R3_2_SetADCSampPointPolarization>:
 8007028:	4603      	mov	r3, r0
 800702a:	b430      	push	{r4, r5}
 800702c:	f890 0071 	ldrb.w	r0, [r0, #113]	; 0x71
 8007030:	6f5a      	ldr	r2, [r3, #116]	; 0x74
 8007032:	f883 003a 	strb.w	r0, [r3, #58]	; 0x3a
 8007036:	6892      	ldr	r2, [r2, #8]
 8007038:	f8b3 106c 	ldrh.w	r1, [r3, #108]	; 0x6c
 800703c:	8e58      	ldrh	r0, [r3, #50]	; 0x32
 800703e:	8e9d      	ldrh	r5, [r3, #52]	; 0x34
 8007040:	8edc      	ldrh	r4, [r3, #54]	; 0x36
 8007042:	3901      	subs	r1, #1
 8007044:	6350      	str	r0, [r2, #52]	; 0x34
 8007046:	8f18      	ldrh	r0, [r3, #56]	; 0x38
 8007048:	b289      	uxth	r1, r1
 800704a:	6395      	str	r5, [r2, #56]	; 0x38
 800704c:	2801      	cmp	r0, #1
 800704e:	63d4      	str	r4, [r2, #60]	; 0x3c
 8007050:	6411      	str	r1, [r2, #64]	; 0x40
 8007052:	6a12      	ldr	r2, [r2, #32]
 8007054:	bf08      	it	eq
 8007056:	2200      	moveq	r2, #0
 8007058:	bc30      	pop	{r4, r5}
 800705a:	bf14      	ite	ne
 800705c:	f3c2 3000 	ubfxne	r0, r2, #12, #1
 8007060:	871a      	strheq	r2, [r3, #56]	; 0x38
 8007062:	4770      	bx	lr

08007064 <R3_2_SetADCSampPointSectX>:
 8007064:	b470      	push	{r4, r5, r6}
 8007066:	4603      	mov	r3, r0
 8007068:	2570      	movs	r5, #112	; 0x70
 800706a:	6f44      	ldr	r4, [r0, #116]	; 0x74
 800706c:	8f82      	ldrh	r2, [r0, #60]	; 0x3c
 800706e:	f8b0 606c 	ldrh.w	r6, [r0, #108]	; 0x6c
 8007072:	f8b4 1084 	ldrh.w	r1, [r4, #132]	; 0x84
 8007076:	1ab0      	subs	r0, r6, r2
 8007078:	b280      	uxth	r0, r0
 800707a:	4288      	cmp	r0, r1
 800707c:	669d      	str	r5, [r3, #104]	; 0x68
 800707e:	d917      	bls.n	80070b0 <R3_2_SetADCSampPointSectX+0x4c>
 8007080:	2103      	movs	r1, #3
 8007082:	1e72      	subs	r2, r6, #1
 8007084:	b292      	uxth	r2, r2
 8007086:	f883 103a 	strb.w	r1, [r3, #58]	; 0x3a
 800708a:	68a1      	ldr	r1, [r4, #8]
 800708c:	8e58      	ldrh	r0, [r3, #50]	; 0x32
 800708e:	8e9d      	ldrh	r5, [r3, #52]	; 0x34
 8007090:	8edc      	ldrh	r4, [r3, #54]	; 0x36
 8007092:	6348      	str	r0, [r1, #52]	; 0x34
 8007094:	8f18      	ldrh	r0, [r3, #56]	; 0x38
 8007096:	638d      	str	r5, [r1, #56]	; 0x38
 8007098:	2801      	cmp	r0, #1
 800709a:	63cc      	str	r4, [r1, #60]	; 0x3c
 800709c:	640a      	str	r2, [r1, #64]	; 0x40
 800709e:	6a0a      	ldr	r2, [r1, #32]
 80070a0:	bf08      	it	eq
 80070a2:	2200      	moveq	r2, #0
 80070a4:	bc70      	pop	{r4, r5, r6}
 80070a6:	bf14      	ite	ne
 80070a8:	f3c2 3000 	ubfxne	r0, r2, #12, #1
 80070ac:	871a      	strheq	r2, [r3, #56]	; 0x38
 80070ae:	4770      	bx	lr
 80070b0:	8fdd      	ldrh	r5, [r3, #62]	; 0x3e
 80070b2:	1b55      	subs	r5, r2, r5
 80070b4:	b2ad      	uxth	r5, r5
 80070b6:	ebb5 0f40 	cmp.w	r5, r0, lsl #1
 80070ba:	d904      	bls.n	80070c6 <R3_2_SetADCSampPointSectX+0x62>
 80070bc:	f8b4 1086 	ldrh.w	r1, [r4, #134]	; 0x86
 80070c0:	1a52      	subs	r2, r2, r1
 80070c2:	b292      	uxth	r2, r2
 80070c4:	e7e1      	b.n	800708a <R3_2_SetADCSampPointSectX+0x26>
 80070c6:	4411      	add	r1, r2
 80070c8:	b28a      	uxth	r2, r1
 80070ca:	4296      	cmp	r6, r2
 80070cc:	d8dd      	bhi.n	800708a <R3_2_SetADCSampPointSectX+0x26>
 80070ce:	43d2      	mvns	r2, r2
 80070d0:	2160      	movs	r1, #96	; 0x60
 80070d2:	eb02 0246 	add.w	r2, r2, r6, lsl #1
 80070d6:	b292      	uxth	r2, r2
 80070d8:	6699      	str	r1, [r3, #104]	; 0x68
 80070da:	e7d6      	b.n	800708a <R3_2_SetADCSampPointSectX+0x26>

080070dc <R3_2_Init>:
 80070dc:	6f41      	ldr	r1, [r0, #116]	; 0x74
 80070de:	b470      	push	{r4, r5, r6}
 80070e0:	688b      	ldr	r3, [r1, #8]
 80070e2:	680a      	ldr	r2, [r1, #0]
 80070e4:	681c      	ldr	r4, [r3, #0]
 80070e6:	684d      	ldr	r5, [r1, #4]
 80070e8:	f024 0401 	bic.w	r4, r4, #1
 80070ec:	601c      	str	r4, [r3, #0]
 80070ee:	f891 108a 	ldrb.w	r1, [r1, #138]	; 0x8a
 80070f2:	b131      	cbz	r1, 8007102 <R3_2_Init+0x26>
 80070f4:	f06f 0180 	mvn.w	r1, #128	; 0x80
 80070f8:	6119      	str	r1, [r3, #16]
 80070fa:	68d9      	ldr	r1, [r3, #12]
 80070fc:	f041 0180 	orr.w	r1, r1, #128	; 0x80
 8007100:	60d9      	str	r1, [r3, #12]
 8007102:	6959      	ldr	r1, [r3, #20]
 8007104:	4c16      	ldr	r4, [pc, #88]	; (8007160 <R3_2_Init+0x84>)
 8007106:	f041 0101 	orr.w	r1, r1, #1
 800710a:	6159      	str	r1, [r3, #20]
 800710c:	6a19      	ldr	r1, [r3, #32]
 800710e:	42a3      	cmp	r3, r4
 8007110:	f441 61aa 	orr.w	r1, r1, #1360	; 0x550
 8007114:	f041 0105 	orr.w	r1, r1, #5
 8007118:	6219      	str	r1, [r3, #32]
 800711a:	d108      	bne.n	800712e <R3_2_Init+0x52>
 800711c:	f44f 5480 	mov.w	r4, #4096	; 0x1000
 8007120:	4910      	ldr	r1, [pc, #64]	; (8007164 <R3_2_Init+0x88>)
 8007122:	684b      	ldr	r3, [r1, #4]
 8007124:	f443 6380 	orr.w	r3, r3, #1024	; 0x400
 8007128:	604b      	str	r3, [r1, #4]
 800712a:	f8a0 406e 	strh.w	r4, [r0, #110]	; 0x6e
 800712e:	f06f 0604 	mvn.w	r6, #4
 8007132:	2470      	movs	r4, #112	; 0x70
 8007134:	2100      	movs	r1, #0
 8007136:	6893      	ldr	r3, [r2, #8]
 8007138:	f043 0301 	orr.w	r3, r3, #1
 800713c:	6093      	str	r3, [r2, #8]
 800713e:	68ab      	ldr	r3, [r5, #8]
 8007140:	f043 0301 	orr.w	r3, r3, #1
 8007144:	60ab      	str	r3, [r5, #8]
 8007146:	6016      	str	r6, [r2, #0]
 8007148:	6853      	ldr	r3, [r2, #4]
 800714a:	f043 0380 	orr.w	r3, r3, #128	; 0x80
 800714e:	6053      	str	r3, [r2, #4]
 8007150:	6684      	str	r4, [r0, #104]	; 0x68
 8007152:	f880 1072 	strb.w	r1, [r0, #114]	; 0x72
 8007156:	f8a0 104e 	strh.w	r1, [r0, #78]	; 0x4e
 800715a:	bc70      	pop	{r4, r5, r6}
 800715c:	4770      	bx	lr
 800715e:	bf00      	nop
 8007160:	40012c00 	.word	0x40012c00
 8007164:	e0042000 	.word	0xe0042000

08007168 <R3_2_TurnOnLowSides>:
 8007168:	b470      	push	{r4, r5, r6}
 800716a:	2200      	movs	r2, #0
 800716c:	2501      	movs	r5, #1
 800716e:	f06f 0401 	mvn.w	r4, #1
 8007172:	6f41      	ldr	r1, [r0, #116]	; 0x74
 8007174:	688b      	ldr	r3, [r1, #8]
 8007176:	f880 5042 	strb.w	r5, [r0, #66]	; 0x42
 800717a:	611c      	str	r4, [r3, #16]
 800717c:	635a      	str	r2, [r3, #52]	; 0x34
 800717e:	639a      	str	r2, [r3, #56]	; 0x38
 8007180:	63da      	str	r2, [r3, #60]	; 0x3c
 8007182:	691a      	ldr	r2, [r3, #16]
 8007184:	07d2      	lsls	r2, r2, #31
 8007186:	d5fc      	bpl.n	8007182 <R3_2_TurnOnLowSides+0x1a>
 8007188:	f06f 0201 	mvn.w	r2, #1
 800718c:	611a      	str	r2, [r3, #16]
 800718e:	6c5a      	ldr	r2, [r3, #68]	; 0x44
 8007190:	f891 0088 	ldrb.w	r0, [r1, #136]	; 0x88
 8007194:	f442 4200 	orr.w	r2, r2, #32768	; 0x8000
 8007198:	2802      	cmp	r0, #2
 800719a:	645a      	str	r2, [r3, #68]	; 0x44
 800719c:	d10f      	bne.n	80071be <R3_2_TurnOnLowSides+0x56>
 800719e:	e9d1 021e 	ldrd	r0, r2, [r1, #120]	; 0x78
 80071a2:	e9d1 6503 	ldrd	r6, r5, [r1, #12]
 80071a6:	f8d1 3080 	ldr.w	r3, [r1, #128]	; 0x80
 80071aa:	694c      	ldr	r4, [r1, #20]
 80071ac:	f3c0 200f 	ubfx	r0, r0, #8, #16
 80071b0:	f3c2 220f 	ubfx	r2, r2, #8, #16
 80071b4:	f3c3 230f 	ubfx	r3, r3, #8, #16
 80071b8:	6130      	str	r0, [r6, #16]
 80071ba:	612a      	str	r2, [r5, #16]
 80071bc:	6123      	str	r3, [r4, #16]
 80071be:	bc70      	pop	{r4, r5, r6}
 80071c0:	4770      	bx	lr
 80071c2:	bf00      	nop

080071c4 <R3_2_SwitchOnPWM>:
 80071c4:	b4f0      	push	{r4, r5, r6, r7}
 80071c6:	2500      	movs	r5, #0
 80071c8:	f06f 0401 	mvn.w	r4, #1
 80071cc:	6f41      	ldr	r1, [r0, #116]	; 0x74
 80071ce:	f8b0 206c 	ldrh.w	r2, [r0, #108]	; 0x6c
 80071d2:	688b      	ldr	r3, [r1, #8]
 80071d4:	f880 5042 	strb.w	r5, [r0, #66]	; 0x42
 80071d8:	0850      	lsrs	r0, r2, #1
 80071da:	3a05      	subs	r2, #5
 80071dc:	6358      	str	r0, [r3, #52]	; 0x34
 80071de:	6398      	str	r0, [r3, #56]	; 0x38
 80071e0:	63d8      	str	r0, [r3, #60]	; 0x3c
 80071e2:	641a      	str	r2, [r3, #64]	; 0x40
 80071e4:	611c      	str	r4, [r3, #16]
 80071e6:	691a      	ldr	r2, [r3, #16]
 80071e8:	07d2      	lsls	r2, r2, #31
 80071ea:	d5fc      	bpl.n	80071e6 <R3_2_SwitchOnPWM+0x22>
 80071ec:	f06f 0201 	mvn.w	r2, #1
 80071f0:	611a      	str	r2, [r3, #16]
 80071f2:	6c5a      	ldr	r2, [r3, #68]	; 0x44
 80071f4:	f891 0088 	ldrb.w	r0, [r1, #136]	; 0x88
 80071f8:	f442 6280 	orr.w	r2, r2, #1024	; 0x400
 80071fc:	645a      	str	r2, [r3, #68]	; 0x44
 80071fe:	6c5a      	ldr	r2, [r3, #68]	; 0x44
 8007200:	2802      	cmp	r0, #2
 8007202:	f442 4200 	orr.w	r2, r2, #32768	; 0x8000
 8007206:	645a      	str	r2, [r3, #68]	; 0x44
 8007208:	d008      	beq.n	800721c <R3_2_SwitchOnPWM+0x58>
 800720a:	bcf0      	pop	{r4, r5, r6, r7}
 800720c:	f06f 0201 	mvn.w	r2, #1
 8007210:	611a      	str	r2, [r3, #16]
 8007212:	68da      	ldr	r2, [r3, #12]
 8007214:	f042 0201 	orr.w	r2, r2, #1
 8007218:	60da      	str	r2, [r3, #12]
 800721a:	4770      	bx	lr
 800721c:	f240 5755 	movw	r7, #1365	; 0x555
 8007220:	e9d1 021f 	ldrd	r0, r2, [r1, #124]	; 0x7c
 8007224:	e9d1 6503 	ldrd	r6, r5, [r1, #12]
 8007228:	f8d3 c020 	ldr.w	ip, [r3, #32]
 800722c:	6f8c      	ldr	r4, [r1, #120]	; 0x78
 800722e:	ea37 070c 	bics.w	r7, r7, ip
 8007232:	f3c2 220f 	ubfx	r2, r2, #8, #16
 8007236:	f3c0 200f 	ubfx	r0, r0, #8, #16
 800723a:	f3c4 240f 	ubfx	r4, r4, #8, #16
 800723e:	6949      	ldr	r1, [r1, #20]
 8007240:	d003      	beq.n	800724a <R3_2_SwitchOnPWM+0x86>
 8007242:	6174      	str	r4, [r6, #20]
 8007244:	6168      	str	r0, [r5, #20]
 8007246:	614a      	str	r2, [r1, #20]
 8007248:	e7df      	b.n	800720a <R3_2_SwitchOnPWM+0x46>
 800724a:	6134      	str	r4, [r6, #16]
 800724c:	6128      	str	r0, [r5, #16]
 800724e:	610a      	str	r2, [r1, #16]
 8007250:	e7db      	b.n	800720a <R3_2_SwitchOnPWM+0x46>
 8007252:	bf00      	nop

08007254 <R3_2_SwitchOffPWM>:
 8007254:	b430      	push	{r4, r5}
 8007256:	2500      	movs	r5, #0
 8007258:	6f42      	ldr	r2, [r0, #116]	; 0x74
 800725a:	6893      	ldr	r3, [r2, #8]
 800725c:	f892 4088 	ldrb.w	r4, [r2, #136]	; 0x88
 8007260:	68d9      	ldr	r1, [r3, #12]
 8007262:	2c02      	cmp	r4, #2
 8007264:	f021 0101 	bic.w	r1, r1, #1
 8007268:	60d9      	str	r1, [r3, #12]
 800726a:	6c59      	ldr	r1, [r3, #68]	; 0x44
 800726c:	f880 5042 	strb.w	r5, [r0, #66]	; 0x42
 8007270:	f421 4100 	bic.w	r1, r1, #32768	; 0x8000
 8007274:	6459      	str	r1, [r3, #68]	; 0x44
 8007276:	d10f      	bne.n	8007298 <R3_2_SwitchOffPWM+0x44>
 8007278:	e9d2 401e 	ldrd	r4, r0, [r2, #120]	; 0x78
 800727c:	f8d2 1080 	ldr.w	r1, [r2, #128]	; 0x80
 8007280:	68d5      	ldr	r5, [r2, #12]
 8007282:	f3c4 240f 	ubfx	r4, r4, #8, #16
 8007286:	f3c0 200f 	ubfx	r0, r0, #8, #16
 800728a:	f3c1 210f 	ubfx	r1, r1, #8, #16
 800728e:	616c      	str	r4, [r5, #20]
 8007290:	e9d2 4204 	ldrd	r4, r2, [r2, #16]
 8007294:	6160      	str	r0, [r4, #20]
 8007296:	6151      	str	r1, [r2, #20]
 8007298:	f06f 0201 	mvn.w	r2, #1
 800729c:	611a      	str	r2, [r3, #16]
 800729e:	691a      	ldr	r2, [r3, #16]
 80072a0:	07d2      	lsls	r2, r2, #31
 80072a2:	d5fc      	bpl.n	800729e <R3_2_SwitchOffPWM+0x4a>
 80072a4:	bc30      	pop	{r4, r5}
 80072a6:	f06f 0201 	mvn.w	r2, #1
 80072aa:	611a      	str	r2, [r3, #16]
 80072ac:	4770      	bx	lr
 80072ae:	bf00      	nop

080072b0 <R3_2_CurrentReadingPolarization>:
 80072b0:	e92d 43f8 	stmdb	sp!, {r3, r4, r5, r6, r7, r8, r9, lr}
 80072b4:	2600      	movs	r6, #0
 80072b6:	2703      	movs	r7, #3
 80072b8:	4604      	mov	r4, r0
 80072ba:	6f43      	ldr	r3, [r0, #116]	; 0x74
 80072bc:	4937      	ldr	r1, [pc, #220]	; (800739c <R3_2_CurrentReadingPolarization+0xec>)
 80072be:	689d      	ldr	r5, [r3, #8]
 80072c0:	f880 6070 	strb.w	r6, [r0, #112]	; 0x70
 80072c4:	6a2b      	ldr	r3, [r5, #32]
 80072c6:	4a36      	ldr	r2, [pc, #216]	; (80073a0 <R3_2_CurrentReadingPolarization+0xf0>)
 80072c8:	f423 63aa 	bic.w	r3, r3, #1360	; 0x550
 80072cc:	f023 0305 	bic.w	r3, r3, #5
 80072d0:	e9c0 6617 	strd	r6, r6, [r0, #92]	; 0x5c
 80072d4:	6646      	str	r6, [r0, #100]	; 0x64
 80072d6:	622b      	str	r3, [r5, #32]
 80072d8:	6041      	str	r1, [r0, #4]
 80072da:	6182      	str	r2, [r0, #24]
 80072dc:	f880 7071 	strb.w	r7, [r0, #113]	; 0x71
 80072e0:	f880 703a 	strb.w	r7, [r0, #58]	; 0x3a
 80072e4:	f7ff ff6e 	bl	80071c4 <R3_2_SwitchOnPWM>
 80072e8:	6f63      	ldr	r3, [r4, #116]	; 0x74
 80072ea:	f104 0838 	add.w	r8, r4, #56	; 0x38
 80072ee:	f104 0970 	add.w	r9, r4, #112	; 0x70
 80072f2:	f893 2089 	ldrb.w	r2, [r3, #137]	; 0x89
 80072f6:	4641      	mov	r1, r8
 80072f8:	464b      	mov	r3, r9
 80072fa:	4628      	mov	r0, r5
 80072fc:	f7ff fc3e 	bl	8006b7c <waitForPolarizationEnd>
 8007300:	4620      	mov	r0, r4
 8007302:	f7ff ffa7 	bl	8007254 <R3_2_SwitchOffPWM>
 8007306:	4b27      	ldr	r3, [pc, #156]	; (80073a4 <R3_2_CurrentReadingPolarization+0xf4>)
 8007308:	4620      	mov	r0, r4
 800730a:	6063      	str	r3, [r4, #4]
 800730c:	f884 6070 	strb.w	r6, [r4, #112]	; 0x70
 8007310:	f884 6071 	strb.w	r6, [r4, #113]	; 0x71
 8007314:	f884 603a 	strb.w	r6, [r4, #58]	; 0x3a
 8007318:	f7ff ff54 	bl	80071c4 <R3_2_SwitchOnPWM>
 800731c:	6f62      	ldr	r2, [r4, #116]	; 0x74
 800731e:	464b      	mov	r3, r9
 8007320:	4641      	mov	r1, r8
 8007322:	f892 2089 	ldrb.w	r2, [r2, #137]	; 0x89
 8007326:	4628      	mov	r0, r5
 8007328:	f7ff fc28 	bl	8006b7c <waitForPolarizationEnd>
 800732c:	4620      	mov	r0, r4
 800732e:	f7ff ff91 	bl	8007254 <R3_2_SwitchOffPWM>
 8007332:	e9d4 1217 	ldrd	r1, r2, [r4, #92]	; 0x5c
 8007336:	6e63      	ldr	r3, [r4, #100]	; 0x64
 8007338:	40f9      	lsrs	r1, r7
 800733a:	40fa      	lsrs	r2, r7
 800733c:	e9c4 1217 	strd	r1, r2, [r4, #92]	; 0x5c
 8007340:	40fb      	lsrs	r3, r7
 8007342:	6663      	str	r3, [r4, #100]	; 0x64
 8007344:	69ab      	ldr	r3, [r5, #24]
 8007346:	4a18      	ldr	r2, [pc, #96]	; (80073a8 <R3_2_CurrentReadingPolarization+0xf8>)
 8007348:	4918      	ldr	r1, [pc, #96]	; (80073ac <R3_2_CurrentReadingPolarization+0xfc>)
 800734a:	f023 0308 	bic.w	r3, r3, #8
 800734e:	61a2      	str	r2, [r4, #24]
 8007350:	6061      	str	r1, [r4, #4]
 8007352:	61ab      	str	r3, [r5, #24]
 8007354:	69aa      	ldr	r2, [r5, #24]
 8007356:	f8b4 306c 	ldrh.w	r3, [r4, #108]	; 0x6c
 800735a:	f422 6200 	bic.w	r2, r2, #2048	; 0x800
 800735e:	61aa      	str	r2, [r5, #24]
 8007360:	69ea      	ldr	r2, [r5, #28]
 8007362:	f022 0208 	bic.w	r2, r2, #8
 8007366:	61ea      	str	r2, [r5, #28]
 8007368:	636b      	str	r3, [r5, #52]	; 0x34
 800736a:	63ab      	str	r3, [r5, #56]	; 0x38
 800736c:	63eb      	str	r3, [r5, #60]	; 0x3c
 800736e:	69ab      	ldr	r3, [r5, #24]
 8007370:	f043 0308 	orr.w	r3, r3, #8
 8007374:	61ab      	str	r3, [r5, #24]
 8007376:	69ab      	ldr	r3, [r5, #24]
 8007378:	f443 6300 	orr.w	r3, r3, #2048	; 0x800
 800737c:	61ab      	str	r3, [r5, #24]
 800737e:	69eb      	ldr	r3, [r5, #28]
 8007380:	f043 0308 	orr.w	r3, r3, #8
 8007384:	61eb      	str	r3, [r5, #28]
 8007386:	f884 703a 	strb.w	r7, [r4, #58]	; 0x3a
 800738a:	6a2b      	ldr	r3, [r5, #32]
 800738c:	f443 63aa 	orr.w	r3, r3, #1360	; 0x550
 8007390:	f043 0305 	orr.w	r3, r3, #5
 8007394:	622b      	str	r3, [r5, #32]
 8007396:	e8bd 83f8 	ldmia.w	sp!, {r3, r4, r5, r6, r7, r8, r9, pc}
 800739a:	bf00      	nop
 800739c:	08006fa5 	.word	0x08006fa5
 80073a0:	08007029 	.word	0x08007029
 80073a4:	08006fed 	.word	0x08006fed
 80073a8:	08007065 	.word	0x08007065
 80073ac:	08006e2d 	.word	0x08006e2d

080073b0 <R3_2_TIMx_UP_IRQHandler>:
 80073b0:	6f41      	ldr	r1, [r0, #116]	; 0x74
 80073b2:	b4f0      	push	{r4, r5, r6, r7}
 80073b4:	e9d1 2300 	ldrd	r2, r3, [r1]
 80073b8:	6894      	ldr	r4, [r2, #8]
 80073ba:	688d      	ldr	r5, [r1, #8]
 80073bc:	f424 4400 	bic.w	r4, r4, #32768	; 0x8000
 80073c0:	f8b0 706e 	ldrh.w	r7, [r0, #110]	; 0x6e
 80073c4:	6094      	str	r4, [r2, #8]
 80073c6:	689c      	ldr	r4, [r3, #8]
 80073c8:	6e86      	ldr	r6, [r0, #104]	; 0x68
 80073ca:	f424 4400 	bic.w	r4, r4, #32768	; 0x8000
 80073ce:	609c      	str	r4, [r3, #8]
 80073d0:	f890 403a 	ldrb.w	r4, [r0, #58]	; 0x3a
 80073d4:	f407 47e0 	and.w	r7, r7, #28672	; 0x7000
 80073d8:	eb01 0184 	add.w	r1, r1, r4, lsl #2
 80073dc:	6c8c      	ldr	r4, [r1, #72]	; 0x48
 80073de:	6e09      	ldr	r1, [r1, #96]	; 0x60
 80073e0:	6394      	str	r4, [r2, #56]	; 0x38
 80073e2:	6399      	str	r1, [r3, #56]	; 0x38
 80073e4:	6a29      	ldr	r1, [r5, #32]
 80073e6:	3046      	adds	r0, #70	; 0x46
 80073e8:	f441 5180 	orr.w	r1, r1, #4096	; 0x1000
 80073ec:	6229      	str	r1, [r5, #32]
 80073ee:	6894      	ldr	r4, [r2, #8]
 80073f0:	f424 44e0 	bic.w	r4, r4, #28672	; 0x7000
 80073f4:	433c      	orrs	r4, r7
 80073f6:	6094      	str	r4, [r2, #8]
 80073f8:	6899      	ldr	r1, [r3, #8]
 80073fa:	f421 41e0 	bic.w	r1, r1, #28672	; 0x7000
 80073fe:	4339      	orrs	r1, r7
 8007400:	6099      	str	r1, [r3, #8]
 8007402:	6891      	ldr	r1, [r2, #8]
 8007404:	f441 4100 	orr.w	r1, r1, #32768	; 0x8000
 8007408:	6091      	str	r1, [r2, #8]
 800740a:	689a      	ldr	r2, [r3, #8]
 800740c:	f442 4200 	orr.w	r2, r2, #32768	; 0x8000
 8007410:	609a      	str	r2, [r3, #8]
 8007412:	69eb      	ldr	r3, [r5, #28]
 8007414:	f423 43e6 	bic.w	r3, r3, #29440	; 0x7300
 8007418:	ea43 2306 	orr.w	r3, r3, r6, lsl #8
 800741c:	61eb      	str	r3, [r5, #28]
 800741e:	bcf0      	pop	{r4, r5, r6, r7}
 8007420:	4770      	bx	lr
 8007422:	bf00      	nop

08007424 <R3_2_BRK_IRQHandler>:
 8007424:	6f43      	ldr	r3, [r0, #116]	; 0x74
 8007426:	4602      	mov	r2, r0
 8007428:	f893 1088 	ldrb.w	r1, [r3, #136]	; 0x88
 800742c:	2902      	cmp	r1, #2
 800742e:	d004      	beq.n	800743a <R3_2_BRK_IRQHandler+0x16>
 8007430:	2301      	movs	r3, #1
 8007432:	3046      	adds	r0, #70	; 0x46
 8007434:	f882 3072 	strb.w	r3, [r2, #114]	; 0x72
 8007438:	4770      	bx	lr
 800743a:	f8d3 1080 	ldr.w	r1, [r3, #128]	; 0x80
 800743e:	b430      	push	{r4, r5}
 8007440:	e9d3 401e 	ldrd	r4, r0, [r3, #120]	; 0x78
 8007444:	68dd      	ldr	r5, [r3, #12]
 8007446:	f3c4 240f 	ubfx	r4, r4, #8, #16
 800744a:	f3c0 200f 	ubfx	r0, r0, #8, #16
 800744e:	f3c1 210f 	ubfx	r1, r1, #8, #16
 8007452:	616c      	str	r4, [r5, #20]
 8007454:	e9d3 4304 	ldrd	r4, r3, [r3, #16]
 8007458:	6160      	str	r0, [r4, #20]
 800745a:	6159      	str	r1, [r3, #20]
 800745c:	2301      	movs	r3, #1
 800745e:	bc30      	pop	{r4, r5}
 8007460:	f102 0046 	add.w	r0, r2, #70	; 0x46
 8007464:	f882 3072 	strb.w	r3, [r2, #114]	; 0x72
 8007468:	4770      	bx	lr
 800746a:	bf00      	nop

0800746c <R3_2_IsOverCurrentOccurred>:
 800746c:	f890 3072 	ldrb.w	r3, [r0, #114]	; 0x72
 8007470:	b90b      	cbnz	r3, 8007476 <R3_2_IsOverCurrentOccurred+0xa>
 8007472:	4618      	mov	r0, r3
 8007474:	4770      	bx	lr
 8007476:	2200      	movs	r2, #0
 8007478:	2340      	movs	r3, #64	; 0x40
 800747a:	f880 2072 	strb.w	r2, [r0, #114]	; 0x72
 800747e:	4618      	mov	r0, r3
 8007480:	4770      	bx	lr
 8007482:	bf00      	nop

08007484 <RVBS_Clear>:
 8007484:	8b42      	ldrh	r2, [r0, #26]
 8007486:	8b81      	ldrh	r1, [r0, #28]
 8007488:	8b03      	ldrh	r3, [r0, #24]
 800748a:	440a      	add	r2, r1
 800748c:	0852      	lsrs	r2, r2, #1
 800748e:	b183      	cbz	r3, 80074b2 <RVBS_Clear+0x2e>
 8007490:	2300      	movs	r3, #0
 8007492:	b410      	push	{r4}
 8007494:	6a04      	ldr	r4, [r0, #32]
 8007496:	f824 2013 	strh.w	r2, [r4, r3, lsl #1]
 800749a:	8b01      	ldrh	r1, [r0, #24]
 800749c:	3301      	adds	r3, #1
 800749e:	b29b      	uxth	r3, r3
 80074a0:	4299      	cmp	r1, r3
 80074a2:	d8f8      	bhi.n	8007496 <RVBS_Clear+0x12>
 80074a4:	2300      	movs	r3, #0
 80074a6:	8082      	strh	r2, [r0, #4]
 80074a8:	80c2      	strh	r2, [r0, #6]
 80074aa:	f880 3025 	strb.w	r3, [r0, #37]	; 0x25
 80074ae:	bc10      	pop	{r4}
 80074b0:	4770      	bx	lr
 80074b2:	2300      	movs	r3, #0
 80074b4:	8082      	strh	r2, [r0, #4]
 80074b6:	80c2      	strh	r2, [r0, #6]
 80074b8:	f880 3025 	strb.w	r3, [r0, #37]	; 0x25
 80074bc:	4770      	bx	lr
 80074be:	bf00      	nop

080074c0 <RVBS_Init>:
 80074c0:	b510      	push	{r4, lr}
 80074c2:	4604      	mov	r4, r0
 80074c4:	300c      	adds	r0, #12
 80074c6:	f7fa f9cf 	bl	8001868 <RCM_RegisterRegConv>
 80074ca:	f884 0026 	strb.w	r0, [r4, #38]	; 0x26
 80074ce:	4620      	mov	r0, r4
 80074d0:	f7ff ffd8 	bl	8007484 <RVBS_Clear>
 80074d4:	bd10      	pop	{r4, pc}
 80074d6:	bf00      	nop

080074d8 <RVBS_CheckFaultState>:
 80074d8:	88c3      	ldrh	r3, [r0, #6]
 80074da:	8b42      	ldrh	r2, [r0, #26]
 80074dc:	429a      	cmp	r2, r3
 80074de:	d305      	bcc.n	80074ec <RVBS_CheckFaultState+0x14>
 80074e0:	8b80      	ldrh	r0, [r0, #28]
 80074e2:	4298      	cmp	r0, r3
 80074e4:	bf8c      	ite	hi
 80074e6:	2004      	movhi	r0, #4
 80074e8:	2000      	movls	r0, #0
 80074ea:	4770      	bx	lr
 80074ec:	2002      	movs	r0, #2
 80074ee:	4770      	bx	lr

080074f0 <RVBS_CalcAvVbus>:
 80074f0:	b570      	push	{r4, r5, r6, lr}
 80074f2:	4604      	mov	r4, r0
 80074f4:	f890 0026 	ldrb.w	r0, [r0, #38]	; 0x26
 80074f8:	f7fa fa76 	bl	80019e8 <RCM_ExecRegularConv>
 80074fc:	f64f 73ff 	movw	r3, #65535	; 0xffff
 8007500:	4298      	cmp	r0, r3
 8007502:	d01b      	beq.n	800753c <RVBS_CalcAvVbus+0x4c>
 8007504:	6a26      	ldr	r6, [r4, #32]
 8007506:	f894 3025 	ldrb.w	r3, [r4, #37]	; 0x25
 800750a:	f826 0013 	strh.w	r0, [r6, r3, lsl #1]
 800750e:	8b25      	ldrh	r5, [r4, #24]
 8007510:	b1cd      	cbz	r5, 8007546 <RVBS_CalcAvVbus+0x56>
 8007512:	2300      	movs	r3, #0
 8007514:	461a      	mov	r2, r3
 8007516:	f836 1013 	ldrh.w	r1, [r6, r3, lsl #1]
 800751a:	3301      	adds	r3, #1
 800751c:	b2db      	uxtb	r3, r3
 800751e:	42ab      	cmp	r3, r5
 8007520:	440a      	add	r2, r1
 8007522:	d3f8      	bcc.n	8007516 <RVBS_CalcAvVbus+0x26>
 8007524:	fbb2 f2f5 	udiv	r2, r2, r5
 8007528:	f894 3025 	ldrb.w	r3, [r4, #37]	; 0x25
 800752c:	3d01      	subs	r5, #1
 800752e:	42ab      	cmp	r3, r5
 8007530:	80e2      	strh	r2, [r4, #6]
 8007532:	80a0      	strh	r0, [r4, #4]
 8007534:	da09      	bge.n	800754a <RVBS_CalcAvVbus+0x5a>
 8007536:	3301      	adds	r3, #1
 8007538:	f884 3025 	strb.w	r3, [r4, #37]	; 0x25
 800753c:	4620      	mov	r0, r4
 800753e:	f7ff ffcb 	bl	80074d8 <RVBS_CheckFaultState>
 8007542:	8120      	strh	r0, [r4, #8]
 8007544:	bd70      	pop	{r4, r5, r6, pc}
 8007546:	80e5      	strh	r5, [r4, #6]
 8007548:	80a0      	strh	r0, [r4, #4]
 800754a:	2300      	movs	r3, #0
 800754c:	4620      	mov	r0, r4
 800754e:	f884 3025 	strb.w	r3, [r4, #37]	; 0x25
 8007552:	f7ff ffc1 	bl	80074d8 <RVBS_CheckFaultState>
 8007556:	8120      	strh	r0, [r4, #8]
 8007558:	bd70      	pop	{r4, r5, r6, pc}
 800755a:	bf00      	nop

0800755c <REMNG_Init>:
 800755c:	2300      	movs	r3, #0
 800755e:	2201      	movs	r2, #1
 8007560:	e9c0 3301 	strd	r3, r3, [r0, #4]
 8007564:	6142      	str	r2, [r0, #20]
 8007566:	e9c0 3303 	strd	r3, r3, [r0, #12]
 800756a:	4770      	bx	lr

0800756c <SPD_GetElAngle>:
 800756c:	f9b0 0004 	ldrsh.w	r0, [r0, #4]
 8007570:	4770      	bx	lr
 8007572:	bf00      	nop

08007574 <SPD_GetAvrgMecSpeedUnit>:
 8007574:	f9b0 000c 	ldrsh.w	r0, [r0, #12]
 8007578:	4770      	bx	lr
 800757a:	bf00      	nop

0800757c <SPD_GetInstElSpeedDpp>:
 800757c:	f9b0 0010 	ldrsh.w	r0, [r0, #16]
 8007580:	4770      	bx	lr
 8007582:	bf00      	nop

08007584 <SPD_IsMecSpeedReliable>:
 8007584:	f9b1 1000 	ldrsh.w	r1, [r1]
 8007588:	b430      	push	{r4, r5}
 800758a:	b28a      	uxth	r2, r1
 800758c:	2900      	cmp	r1, #0
 800758e:	bfb8      	it	lt
 8007590:	4252      	neglt	r2, r2
 8007592:	8ac5      	ldrh	r5, [r0, #22]
 8007594:	bfb8      	it	lt
 8007596:	b292      	uxthlt	r2, r2
 8007598:	4295      	cmp	r5, r2
 800759a:	78c4      	ldrb	r4, [r0, #3]
 800759c:	7803      	ldrb	r3, [r0, #0]
 800759e:	8a81      	ldrh	r1, [r0, #20]
 80075a0:	d819      	bhi.n	80075d6 <SPD_IsMecSpeedReliable+0x52>
 80075a2:	4291      	cmp	r1, r2
 80075a4:	bf2c      	ite	cs
 80075a6:	2200      	movcs	r2, #0
 80075a8:	2201      	movcc	r2, #1
 80075aa:	f9b0 5012 	ldrsh.w	r5, [r0, #18]
 80075ae:	b2a9      	uxth	r1, r5
 80075b0:	2d00      	cmp	r5, #0
 80075b2:	bfb8      	it	lt
 80075b4:	4249      	neglt	r1, r1
 80075b6:	8b05      	ldrh	r5, [r0, #24]
 80075b8:	bfb8      	it	lt
 80075ba:	b289      	uxthlt	r1, r1
 80075bc:	428d      	cmp	r5, r1
 80075be:	d300      	bcc.n	80075c2 <SPD_IsMecSpeedReliable+0x3e>
 80075c0:	b15a      	cbz	r2, 80075da <SPD_IsMecSpeedReliable+0x56>
 80075c2:	429c      	cmp	r4, r3
 80075c4:	d901      	bls.n	80075ca <SPD_IsMecSpeedReliable+0x46>
 80075c6:	3301      	adds	r3, #1
 80075c8:	b2db      	uxtb	r3, r3
 80075ca:	7003      	strb	r3, [r0, #0]
 80075cc:	1b18      	subs	r0, r3, r4
 80075ce:	bf18      	it	ne
 80075d0:	2001      	movne	r0, #1
 80075d2:	bc30      	pop	{r4, r5}
 80075d4:	4770      	bx	lr
 80075d6:	2201      	movs	r2, #1
 80075d8:	e7e7      	b.n	80075aa <SPD_IsMecSpeedReliable+0x26>
 80075da:	429c      	cmp	r4, r3
 80075dc:	bf88      	it	hi
 80075de:	2300      	movhi	r3, #0
 80075e0:	e7f3      	b.n	80075ca <SPD_IsMecSpeedReliable+0x46>
 80075e2:	bf00      	nop

080075e4 <SPD_GetS16Speed>:
 80075e4:	f9b0 300c 	ldrsh.w	r3, [r0, #12]
 80075e8:	f9b0 0014 	ldrsh.w	r0, [r0, #20]
 80075ec:	ebc3 33c3 	rsb	r3, r3, r3, lsl #15
 80075f0:	fb93 f0f0 	sdiv	r0, r3, r0
 80075f4:	b200      	sxth	r0, r0
 80075f6:	4770      	bx	lr

080075f8 <STC_Init>:
 80075f8:	2300      	movs	r3, #0
 80075fa:	b430      	push	{r4, r5}
 80075fc:	f9b0 502c 	ldrsh.w	r5, [r0, #44]	; 0x2c
 8007600:	f9b0 402e 	ldrsh.w	r4, [r0, #46]	; 0x2e
 8007604:	6101      	str	r1, [r0, #16]
 8007606:	f890 102a 	ldrb.w	r1, [r0, #42]	; 0x2a
 800760a:	042d      	lsls	r5, r5, #16
 800760c:	0424      	lsls	r4, r4, #16
 800760e:	e9c0 5401 	strd	r5, r4, [r0, #4]
 8007612:	bc30      	pop	{r4, r5}
 8007614:	6142      	str	r2, [r0, #20]
 8007616:	7001      	strb	r1, [r0, #0]
 8007618:	8043      	strh	r3, [r0, #2]
 800761a:	60c3      	str	r3, [r0, #12]
 800761c:	6183      	str	r3, [r0, #24]
 800761e:	4770      	bx	lr

08007620 <STC_GetSpeedSensor>:
 8007620:	6940      	ldr	r0, [r0, #20]
 8007622:	4770      	bx	lr

08007624 <STC_Clear>:
 8007624:	7803      	ldrb	r3, [r0, #0]
 8007626:	2b01      	cmp	r3, #1
 8007628:	d000      	beq.n	800762c <STC_Clear+0x8>
 800762a:	4770      	bx	lr
 800762c:	6900      	ldr	r0, [r0, #16]
 800762e:	2100      	movs	r1, #0
 8007630:	f7ff b9ea 	b.w	8006a08 <PID_SetIntegralTerm>

08007634 <STC_GetMecSpeedRefUnit>:
 8007634:	6840      	ldr	r0, [r0, #4]
 8007636:	2800      	cmp	r0, #0
 8007638:	bfbc      	itt	lt
 800763a:	f500 407f 	addlt.w	r0, r0, #65280	; 0xff00
 800763e:	30ff      	addlt	r0, #255	; 0xff
 8007640:	1400      	asrs	r0, r0, #16
 8007642:	4770      	bx	lr

08007644 <STC_GetTorqueRef>:
 8007644:	6880      	ldr	r0, [r0, #8]
 8007646:	2800      	cmp	r0, #0
 8007648:	bfbc      	itt	lt
 800764a:	f500 407f 	addlt.w	r0, r0, #65280	; 0xff00
 800764e:	30ff      	addlt	r0, #255	; 0xff
 8007650:	1400      	asrs	r0, r0, #16
 8007652:	4770      	bx	lr

08007654 <STC_SetControlMode>:
 8007654:	2300      	movs	r3, #0
 8007656:	7001      	strb	r1, [r0, #0]
 8007658:	60c3      	str	r3, [r0, #12]
 800765a:	4770      	bx	lr

0800765c <STC_ExecRamp>:
 800765c:	7803      	ldrb	r3, [r0, #0]
 800765e:	b570      	push	{r4, r5, r6, lr}
 8007660:	4604      	mov	r4, r0
 8007662:	460d      	mov	r5, r1
 8007664:	4616      	mov	r6, r2
 8007666:	b313      	cbz	r3, 80076ae <STC_ExecRamp+0x52>
 8007668:	6840      	ldr	r0, [r0, #4]
 800766a:	8be3      	ldrh	r3, [r4, #30]
 800766c:	2800      	cmp	r0, #0
 800766e:	bfbc      	itt	lt
 8007670:	f500 407f 	addlt.w	r0, r0, #65280	; 0xff00
 8007674:	30ff      	addlt	r0, #255	; 0xff
 8007676:	428b      	cmp	r3, r1
 8007678:	ea4f 4020 	mov.w	r0, r0, asr #16
 800767c:	db1c      	blt.n	80076b8 <STC_ExecRamp+0x5c>
 800767e:	f9b4 3024 	ldrsh.w	r3, [r4, #36]	; 0x24
 8007682:	428b      	cmp	r3, r1
 8007684:	dc18      	bgt.n	80076b8 <STC_ExecRamp+0x5c>
 8007686:	8c23      	ldrh	r3, [r4, #32]
 8007688:	428b      	cmp	r3, r1
 800768a:	dd03      	ble.n	8007694 <STC_ExecRamp+0x38>
 800768c:	f9b4 3022 	ldrsh.w	r3, [r4, #34]	; 0x22
 8007690:	428b      	cmp	r3, r1
 8007692:	db11      	blt.n	80076b8 <STC_ExecRamp+0x5c>
 8007694:	b9c6      	cbnz	r6, 80076c8 <STC_ExecRamp+0x6c>
 8007696:	7823      	ldrb	r3, [r4, #0]
 8007698:	042d      	lsls	r5, r5, #16
 800769a:	2b01      	cmp	r3, #1
 800769c:	f04f 0300 	mov.w	r3, #0
 80076a0:	bf0c      	ite	eq
 80076a2:	6065      	streq	r5, [r4, #4]
 80076a4:	60a5      	strne	r5, [r4, #8]
 80076a6:	2001      	movs	r0, #1
 80076a8:	60e3      	str	r3, [r4, #12]
 80076aa:	61a3      	str	r3, [r4, #24]
 80076ac:	bd70      	pop	{r4, r5, r6, pc}
 80076ae:	f7ff ffc9 	bl	8007644 <STC_GetTorqueRef>
 80076b2:	8ce3      	ldrh	r3, [r4, #38]	; 0x26
 80076b4:	42ab      	cmp	r3, r5
 80076b6:	da01      	bge.n	80076bc <STC_ExecRamp+0x60>
 80076b8:	2000      	movs	r0, #0
 80076ba:	bd70      	pop	{r4, r5, r6, pc}
 80076bc:	f9b4 3028 	ldrsh.w	r3, [r4, #40]	; 0x28
 80076c0:	42ab      	cmp	r3, r5
 80076c2:	dcf9      	bgt.n	80076b8 <STC_ExecRamp+0x5c>
 80076c4:	2e00      	cmp	r6, #0
 80076c6:	d0e6      	beq.n	8007696 <STC_ExecRamp+0x3a>
 80076c8:	8ba2      	ldrh	r2, [r4, #28]
 80076ca:	1a28      	subs	r0, r5, r0
 80076cc:	fb06 f202 	mul.w	r2, r6, r2
 80076d0:	4e06      	ldr	r6, [pc, #24]	; (80076ec <STC_ExecRamp+0x90>)
 80076d2:	0403      	lsls	r3, r0, #16
 80076d4:	fba6 1202 	umull	r1, r2, r6, r2
 80076d8:	0992      	lsrs	r2, r2, #6
 80076da:	3201      	adds	r2, #1
 80076dc:	fb93 f3f2 	sdiv	r3, r3, r2
 80076e0:	2001      	movs	r0, #1
 80076e2:	8065      	strh	r5, [r4, #2]
 80076e4:	61a3      	str	r3, [r4, #24]
 80076e6:	60e2      	str	r2, [r4, #12]
 80076e8:	bd70      	pop	{r4, r5, r6, pc}
 80076ea:	bf00      	nop
 80076ec:	10624dd3 	.word	0x10624dd3

080076f0 <STC_StopRamp>:
 80076f0:	2300      	movs	r3, #0
 80076f2:	60c3      	str	r3, [r0, #12]
 80076f4:	6183      	str	r3, [r0, #24]
 80076f6:	4770      	bx	lr

080076f8 <STC_CalcTorqueReference>:
 80076f8:	7802      	ldrb	r2, [r0, #0]
 80076fa:	68c3      	ldr	r3, [r0, #12]
 80076fc:	b570      	push	{r4, r5, r6, lr}
 80076fe:	e9d0 1501 	ldrd	r1, r5, [r0, #4]
 8007702:	2a00      	cmp	r2, #0
 8007704:	bf18      	it	ne
 8007706:	460d      	movne	r5, r1
 8007708:	2b01      	cmp	r3, #1
 800770a:	d910      	bls.n	800772e <STC_CalcTorqueReference+0x36>
 800770c:	6981      	ldr	r1, [r0, #24]
 800770e:	3b01      	subs	r3, #1
 8007710:	60c3      	str	r3, [r0, #12]
 8007712:	440d      	add	r5, r1
 8007714:	4629      	mov	r1, r5
 8007716:	2d00      	cmp	r5, #0
 8007718:	bfbc      	itt	lt
 800771a:	f505 417f 	addlt.w	r1, r5, #65280	; 0xff00
 800771e:	31ff      	addlt	r1, #255	; 0xff
 8007720:	2a01      	cmp	r2, #1
 8007722:	ea4f 4621 	mov.w	r6, r1, asr #16
 8007726:	d009      	beq.n	800773c <STC_CalcTorqueReference+0x44>
 8007728:	6085      	str	r5, [r0, #8]
 800772a:	b230      	sxth	r0, r6
 800772c:	bd70      	pop	{r4, r5, r6, pc}
 800772e:	d1f1      	bne.n	8007714 <STC_CalcTorqueReference+0x1c>
 8007730:	2300      	movs	r3, #0
 8007732:	f9b0 5002 	ldrsh.w	r5, [r0, #2]
 8007736:	60c3      	str	r3, [r0, #12]
 8007738:	042d      	lsls	r5, r5, #16
 800773a:	e7eb      	b.n	8007714 <STC_CalcTorqueReference+0x1c>
 800773c:	4604      	mov	r4, r0
 800773e:	6940      	ldr	r0, [r0, #20]
 8007740:	f7ff ff18 	bl	8007574 <SPD_GetAvrgMecSpeedUnit>
 8007744:	1a30      	subs	r0, r6, r0
 8007746:	b201      	sxth	r1, r0
 8007748:	6920      	ldr	r0, [r4, #16]
 800774a:	f7ff f969 	bl	8006a20 <PI_Controller>
 800774e:	0403      	lsls	r3, r0, #16
 8007750:	e9c4 5301 	strd	r5, r3, [r4, #4]
 8007754:	bd70      	pop	{r4, r5, r6, pc}
 8007756:	bf00      	nop

08007758 <STC_GetMecSpeedRefUnitDefault>:
 8007758:	f9b0 002c 	ldrsh.w	r0, [r0, #44]	; 0x2c
 800775c:	4770      	bx	lr
 800775e:	bf00      	nop

08007760 <STC_GetMaxAppPositiveMecSpeedUnit>:
 8007760:	8bc0      	ldrh	r0, [r0, #30]
 8007762:	4770      	bx	lr

08007764 <STC_GetMinAppNegativeMecSpeedUnit>:
 8007764:	f9b0 0024 	ldrsh.w	r0, [r0, #36]	; 0x24
 8007768:	4770      	bx	lr
 800776a:	bf00      	nop

0800776c <STC_GetDefaultIqdref>:
 800776c:	2200      	movs	r2, #0
 800776e:	f8d0 302e 	ldr.w	r3, [r0, #46]	; 0x2e
 8007772:	b082      	sub	sp, #8
 8007774:	b299      	uxth	r1, r3
 8007776:	f361 020f 	bfi	r2, r1, #0, #16
 800777a:	0c1b      	lsrs	r3, r3, #16
 800777c:	f363 421f 	bfi	r2, r3, #16, #16
 8007780:	4610      	mov	r0, r2
 8007782:	b002      	add	sp, #8
 8007784:	4770      	bx	lr
 8007786:	bf00      	nop

08007788 <STC_ForceSpeedReferenceToCurrentSpeed>:
 8007788:	b510      	push	{r4, lr}
 800778a:	4604      	mov	r4, r0
 800778c:	6940      	ldr	r0, [r0, #20]
 800778e:	f7ff fef1 	bl	8007574 <SPD_GetAvrgMecSpeedUnit>
 8007792:	0400      	lsls	r0, r0, #16
 8007794:	6060      	str	r0, [r4, #4]
 8007796:	bd10      	pop	{r4, pc}

08007798 <STM_Init>:
 8007798:	2300      	movs	r3, #0
 800779a:	7003      	strb	r3, [r0, #0]
 800779c:	f8c0 3002 	str.w	r3, [r0, #2]
 80077a0:	4770      	bx	lr
 80077a2:	bf00      	nop

080077a4 <STM_FaultProcessing>:
 80077a4:	b430      	push	{r4, r5}
 80077a6:	4604      	mov	r4, r0
 80077a8:	8843      	ldrh	r3, [r0, #2]
 80077aa:	8885      	ldrh	r5, [r0, #4]
 80077ac:	7800      	ldrb	r0, [r0, #0]
 80077ae:	430b      	orrs	r3, r1
 80077b0:	ea23 0202 	bic.w	r2, r3, r2
 80077b4:	4329      	orrs	r1, r5
 80077b6:	280a      	cmp	r0, #10
 80077b8:	80a1      	strh	r1, [r4, #4]
 80077ba:	8062      	strh	r2, [r4, #2]
 80077bc:	d007      	beq.n	80077ce <STM_FaultProcessing+0x2a>
 80077be:	b90a      	cbnz	r2, 80077c4 <STM_FaultProcessing+0x20>
 80077c0:	bc30      	pop	{r4, r5}
 80077c2:	4770      	bx	lr
 80077c4:	230a      	movs	r3, #10
 80077c6:	4618      	mov	r0, r3
 80077c8:	7023      	strb	r3, [r4, #0]
 80077ca:	bc30      	pop	{r4, r5}
 80077cc:	4770      	bx	lr
 80077ce:	2a00      	cmp	r2, #0
 80077d0:	d1f6      	bne.n	80077c0 <STM_FaultProcessing+0x1c>
 80077d2:	200b      	movs	r0, #11
 80077d4:	7020      	strb	r0, [r4, #0]
 80077d6:	bc30      	pop	{r4, r5}
 80077d8:	4770      	bx	lr
 80077da:	bf00      	nop

080077dc <STM_NextState>:
 80077dc:	b508      	push	{r3, lr}
 80077de:	7803      	ldrb	r3, [r0, #0]
 80077e0:	2b14      	cmp	r3, #20
 80077e2:	d819      	bhi.n	8007818 <STM_NextState+0x3c>
 80077e4:	e8df f003 	tbb	[pc, r3]
 80077e8:	240d1257 	.word	0x240d1257
 80077ec:	3c0d352e 	.word	0x3c0d352e
 80077f0:	1818423f 	.word	0x1818423f
 80077f4:	4a650b47 	.word	0x4a650b47
 80077f8:	53505e4d 	.word	0x53505e4d
 80077fc:	39          	.byte	0x39
 80077fd:	00          	.byte	0x00
 80077fe:	290e      	cmp	r1, #14
 8007800:	d001      	beq.n	8007806 <STM_NextState+0x2a>
 8007802:	2907      	cmp	r1, #7
 8007804:	d108      	bne.n	8007818 <STM_NextState+0x3c>
 8007806:	7001      	strb	r1, [r0, #0]
 8007808:	2001      	movs	r0, #1
 800780a:	bd08      	pop	{r3, pc}
 800780c:	2907      	cmp	r1, #7
 800780e:	d0fa      	beq.n	8007806 <STM_NextState+0x2a>
 8007810:	f1a1 030d 	sub.w	r3, r1, #13
 8007814:	2b01      	cmp	r3, #1
 8007816:	d9f6      	bls.n	8007806 <STM_NextState+0x2a>
 8007818:	f001 03fd 	and.w	r3, r1, #253	; 0xfd
 800781c:	2b01      	cmp	r3, #1
 800781e:	d00f      	beq.n	8007840 <STM_NextState+0x64>
 8007820:	2907      	cmp	r1, #7
 8007822:	d00d      	beq.n	8007840 <STM_NextState+0x64>
 8007824:	2200      	movs	r2, #0
 8007826:	2180      	movs	r1, #128	; 0x80
 8007828:	f7ff ffbc 	bl	80077a4 <STM_FaultProcessing>
 800782c:	2000      	movs	r0, #0
 800782e:	bd08      	pop	{r3, pc}
 8007830:	2911      	cmp	r1, #17
 8007832:	d8f7      	bhi.n	8007824 <STM_NextState+0x48>
 8007834:	4b21      	ldr	r3, [pc, #132]	; (80078bc <STM_NextState+0xe0>)
 8007836:	40cb      	lsrs	r3, r1
 8007838:	07da      	lsls	r2, r3, #31
 800783a:	d4e4      	bmi.n	8007806 <STM_NextState+0x2a>
 800783c:	2903      	cmp	r1, #3
 800783e:	d1f1      	bne.n	8007824 <STM_NextState+0x48>
 8007840:	2000      	movs	r0, #0
 8007842:	bd08      	pop	{r3, pc}
 8007844:	2913      	cmp	r1, #19
 8007846:	d0de      	beq.n	8007806 <STM_NextState+0x2a>
 8007848:	f001 03fd 	and.w	r3, r1, #253	; 0xfd
 800784c:	2b05      	cmp	r3, #5
 800784e:	d1e5      	bne.n	800781c <STM_NextState+0x40>
 8007850:	e7d9      	b.n	8007806 <STM_NextState+0x2a>
 8007852:	1f8b      	subs	r3, r1, #6
 8007854:	2b01      	cmp	r3, #1
 8007856:	d8df      	bhi.n	8007818 <STM_NextState+0x3c>
 8007858:	e7d5      	b.n	8007806 <STM_NextState+0x2a>
 800785a:	2912      	cmp	r1, #18
 800785c:	d1d1      	bne.n	8007802 <STM_NextState+0x26>
 800785e:	e7d2      	b.n	8007806 <STM_NextState+0x2a>
 8007860:	2908      	cmp	r1, #8
 8007862:	d1d9      	bne.n	8007818 <STM_NextState+0x3c>
 8007864:	e7cf      	b.n	8007806 <STM_NextState+0x2a>
 8007866:	2909      	cmp	r1, #9
 8007868:	d1d6      	bne.n	8007818 <STM_NextState+0x3c>
 800786a:	e7cc      	b.n	8007806 <STM_NextState+0x2a>
 800786c:	2900      	cmp	r1, #0
 800786e:	d0ca      	beq.n	8007806 <STM_NextState+0x2a>
 8007870:	290c      	cmp	r1, #12
 8007872:	d1d1      	bne.n	8007818 <STM_NextState+0x3c>
 8007874:	e7c7      	b.n	8007806 <STM_NextState+0x2a>
 8007876:	2900      	cmp	r1, #0
 8007878:	d1ce      	bne.n	8007818 <STM_NextState+0x3c>
 800787a:	e7c4      	b.n	8007806 <STM_NextState+0x2a>
 800787c:	2902      	cmp	r1, #2
 800787e:	d1c0      	bne.n	8007802 <STM_NextState+0x26>
 8007880:	e7c1      	b.n	8007806 <STM_NextState+0x2a>
 8007882:	2911      	cmp	r1, #17
 8007884:	d1bd      	bne.n	8007802 <STM_NextState+0x26>
 8007886:	e7be      	b.n	8007806 <STM_NextState+0x2a>
 8007888:	2904      	cmp	r1, #4
 800788a:	d1ba      	bne.n	8007802 <STM_NextState+0x26>
 800788c:	e7bb      	b.n	8007806 <STM_NextState+0x2a>
 800788e:	1f0b      	subs	r3, r1, #4
 8007890:	2b01      	cmp	r3, #1
 8007892:	d8b6      	bhi.n	8007802 <STM_NextState+0x26>
 8007894:	e7b7      	b.n	8007806 <STM_NextState+0x2a>
 8007896:	f001 03fd 	and.w	r3, r1, #253	; 0xfd
 800789a:	2b01      	cmp	r3, #1
 800789c:	d0b3      	beq.n	8007806 <STM_NextState+0x2a>
 800789e:	290c      	cmp	r1, #12
 80078a0:	d1be      	bne.n	8007820 <STM_NextState+0x44>
 80078a2:	e7b0      	b.n	8007806 <STM_NextState+0x2a>
 80078a4:	2914      	cmp	r1, #20
 80078a6:	d8b7      	bhi.n	8007818 <STM_NextState+0x3c>
 80078a8:	4b05      	ldr	r3, [pc, #20]	; (80078c0 <STM_NextState+0xe4>)
 80078aa:	40cb      	lsrs	r3, r1
 80078ac:	07db      	lsls	r3, r3, #31
 80078ae:	d4aa      	bmi.n	8007806 <STM_NextState+0x2a>
 80078b0:	e7b2      	b.n	8007818 <STM_NextState+0x3c>
 80078b2:	f001 03f7 	and.w	r3, r1, #247	; 0xf7
 80078b6:	2b07      	cmp	r3, #7
 80078b8:	d1ae      	bne.n	8007818 <STM_NextState+0x3c>
 80078ba:	e7a4      	b.n	8007806 <STM_NextState+0x2a>
 80078bc:	00030092 	.word	0x00030092
 80078c0:	00140080 	.word	0x00140080

080078c4 <STM_GetState>:
 80078c4:	7800      	ldrb	r0, [r0, #0]
 80078c6:	4770      	bx	lr

080078c8 <STM_FaultAcknowledged>:
 80078c8:	7803      	ldrb	r3, [r0, #0]
 80078ca:	2b0b      	cmp	r3, #11
 80078cc:	d001      	beq.n	80078d2 <STM_FaultAcknowledged+0xa>
 80078ce:	2000      	movs	r0, #0
 80078d0:	4770      	bx	lr
 80078d2:	2209      	movs	r2, #9
 80078d4:	2300      	movs	r3, #0
 80078d6:	7002      	strb	r2, [r0, #0]
 80078d8:	8083      	strh	r3, [r0, #4]
 80078da:	2001      	movs	r0, #1
 80078dc:	4770      	bx	lr
 80078de:	bf00      	nop

080078e0 <STM_GetFaultState>:
 80078e0:	8883      	ldrh	r3, [r0, #4]
 80078e2:	8840      	ldrh	r0, [r0, #2]
 80078e4:	ea43 4000 	orr.w	r0, r3, r0, lsl #16
 80078e8:	4770      	bx	lr
 80078ea:	bf00      	nop

080078ec <UFCP_Init>:
 80078ec:	f7fe bbc2 	b.w	8006074 <FCP_Init>

080078f0 <UFCP_TX_IRQ_Handler>:
 80078f0:	f890 2097 	ldrb.w	r2, [r0, #151]	; 0x97
 80078f4:	b192      	cbz	r2, 800791c <UFCP_TX_IRQ_Handler+0x2c>
 80078f6:	f890 1098 	ldrb.w	r1, [r0, #152]	; 0x98
 80078fa:	4603      	mov	r3, r0
 80078fc:	f8d0 2120 	ldr.w	r2, [r0, #288]	; 0x120
 8007900:	b199      	cbz	r1, 800792a <UFCP_TX_IRQ_Handler+0x3a>
 8007902:	2901      	cmp	r1, #1
 8007904:	d00b      	beq.n	800791e <UFCP_TX_IRQ_Handler+0x2e>
 8007906:	7d40      	ldrb	r0, [r0, #21]
 8007908:	3001      	adds	r0, #1
 800790a:	4281      	cmp	r1, r0
 800790c:	dc0f      	bgt.n	800792e <UFCP_TX_IRQ_Handler+0x3e>
 800790e:	1858      	adds	r0, r3, r1
 8007910:	7d00      	ldrb	r0, [r0, #20]
 8007912:	3101      	adds	r1, #1
 8007914:	6050      	str	r0, [r2, #4]
 8007916:	f883 1098 	strb.w	r1, [r3, #152]	; 0x98
 800791a:	4770      	bx	lr
 800791c:	4770      	bx	lr
 800791e:	7d40      	ldrb	r0, [r0, #21]
 8007920:	3101      	adds	r1, #1
 8007922:	6050      	str	r0, [r2, #4]
 8007924:	f883 1098 	strb.w	r1, [r3, #152]	; 0x98
 8007928:	4770      	bx	lr
 800792a:	7d00      	ldrb	r0, [r0, #20]
 800792c:	e7f8      	b.n	8007920 <UFCP_TX_IRQ_Handler+0x30>
 800792e:	b430      	push	{r4, r5}
 8007930:	2500      	movs	r5, #0
 8007932:	f893 1096 	ldrb.w	r1, [r3, #150]	; 0x96
 8007936:	685c      	ldr	r4, [r3, #4]
 8007938:	6051      	str	r1, [r2, #4]
 800793a:	68d1      	ldr	r1, [r2, #12]
 800793c:	6818      	ldr	r0, [r3, #0]
 800793e:	f021 0180 	bic.w	r1, r1, #128	; 0x80
 8007942:	60d1      	str	r1, [r2, #12]
 8007944:	f883 5097 	strb.w	r5, [r3, #151]	; 0x97
 8007948:	4623      	mov	r3, r4
 800794a:	bc30      	pop	{r4, r5}
 800794c:	4718      	bx	r3
 800794e:	bf00      	nop

08007950 <UFCP_Receive>:
 8007950:	f890 311c 	ldrb.w	r3, [r0, #284]	; 0x11c
 8007954:	b10b      	cbz	r3, 800795a <UFCP_Receive+0xa>
 8007956:	2001      	movs	r0, #1
 8007958:	4770      	bx	lr
 800795a:	2101      	movs	r1, #1
 800795c:	f8d0 2120 	ldr.w	r2, [r0, #288]	; 0x120
 8007960:	f880 311d 	strb.w	r3, [r0, #285]	; 0x11d
 8007964:	68d3      	ldr	r3, [r2, #12]
 8007966:	f880 111c 	strb.w	r1, [r0, #284]	; 0x11c
 800796a:	f043 0320 	orr.w	r3, r3, #32
 800796e:	60d3      	str	r3, [r2, #12]
 8007970:	2002      	movs	r0, #2
 8007972:	4770      	bx	lr

08007974 <UFCP_Send>:
 8007974:	e92d 41f0 	stmdb	sp!, {r4, r5, r6, r7, r8, lr}
 8007978:	4604      	mov	r4, r0
 800797a:	f890 0097 	ldrb.w	r0, [r0, #151]	; 0x97
 800797e:	b110      	cbz	r0, 8007986 <UFCP_Send+0x12>
 8007980:	2001      	movs	r0, #1
 8007982:	e8bd 81f0 	ldmia.w	sp!, {r4, r5, r6, r7, r8, pc}
 8007986:	1e58      	subs	r0, r3, #1
 8007988:	7521      	strb	r1, [r4, #20]
 800798a:	7563      	strb	r3, [r4, #21]
 800798c:	b2c1      	uxtb	r1, r0
 800798e:	f104 0716 	add.w	r7, r4, #22
 8007992:	2b00      	cmp	r3, #0
 8007994:	d05b      	beq.n	8007a4e <UFCP_Send+0xda>
 8007996:	1d10      	adds	r0, r2, #4
 8007998:	f104 051a 	add.w	r5, r4, #26
 800799c:	4295      	cmp	r5, r2
 800799e:	bf88      	it	hi
 80079a0:	42b8      	cmphi	r0, r7
 80079a2:	d869      	bhi.n	8007a78 <UFCP_Send+0x104>
 80079a4:	2b0b      	cmp	r3, #11
 80079a6:	d967      	bls.n	8007a78 <UFCP_Send+0x104>
 80079a8:	4250      	negs	r0, r2
 80079aa:	f000 0003 	and.w	r0, r0, #3
 80079ae:	1cc5      	adds	r5, r0, #3
 80079b0:	42a9      	cmp	r1, r5
 80079b2:	d337      	bcc.n	8007a24 <UFCP_Send+0xb0>
 80079b4:	2800      	cmp	r0, #0
 80079b6:	d06a      	beq.n	8007a8e <UFCP_Send+0x11a>
 80079b8:	7815      	ldrb	r5, [r2, #0]
 80079ba:	1e99      	subs	r1, r3, #2
 80079bc:	2801      	cmp	r0, #1
 80079be:	75a5      	strb	r5, [r4, #22]
 80079c0:	b2c9      	uxtb	r1, r1
 80079c2:	f102 0c01 	add.w	ip, r2, #1
 80079c6:	f104 0717 	add.w	r7, r4, #23
 80079ca:	d011      	beq.n	80079f0 <UFCP_Send+0x7c>
 80079cc:	7855      	ldrb	r5, [r2, #1]
 80079ce:	1ed9      	subs	r1, r3, #3
 80079d0:	2803      	cmp	r0, #3
 80079d2:	75e5      	strb	r5, [r4, #23]
 80079d4:	b2c9      	uxtb	r1, r1
 80079d6:	f102 0c02 	add.w	ip, r2, #2
 80079da:	f104 0718 	add.w	r7, r4, #24
 80079de:	d107      	bne.n	80079f0 <UFCP_Send+0x7c>
 80079e0:	7895      	ldrb	r5, [r2, #2]
 80079e2:	1f19      	subs	r1, r3, #4
 80079e4:	7625      	strb	r5, [r4, #24]
 80079e6:	b2c9      	uxtb	r1, r1
 80079e8:	f102 0c03 	add.w	ip, r2, #3
 80079ec:	f104 0719 	add.w	r7, r4, #25
 80079f0:	2600      	movs	r6, #0
 80079f2:	1a1b      	subs	r3, r3, r0
 80079f4:	b2db      	uxtb	r3, r3
 80079f6:	f100 0516 	add.w	r5, r0, #22
 80079fa:	4402      	add	r2, r0
 80079fc:	ea4f 0893 	mov.w	r8, r3, lsr #2
 8007a00:	1960      	adds	r0, r4, r5
 8007a02:	3601      	adds	r6, #1
 8007a04:	f852 eb04 	ldr.w	lr, [r2], #4
 8007a08:	b2f5      	uxtb	r5, r6
 8007a0a:	45a8      	cmp	r8, r5
 8007a0c:	f840 eb04 	str.w	lr, [r0], #4
 8007a10:	d8f7      	bhi.n	8007a02 <UFCP_Send+0x8e>
 8007a12:	f003 00fc 	and.w	r0, r3, #252	; 0xfc
 8007a16:	1a09      	subs	r1, r1, r0
 8007a18:	4283      	cmp	r3, r0
 8007a1a:	b2c9      	uxtb	r1, r1
 8007a1c:	eb0c 0200 	add.w	r2, ip, r0
 8007a20:	4407      	add	r7, r0
 8007a22:	d014      	beq.n	8007a4e <UFCP_Send+0xda>
 8007a24:	7813      	ldrb	r3, [r2, #0]
 8007a26:	703b      	strb	r3, [r7, #0]
 8007a28:	b189      	cbz	r1, 8007a4e <UFCP_Send+0xda>
 8007a2a:	7853      	ldrb	r3, [r2, #1]
 8007a2c:	2901      	cmp	r1, #1
 8007a2e:	707b      	strb	r3, [r7, #1]
 8007a30:	d00d      	beq.n	8007a4e <UFCP_Send+0xda>
 8007a32:	7893      	ldrb	r3, [r2, #2]
 8007a34:	2902      	cmp	r1, #2
 8007a36:	70bb      	strb	r3, [r7, #2]
 8007a38:	d009      	beq.n	8007a4e <UFCP_Send+0xda>
 8007a3a:	78d3      	ldrb	r3, [r2, #3]
 8007a3c:	2903      	cmp	r1, #3
 8007a3e:	70fb      	strb	r3, [r7, #3]
 8007a40:	d005      	beq.n	8007a4e <UFCP_Send+0xda>
 8007a42:	7913      	ldrb	r3, [r2, #4]
 8007a44:	2904      	cmp	r1, #4
 8007a46:	713b      	strb	r3, [r7, #4]
 8007a48:	d001      	beq.n	8007a4e <UFCP_Send+0xda>
 8007a4a:	7953      	ldrb	r3, [r2, #5]
 8007a4c:	717b      	strb	r3, [r7, #5]
 8007a4e:	f104 0014 	add.w	r0, r4, #20
 8007a52:	f7fe fb25 	bl	80060a0 <FCP_CalcCRC>
 8007a56:	2300      	movs	r3, #0
 8007a58:	2101      	movs	r1, #1
 8007a5a:	f8d4 2120 	ldr.w	r2, [r4, #288]	; 0x120
 8007a5e:	f884 0096 	strb.w	r0, [r4, #150]	; 0x96
 8007a62:	f884 3098 	strb.w	r3, [r4, #152]	; 0x98
 8007a66:	68d3      	ldr	r3, [r2, #12]
 8007a68:	2002      	movs	r0, #2
 8007a6a:	f043 0380 	orr.w	r3, r3, #128	; 0x80
 8007a6e:	f884 1097 	strb.w	r1, [r4, #151]	; 0x97
 8007a72:	60d3      	str	r3, [r2, #12]
 8007a74:	e8bd 81f0 	ldmia.w	sp!, {r4, r5, r6, r7, r8, pc}
 8007a78:	3101      	adds	r1, #1
 8007a7a:	4411      	add	r1, r2
 8007a7c:	f104 0315 	add.w	r3, r4, #21
 8007a80:	f812 0b01 	ldrb.w	r0, [r2], #1
 8007a84:	428a      	cmp	r2, r1
 8007a86:	f803 0f01 	strb.w	r0, [r3, #1]!
 8007a8a:	d1f9      	bne.n	8007a80 <UFCP_Send+0x10c>
 8007a8c:	e7df      	b.n	8007a4e <UFCP_Send+0xda>
 8007a8e:	4694      	mov	ip, r2
 8007a90:	e7ae      	b.n	80079f0 <UFCP_Send+0x7c>
 8007a92:	bf00      	nop

08007a94 <UFCP_RX_IRQ_Handler>:
 8007a94:	f890 311c 	ldrb.w	r3, [r0, #284]	; 0x11c
 8007a98:	b163      	cbz	r3, 8007ab4 <UFCP_RX_IRQ_Handler+0x20>
 8007a9a:	f890 311d 	ldrb.w	r3, [r0, #285]	; 0x11d
 8007a9e:	b2ca      	uxtb	r2, r1
 8007aa0:	b1cb      	cbz	r3, 8007ad6 <UFCP_RX_IRQ_Handler+0x42>
 8007aa2:	2b01      	cmp	r3, #1
 8007aa4:	d109      	bne.n	8007aba <UFCP_RX_IRQ_Handler+0x26>
 8007aa6:	060b      	lsls	r3, r1, #24
 8007aa8:	f880 209a 	strb.w	r2, [r0, #154]	; 0x9a
 8007aac:	d441      	bmi.n	8007b32 <UFCP_RX_IRQ_Handler+0x9e>
 8007aae:	2302      	movs	r3, #2
 8007ab0:	f880 311d 	strb.w	r3, [r0, #285]	; 0x11d
 8007ab4:	4a27      	ldr	r2, [pc, #156]	; (8007b54 <UFCP_RX_IRQ_Handler+0xc0>)
 8007ab6:	4610      	mov	r0, r2
 8007ab8:	4770      	bx	lr
 8007aba:	f890 109a 	ldrb.w	r1, [r0, #154]	; 0x9a
 8007abe:	3101      	adds	r1, #1
 8007ac0:	428b      	cmp	r3, r1
 8007ac2:	dc12      	bgt.n	8007aea <UFCP_RX_IRQ_Handler+0x56>
 8007ac4:	18c1      	adds	r1, r0, r3
 8007ac6:	f881 2099 	strb.w	r2, [r1, #153]	; 0x99
 8007aca:	4a22      	ldr	r2, [pc, #136]	; (8007b54 <UFCP_RX_IRQ_Handler+0xc0>)
 8007acc:	3301      	adds	r3, #1
 8007ace:	f880 311d 	strb.w	r3, [r0, #285]	; 0x11d
 8007ad2:	4610      	mov	r0, r2
 8007ad4:	4770      	bx	lr
 8007ad6:	2101      	movs	r1, #1
 8007ad8:	8a03      	ldrh	r3, [r0, #16]
 8007ada:	f880 2099 	strb.w	r2, [r0, #153]	; 0x99
 8007ade:	4a1e      	ldr	r2, [pc, #120]	; (8007b58 <UFCP_RX_IRQ_Handler+0xc4>)
 8007ae0:	f880 111d 	strb.w	r1, [r0, #285]	; 0x11d
 8007ae4:	8243      	strh	r3, [r0, #18]
 8007ae6:	4610      	mov	r0, r2
 8007ae8:	4770      	bx	lr
 8007aea:	b530      	push	{r4, r5, lr}
 8007aec:	4604      	mov	r4, r0
 8007aee:	2100      	movs	r1, #0
 8007af0:	f8d0 0120 	ldr.w	r0, [r0, #288]	; 0x120
 8007af4:	f884 211b 	strb.w	r2, [r4, #283]	; 0x11b
 8007af8:	68c3      	ldr	r3, [r0, #12]
 8007afa:	b083      	sub	sp, #12
 8007afc:	f023 0320 	bic.w	r3, r3, #32
 8007b00:	8261      	strh	r1, [r4, #18]
 8007b02:	60c3      	str	r3, [r0, #12]
 8007b04:	f104 0099 	add.w	r0, r4, #153	; 0x99
 8007b08:	f884 111c 	strb.w	r1, [r4, #284]	; 0x11c
 8007b0c:	f7fe fac8 	bl	80060a0 <FCP_CalcCRC>
 8007b10:	f894 311b 	ldrb.w	r3, [r4, #283]	; 0x11b
 8007b14:	4283      	cmp	r3, r0
 8007b16:	d111      	bne.n	8007b3c <UFCP_RX_IRQ_Handler+0xa8>
 8007b18:	f104 029b 	add.w	r2, r4, #155	; 0x9b
 8007b1c:	68a5      	ldr	r5, [r4, #8]
 8007b1e:	f894 309a 	ldrb.w	r3, [r4, #154]	; 0x9a
 8007b22:	f894 1099 	ldrb.w	r1, [r4, #153]	; 0x99
 8007b26:	6820      	ldr	r0, [r4, #0]
 8007b28:	47a8      	blx	r5
 8007b2a:	4a0c      	ldr	r2, [pc, #48]	; (8007b5c <UFCP_RX_IRQ_Handler+0xc8>)
 8007b2c:	4610      	mov	r0, r2
 8007b2e:	b003      	add	sp, #12
 8007b30:	bd30      	pop	{r4, r5, pc}
 8007b32:	2300      	movs	r3, #0
 8007b34:	4a07      	ldr	r2, [pc, #28]	; (8007b54 <UFCP_RX_IRQ_Handler+0xc0>)
 8007b36:	f880 311d 	strb.w	r3, [r0, #285]	; 0x11d
 8007b3a:	e7bc      	b.n	8007ab6 <UFCP_RX_IRQ_Handler+0x22>
 8007b3c:	230a      	movs	r3, #10
 8007b3e:	aa02      	add	r2, sp, #8
 8007b40:	f802 3d01 	strb.w	r3, [r2, #-1]!
 8007b44:	4620      	mov	r0, r4
 8007b46:	2301      	movs	r3, #1
 8007b48:	21ff      	movs	r1, #255	; 0xff
 8007b4a:	f7ff ff13 	bl	8007974 <UFCP_Send>
 8007b4e:	4a03      	ldr	r2, [pc, #12]	; (8007b5c <UFCP_RX_IRQ_Handler+0xc8>)
 8007b50:	e7ec      	b.n	8007b2c <UFCP_RX_IRQ_Handler+0x98>
 8007b52:	bf00      	nop
 8007b54:	08007fdc 	.word	0x08007fdc
 8007b58:	08007fde 	.word	0x08007fde
 8007b5c:	08007fe0 	.word	0x08007fe0

08007b60 <UFCP_OVR_IRQ_Handler>:
 8007b60:	2308      	movs	r3, #8
 8007b62:	b500      	push	{lr}
 8007b64:	b083      	sub	sp, #12
 8007b66:	eb0d 0203 	add.w	r2, sp, r3
 8007b6a:	f802 3d01 	strb.w	r3, [r2, #-1]!
 8007b6e:	21ff      	movs	r1, #255	; 0xff
 8007b70:	2301      	movs	r3, #1
 8007b72:	f7ff feff 	bl	8007974 <UFCP_Send>
 8007b76:	b003      	add	sp, #12
 8007b78:	f85d fb04 	ldr.w	pc, [sp], #4

08007b7c <UFCP_AbortReceive>:
 8007b7c:	2300      	movs	r3, #0
 8007b7e:	f880 311c 	strb.w	r3, [r0, #284]	; 0x11c
 8007b82:	4770      	bx	lr

08007b84 <RUC_SetPhaseDurationms>:
 8007b84:	eb01 0141 	add.w	r1, r1, r1, lsl #1
 8007b88:	eb00 0181 	add.w	r1, r0, r1, lsl #2
 8007b8c:	818a      	strh	r2, [r1, #12]
 8007b8e:	4770      	bx	lr

08007b90 <RUC_SetPhaseFinalMecSpeedUnit>:
 8007b90:	eb01 0141 	add.w	r1, r1, r1, lsl #1
 8007b94:	eb00 0181 	add.w	r1, r0, r1, lsl #2
 8007b98:	81ca      	strh	r2, [r1, #14]
 8007b9a:	4770      	bx	lr

08007b9c <RUC_SetPhaseFinalTorque>:
 8007b9c:	eb01 0141 	add.w	r1, r1, r1, lsl #1
 8007ba0:	eb00 0181 	add.w	r1, r0, r1, lsl #2
 8007ba4:	820a      	strh	r2, [r1, #16]
 8007ba6:	4770      	bx	lr

08007ba8 <RUC_GetPhaseDurationms>:
 8007ba8:	eb01 0141 	add.w	r1, r1, r1, lsl #1
 8007bac:	eb00 0181 	add.w	r1, r0, r1, lsl #2
 8007bb0:	8988      	ldrh	r0, [r1, #12]
 8007bb2:	4770      	bx	lr

08007bb4 <RUC_GetPhaseFinalMecSpeedUnit>:
 8007bb4:	eb01 0141 	add.w	r1, r1, r1, lsl #1
 8007bb8:	eb00 0181 	add.w	r1, r0, r1, lsl #2
 8007bbc:	f9b1 000e 	ldrsh.w	r0, [r1, #14]
 8007bc0:	4770      	bx	lr
 8007bc2:	bf00      	nop

08007bc4 <RUC_GetPhaseFinalTorque>:
 8007bc4:	eb01 0141 	add.w	r1, r1, r1, lsl #1
 8007bc8:	eb00 0181 	add.w	r1, r0, r1, lsl #2
 8007bcc:	f9b1 0010 	ldrsh.w	r0, [r1, #16]
 8007bd0:	4770      	bx	lr
 8007bd2:	bf00      	nop

08007bd4 <RUC_GetNumberOfPhases>:
 8007bd4:	f890 0048 	ldrb.w	r0, [r0, #72]	; 0x48
 8007bd8:	4770      	bx	lr
 8007bda:	bf00      	nop

08007bdc <__libc_init_array>:
 8007bdc:	b570      	push	{r4, r5, r6, lr}
 8007bde:	2500      	movs	r5, #0
 8007be0:	4e0c      	ldr	r6, [pc, #48]	; (8007c14 <__libc_init_array+0x38>)
 8007be2:	4c0d      	ldr	r4, [pc, #52]	; (8007c18 <__libc_init_array+0x3c>)
 8007be4:	1ba4      	subs	r4, r4, r6
 8007be6:	10a4      	asrs	r4, r4, #2
 8007be8:	42a5      	cmp	r5, r4
 8007bea:	d109      	bne.n	8007c00 <__libc_init_array+0x24>
 8007bec:	f000 f82e 	bl	8007c4c <_init>
 8007bf0:	2500      	movs	r5, #0
 8007bf2:	4e0a      	ldr	r6, [pc, #40]	; (8007c1c <__libc_init_array+0x40>)
 8007bf4:	4c0a      	ldr	r4, [pc, #40]	; (8007c20 <__libc_init_array+0x44>)
 8007bf6:	1ba4      	subs	r4, r4, r6
 8007bf8:	10a4      	asrs	r4, r4, #2
 8007bfa:	42a5      	cmp	r5, r4
 8007bfc:	d105      	bne.n	8007c0a <__libc_init_array+0x2e>
 8007bfe:	bd70      	pop	{r4, r5, r6, pc}
 8007c00:	f856 3025 	ldr.w	r3, [r6, r5, lsl #2]
 8007c04:	4798      	blx	r3
 8007c06:	3501      	adds	r5, #1
 8007c08:	e7ee      	b.n	8007be8 <__libc_init_array+0xc>
 8007c0a:	f856 3025 	ldr.w	r3, [r6, r5, lsl #2]
 8007c0e:	4798      	blx	r3
 8007c10:	3501      	adds	r5, #1
 8007c12:	e7f2      	b.n	8007bfa <__libc_init_array+0x1e>
 8007c14:	08007fe4 	.word	0x08007fe4
 8007c18:	08007fe4 	.word	0x08007fe4
 8007c1c:	08007fe4 	.word	0x08007fe4
 8007c20:	08007fe8 	.word	0x08007fe8

08007c24 <memcpy>:
 8007c24:	b510      	push	{r4, lr}
 8007c26:	1e43      	subs	r3, r0, #1
 8007c28:	440a      	add	r2, r1
 8007c2a:	4291      	cmp	r1, r2
 8007c2c:	d100      	bne.n	8007c30 <memcpy+0xc>
 8007c2e:	bd10      	pop	{r4, pc}
 8007c30:	f811 4b01 	ldrb.w	r4, [r1], #1
 8007c34:	f803 4f01 	strb.w	r4, [r3, #1]!
 8007c38:	e7f7      	b.n	8007c2a <memcpy+0x6>

08007c3a <memset>:
 8007c3a:	4603      	mov	r3, r0
 8007c3c:	4402      	add	r2, r0
 8007c3e:	4293      	cmp	r3, r2
 8007c40:	d100      	bne.n	8007c44 <memset+0xa>
 8007c42:	4770      	bx	lr
 8007c44:	f803 1b01 	strb.w	r1, [r3], #1
 8007c48:	e7f9      	b.n	8007c3e <memset+0x4>
	...

08007c4c <_init>:
 8007c4c:	b5f8      	push	{r3, r4, r5, r6, r7, lr}
 8007c4e:	bf00      	nop
 8007c50:	bcf8      	pop	{r3, r4, r5, r6, r7}
 8007c52:	bc08      	pop	{r3}
 8007c54:	469e      	mov	lr, r3
 8007c56:	4770      	bx	lr

08007c58 <_fini>:
 8007c58:	b5f8      	push	{r3, r4, r5, r6, r7, lr}
 8007c5a:	bf00      	nop
 8007c5c:	bcf8      	pop	{r3, r4, r5, r6, r7}
 8007c5e:	bc08      	pop	{r3}
 8007c60:	469e      	mov	lr, r3
 8007c62:	4770      	bx	lr
