
m365.elf:     file format elf32-littlearm

Sections:
Idx Name          Size      VMA       LMA       File off  Algn
  0 .isr_vector   0000010c  08000000  08000000  00010000  2**0
                  CONTENTS, ALLOC, LOAD, READONLY, DATA
  1 .text         00005ce8  0800010c  0800010c  0001010c  2**2
                  CONTENTS, ALLOC, LOAD, READONLY, CODE
  2 .rodata       000002e0  08005df4  08005df4  00015df4  2**2
                  CONTENTS, ALLOC, LOAD, READONLY, DATA
  3 .ARM.extab    00000000  080060d4  080060d4  000205b0  2**0
                  CONTENTS
  4 .ARM          00000000  080060d4  080060d4  000205b0  2**0
                  CONTENTS
  5 .preinit_array 00000000  080060d4  080060d4  000205b0  2**0
                  CONTENTS, ALLOC, LOAD, DATA
  6 .init_array   00000004  080060d4  080060d4  000160d4  2**2
                  CONTENTS, ALLOC, LOAD, DATA
  7 .fini_array   00000004  080060d8  080060d8  000160d8  2**2
                  CONTENTS, ALLOC, LOAD, DATA
  8 .data         000005b0  20000000  080060dc  00020000  2**2
                  CONTENTS, ALLOC, LOAD, DATA
  9 .bss          000003a4  200005b0  0800668c  000205b0  2**2
                  ALLOC
 10 ._user_heap_stack 00000604  20000954  0800668c  00020954  2**0
                  ALLOC
 11 .ARM.attributes 00000029  00000000  00000000  000205b0  2**0
                  CONTENTS, READONLY
 12 .comment      000000fa  00000000  00000000  000205d9  2**0
                  CONTENTS, READONLY
 13 .debug_frame  0000004c  00000000  00000000  000206d4  2**2
                  CONTENTS, READONLY, DEBUGGING

Disassembly of section .text:

0800010c <__do_global_dtors_aux>:
 800010c:	b510      	push	{r4, lr}
 800010e:	4c05      	ldr	r4, [pc, #20]	; (8000124 <__do_global_dtors_aux+0x18>)
 8000110:	7823      	ldrb	r3, [r4, #0]
 8000112:	b933      	cbnz	r3, 8000122 <__do_global_dtors_aux+0x16>
 8000114:	4b04      	ldr	r3, [pc, #16]	; (8000128 <__do_global_dtors_aux+0x1c>)
 8000116:	b113      	cbz	r3, 800011e <__do_global_dtors_aux+0x12>
 8000118:	4804      	ldr	r0, [pc, #16]	; (800012c <__do_global_dtors_aux+0x20>)
 800011a:	f3af 8000 	nop.w
 800011e:	2301      	movs	r3, #1
 8000120:	7023      	strb	r3, [r4, #0]
 8000122:	bd10      	pop	{r4, pc}
 8000124:	200005b0 	.word	0x200005b0
 8000128:	00000000 	.word	0x00000000
 800012c:	08005ddc 	.word	0x08005ddc

08000130 <frame_dummy>:
 8000130:	b508      	push	{r3, lr}
 8000132:	4b03      	ldr	r3, [pc, #12]	; (8000140 <frame_dummy+0x10>)
 8000134:	b11b      	cbz	r3, 800013e <frame_dummy+0xe>
 8000136:	4903      	ldr	r1, [pc, #12]	; (8000144 <frame_dummy+0x14>)
 8000138:	4803      	ldr	r0, [pc, #12]	; (8000148 <frame_dummy+0x18>)
 800013a:	f3af 8000 	nop.w
 800013e:	bd08      	pop	{r3, pc}
 8000140:	00000000 	.word	0x00000000
 8000144:	200005b4 	.word	0x200005b4
 8000148:	08005ddc 	.word	0x08005ddc

0800014c <Reset_Handler>:
 800014c:	2100      	movs	r1, #0
 800014e:	e003      	b.n	8000158 <LoopCopyDataInit>

08000150 <CopyDataInit>:
 8000150:	4b0b      	ldr	r3, [pc, #44]	; (8000180 <LoopFillZerobss+0x14>)
 8000152:	585b      	ldr	r3, [r3, r1]
 8000154:	5043      	str	r3, [r0, r1]
 8000156:	3104      	adds	r1, #4

08000158 <LoopCopyDataInit>:
 8000158:	480a      	ldr	r0, [pc, #40]	; (8000184 <LoopFillZerobss+0x18>)
 800015a:	4b0b      	ldr	r3, [pc, #44]	; (8000188 <LoopFillZerobss+0x1c>)
 800015c:	1842      	adds	r2, r0, r1
 800015e:	429a      	cmp	r2, r3
 8000160:	d3f6      	bcc.n	8000150 <CopyDataInit>
 8000162:	4a0a      	ldr	r2, [pc, #40]	; (800018c <LoopFillZerobss+0x20>)
 8000164:	e002      	b.n	800016c <LoopFillZerobss>

08000166 <FillZerobss>:
 8000166:	2300      	movs	r3, #0
 8000168:	f842 3b04 	str.w	r3, [r2], #4

0800016c <LoopFillZerobss>:
 800016c:	4b08      	ldr	r3, [pc, #32]	; (8000190 <LoopFillZerobss+0x24>)
 800016e:	429a      	cmp	r2, r3
 8000170:	d3f9      	bcc.n	8000166 <FillZerobss>
 8000172:	f002 fae1 	bl	8002738 <SystemInit>
 8000176:	f005 fe05 	bl	8005d84 <__libc_init_array>
 800017a:	f000 f84d 	bl	8000218 <main>
 800017e:	4770      	bx	lr
 8000180:	080060dc 	.word	0x080060dc
 8000184:	20000000 	.word	0x20000000
 8000188:	200005b0 	.word	0x200005b0
 800018c:	200005b0 	.word	0x200005b0
 8000190:	20000954 	.word	0x20000954

08000194 <BusFault_Handler>:
 8000194:	e7fe      	b.n	8000194 <BusFault_Handler>
	...

08000198 <SystemClock_Config>:
 8000198:	b530      	push	{r4, r5, lr}
 800019a:	b095      	sub	sp, #84	; 0x54
 800019c:	2220      	movs	r2, #32
 800019e:	2100      	movs	r1, #0
 80001a0:	a80b      	add	r0, sp, #44	; 0x2c
 80001a2:	f005 fe13 	bl	8005dcc <memset>
 80001a6:	2001      	movs	r0, #1
 80001a8:	2300      	movs	r3, #0
 80001aa:	2402      	movs	r4, #2
 80001ac:	2110      	movs	r1, #16
 80001ae:	f44f 1260 	mov.w	r2, #3670016	; 0x380000
 80001b2:	900e      	str	r0, [sp, #56]	; 0x38
 80001b4:	a80a      	add	r0, sp, #40	; 0x28
 80001b6:	9305      	str	r3, [sp, #20]
 80001b8:	9301      	str	r3, [sp, #4]
 80001ba:	e9cd 3306 	strd	r3, r3, [sp, #24]
 80001be:	e9cd 3308 	strd	r3, r3, [sp, #32]
 80001c2:	e9cd 3302 	strd	r3, r3, [sp, #8]
 80001c6:	9304      	str	r3, [sp, #16]
 80001c8:	940a      	str	r4, [sp, #40]	; 0x28
 80001ca:	9411      	str	r4, [sp, #68]	; 0x44
 80001cc:	910f      	str	r1, [sp, #60]	; 0x3c
 80001ce:	9213      	str	r2, [sp, #76]	; 0x4c
 80001d0:	f002 fee4 	bl	8002f9c <HAL_RCC_OscConfig>
 80001d4:	b108      	cbz	r0, 80001da <SystemClock_Config+0x42>
 80001d6:	b672      	cpsid	i
 80001d8:	e7fe      	b.n	80001d8 <SystemClock_Config+0x40>
 80001da:	4603      	mov	r3, r0
 80001dc:	250f      	movs	r5, #15
 80001de:	f44f 6280 	mov.w	r2, #1024	; 0x400
 80001e2:	a805      	add	r0, sp, #20
 80001e4:	4621      	mov	r1, r4
 80001e6:	e9cd 4306 	strd	r4, r3, [sp, #24]
 80001ea:	9309      	str	r3, [sp, #36]	; 0x24
 80001ec:	9505      	str	r5, [sp, #20]
 80001ee:	9208      	str	r2, [sp, #32]
 80001f0:	f003 f8cc 	bl	800338c <HAL_RCC_ClockConfig>
 80001f4:	b108      	cbz	r0, 80001fa <SystemClock_Config+0x62>
 80001f6:	b672      	cpsid	i
 80001f8:	e7fe      	b.n	80001f8 <SystemClock_Config+0x60>
 80001fa:	f44f 4300 	mov.w	r3, #32768	; 0x8000
 80001fe:	a801      	add	r0, sp, #4
 8000200:	9401      	str	r4, [sp, #4]
 8000202:	9303      	str	r3, [sp, #12]
 8000204:	f003 f9ba 	bl	800357c <HAL_RCCEx_PeriphCLKConfig>
 8000208:	b108      	cbz	r0, 800020e <SystemClock_Config+0x76>
 800020a:	b672      	cpsid	i
 800020c:	e7fe      	b.n	800020c <SystemClock_Config+0x74>
 800020e:	f003 f989 	bl	8003524 <HAL_RCC_EnableCSS>
 8000212:	b015      	add	sp, #84	; 0x54
 8000214:	bd30      	pop	{r4, r5, pc}
 8000216:	bf00      	nop

08000218 <main>:
 8000218:	f44f 7a80 	mov.w	sl, #256	; 0x100
 800021c:	e92d 4880 	stmdb	sp!, {r7, fp, lr}
 8000220:	b09b      	sub	sp, #108	; 0x6c
 8000222:	f002 faaf 	bl	8002784 <HAL_Init>
 8000226:	f7ff ffb7 	bl	8000198 <SystemClock_Config>
 800022a:	49a6      	ldr	r1, [pc, #664]	; (80004c4 <main+0x2ac>)
 800022c:	2200      	movs	r2, #0
 800022e:	698b      	ldr	r3, [r1, #24]
 8000230:	f44f 2960 	mov.w	r9, #917504	; 0xe0000
 8000234:	f043 0320 	orr.w	r3, r3, #32
 8000238:	618b      	str	r3, [r1, #24]
 800023a:	2402      	movs	r4, #2
 800023c:	f44f 6300 	mov.w	r3, #2048	; 0x800
 8000240:	6988      	ldr	r0, [r1, #24]
 8000242:	f8df 8294 	ldr.w	r8, [pc, #660]	; 80004d8 <main+0x2c0>
 8000246:	f000 0020 	and.w	r0, r0, #32
 800024a:	9001      	str	r0, [sp, #4]
 800024c:	9801      	ldr	r0, [sp, #4]
 800024e:	6988      	ldr	r0, [r1, #24]
 8000250:	4d9d      	ldr	r5, [pc, #628]	; (80004c8 <main+0x2b0>)
 8000252:	f040 0004 	orr.w	r0, r0, #4
 8000256:	6188      	str	r0, [r1, #24]
 8000258:	6988      	ldr	r0, [r1, #24]
 800025a:	f8c8 a008 	str.w	sl, [r8, #8]
 800025e:	f000 0004 	and.w	r0, r0, #4
 8000262:	9002      	str	r0, [sp, #8]
 8000264:	9802      	ldr	r0, [sp, #8]
 8000266:	6988      	ldr	r0, [r1, #24]
 8000268:	f040 0008 	orr.w	r0, r0, #8
 800026c:	6188      	str	r0, [r1, #24]
 800026e:	6988      	ldr	r0, [r1, #24]
 8000270:	f000 0008 	and.w	r0, r0, #8
 8000274:	9003      	str	r0, [sp, #12]
 8000276:	9803      	ldr	r0, [sp, #12]
 8000278:	6948      	ldr	r0, [r1, #20]
 800027a:	f040 0001 	orr.w	r0, r0, #1
 800027e:	6148      	str	r0, [r1, #20]
 8000280:	6949      	ldr	r1, [r1, #20]
 8000282:	4640      	mov	r0, r8
 8000284:	f001 0101 	and.w	r1, r1, #1
 8000288:	9100      	str	r1, [sp, #0]
 800028a:	9212      	str	r2, [sp, #72]	; 0x48
 800028c:	9900      	ldr	r1, [sp, #0]
 800028e:	920b      	str	r2, [sp, #44]	; 0x2c
 8000290:	e9cd 2213 	strd	r2, r2, [sp, #76]	; 0x4c
 8000294:	e9cd 2215 	strd	r2, r2, [sp, #84]	; 0x54
 8000298:	e9cd 2217 	strd	r2, r2, [sp, #92]	; 0x5c
 800029c:	e9cd 220c 	strd	r2, r2, [sp, #48]	; 0x30
 80002a0:	f8c8 5000 	str.w	r5, [r8]
 80002a4:	f888 200c 	strb.w	r2, [r8, #12]
 80002a8:	f888 2014 	strb.w	r2, [r8, #20]
 80002ac:	f8c8 901c 	str.w	r9, [r8, #28]
 80002b0:	f8c8 3004 	str.w	r3, [r8, #4]
 80002b4:	f8c8 4010 	str.w	r4, [r8, #16]
 80002b8:	f002 fa88 	bl	80027cc <HAL_ADC_Init>
 80002bc:	b108      	cbz	r0, 80002c2 <main+0xaa>
 80002be:	b672      	cpsid	i
 80002c0:	e7fe      	b.n	80002c0 <main+0xa8>
 80002c2:	4602      	mov	r2, r0
 80002c4:	2301      	movs	r3, #1
 80002c6:	f88d 205d 	strb.w	r2, [sp, #93]	; 0x5d
 80002ca:	2203      	movs	r2, #3
 80002cc:	2503      	movs	r5, #3
 80002ce:	e9cd 2312 	strd	r2, r3, [sp, #72]	; 0x48
 80002d2:	f44f 5780 	mov.w	r7, #4096	; 0x1000
 80002d6:	2601      	movs	r6, #1
 80002d8:	2200      	movs	r2, #0
 80002da:	2300      	movs	r3, #0
 80002dc:	a912      	add	r1, sp, #72	; 0x48
 80002de:	4640      	mov	r0, r8
 80002e0:	9516      	str	r5, [sp, #88]	; 0x58
 80002e2:	9718      	str	r7, [sp, #96]	; 0x60
 80002e4:	f88d 605c 	strb.w	r6, [sp, #92]	; 0x5c
 80002e8:	e9cd 2314 	strd	r2, r3, [sp, #80]	; 0x50
 80002ec:	f002 fbbe 	bl	8002a6c <HAL_ADCEx_InjectedConfigChannel>
 80002f0:	b108      	cbz	r0, 80002f6 <main+0xde>
 80002f2:	b672      	cpsid	i
 80002f4:	e7fe      	b.n	80002f4 <main+0xdc>
 80002f6:	f04f 0b04 	mov.w	fp, #4
 80002fa:	a912      	add	r1, sp, #72	; 0x48
 80002fc:	4640      	mov	r0, r8
 80002fe:	e9cd b412 	strd	fp, r4, [sp, #72]	; 0x48
 8000302:	f002 fbb3 	bl	8002a6c <HAL_ADCEx_InjectedConfigChannel>
 8000306:	b108      	cbz	r0, 800030c <main+0xf4>
 8000308:	b672      	cpsid	i
 800030a:	e7fe      	b.n	800030a <main+0xf2>
 800030c:	2305      	movs	r3, #5
 800030e:	a912      	add	r1, sp, #72	; 0x48
 8000310:	4640      	mov	r0, r8
 8000312:	9513      	str	r5, [sp, #76]	; 0x4c
 8000314:	9312      	str	r3, [sp, #72]	; 0x48
 8000316:	f002 fba9 	bl	8002a6c <HAL_ADCEx_InjectedConfigChannel>
 800031a:	4602      	mov	r2, r0
 800031c:	b108      	cbz	r0, 8000322 <main+0x10a>
 800031e:	b672      	cpsid	i
 8000320:	e7fe      	b.n	8000320 <main+0x108>
 8000322:	a90b      	add	r1, sp, #44	; 0x2c
 8000324:	4640      	mov	r0, r8
 8000326:	920d      	str	r2, [sp, #52]	; 0x34
 8000328:	e9cd 460b 	strd	r4, r6, [sp, #44]	; 0x2c
 800032c:	f002 fb0e 	bl	800294c <HAL_ADC_ConfigChannel>
 8000330:	4602      	mov	r2, r0
 8000332:	b108      	cbz	r0, 8000338 <main+0x120>
 8000334:	b672      	cpsid	i
 8000336:	e7fe      	b.n	8000336 <main+0x11e>
 8000338:	4640      	mov	r0, r8
 800033a:	a90b      	add	r1, sp, #44	; 0x2c
 800033c:	e9cd 240b 	strd	r2, r4, [sp, #44]	; 0x2c
 8000340:	f002 fb04 	bl	800294c <HAL_ADC_ConfigChannel>
 8000344:	4602      	mov	r2, r0
 8000346:	b108      	cbz	r0, 800034c <main+0x134>
 8000348:	b672      	cpsid	i
 800034a:	e7fe      	b.n	800034a <main+0x132>
 800034c:	f44f 6300 	mov.w	r3, #2048	; 0x800
 8000350:	f8df 8188 	ldr.w	r8, [pc, #392]	; 80004dc <main+0x2c4>
 8000354:	495d      	ldr	r1, [pc, #372]	; (80004cc <main+0x2b4>)
 8000356:	e9cd 0012 	strd	r0, r0, [sp, #72]	; 0x48
 800035a:	e9cd 0014 	strd	r0, r0, [sp, #80]	; 0x50
 800035e:	e9cd 0016 	strd	r0, r0, [sp, #88]	; 0x58
 8000362:	9018      	str	r0, [sp, #96]	; 0x60
 8000364:	4640      	mov	r0, r8
 8000366:	f888 200c 	strb.w	r2, [r8, #12]
 800036a:	f888 2014 	strb.w	r2, [r8, #20]
 800036e:	f8c8 a008 	str.w	sl, [r8, #8]
 8000372:	f8c8 901c 	str.w	r9, [r8, #28]
 8000376:	f8c8 3004 	str.w	r3, [r8, #4]
 800037a:	f8c8 6010 	str.w	r6, [r8, #16]
 800037e:	f8c8 1000 	str.w	r1, [r8]
 8000382:	f002 fa23 	bl	80027cc <HAL_ADC_Init>
 8000386:	4602      	mov	r2, r0
 8000388:	b108      	cbz	r0, 800038e <main+0x176>
 800038a:	b672      	cpsid	i
 800038c:	e7fe      	b.n	800038c <main+0x174>
 800038e:	2301      	movs	r3, #1
 8000390:	f88d 205d 	strb.w	r2, [sp, #93]	; 0x5d
 8000394:	2203      	movs	r2, #3
 8000396:	e9cd 2312 	strd	r2, r3, [sp, #72]	; 0x48
 800039a:	2200      	movs	r2, #0
 800039c:	2300      	movs	r3, #0
 800039e:	a912      	add	r1, sp, #72	; 0x48
 80003a0:	4640      	mov	r0, r8
 80003a2:	9516      	str	r5, [sp, #88]	; 0x58
 80003a4:	9718      	str	r7, [sp, #96]	; 0x60
 80003a6:	f88d 605c 	strb.w	r6, [sp, #92]	; 0x5c
 80003aa:	e9cd 2314 	strd	r2, r3, [sp, #80]	; 0x50
 80003ae:	f002 fb5d 	bl	8002a6c <HAL_ADCEx_InjectedConfigChannel>
 80003b2:	b108      	cbz	r0, 80003b8 <main+0x1a0>
 80003b4:	b672      	cpsid	i
 80003b6:	e7fe      	b.n	80003b6 <main+0x19e>
 80003b8:	a912      	add	r1, sp, #72	; 0x48
 80003ba:	4640      	mov	r0, r8
 80003bc:	f8cd b048 	str.w	fp, [sp, #72]	; 0x48
 80003c0:	9413      	str	r4, [sp, #76]	; 0x4c
 80003c2:	f002 fb53 	bl	8002a6c <HAL_ADCEx_InjectedConfigChannel>
 80003c6:	b108      	cbz	r0, 80003cc <main+0x1b4>
 80003c8:	b672      	cpsid	i
 80003ca:	e7fe      	b.n	80003ca <main+0x1b2>
 80003cc:	2305      	movs	r3, #5
 80003ce:	4640      	mov	r0, r8
 80003d0:	a912      	add	r1, sp, #72	; 0x48
 80003d2:	e9cd 3512 	strd	r3, r5, [sp, #72]	; 0x48
 80003d6:	f002 fb49 	bl	8002a6c <HAL_ADCEx_InjectedConfigChannel>
 80003da:	b108      	cbz	r0, 80003e0 <main+0x1c8>
 80003dc:	b672      	cpsid	i
 80003de:	e7fe      	b.n	80003de <main+0x1c6>
 80003e0:	2500      	movs	r5, #0
 80003e2:	2720      	movs	r7, #32
 80003e4:	4629      	mov	r1, r5
 80003e6:	463a      	mov	r2, r7
 80003e8:	a812      	add	r0, sp, #72	; 0x48
 80003ea:	9506      	str	r5, [sp, #24]
 80003ec:	9504      	str	r5, [sp, #16]
 80003ee:	e9cd 550b 	strd	r5, r5, [sp, #44]	; 0x2c
 80003f2:	e9cd 550d 	strd	r5, r5, [sp, #52]	; 0x34
 80003f6:	e9cd 550f 	strd	r5, r5, [sp, #60]	; 0x3c
 80003fa:	9511      	str	r5, [sp, #68]	; 0x44
 80003fc:	e9cd 5507 	strd	r5, r5, [sp, #28]
 8000400:	e9cd 5509 	strd	r5, r5, [sp, #36]	; 0x24
 8000404:	9505      	str	r5, [sp, #20]
 8000406:	f44f 7680 	mov.w	r6, #256	; 0x100
 800040a:	f005 fcdf 	bl	8005dcc <memset>
 800040e:	f44f 62fa 	mov.w	r2, #2000	; 0x7d0
 8000412:	2301      	movs	r3, #1
 8000414:	4c2e      	ldr	r4, [pc, #184]	; (80004d0 <main+0x2b8>)
 8000416:	492f      	ldr	r1, [pc, #188]	; (80004d4 <main+0x2bc>)
 8000418:	4620      	mov	r0, r4
 800041a:	e9c4 5701 	strd	r5, r7, [r4, #4]
 800041e:	61a5      	str	r5, [r4, #24]
 8000420:	6021      	str	r1, [r4, #0]
 8000422:	60e2      	str	r2, [r4, #12]
 8000424:	e9c4 6304 	strd	r6, r3, [r4, #16]
 8000428:	f003 f92a 	bl	8003680 <HAL_TIM_Base_Init>
 800042c:	b108      	cbz	r0, 8000432 <main+0x21a>
 800042e:	b672      	cpsid	i
 8000430:	e7fe      	b.n	8000430 <main+0x218>
 8000432:	4620      	mov	r0, r4
 8000434:	f003 f986 	bl	8003744 <HAL_TIM_PWM_Init>
 8000438:	b108      	cbz	r0, 800043e <main+0x226>
 800043a:	b672      	cpsid	i
 800043c:	e7fe      	b.n	800043c <main+0x224>
 800043e:	2310      	movs	r3, #16
 8000440:	2206      	movs	r2, #6
 8000442:	a906      	add	r1, sp, #24
 8000444:	4620      	mov	r0, r4
 8000446:	9307      	str	r3, [sp, #28]
 8000448:	9206      	str	r2, [sp, #24]
 800044a:	f003 fb85 	bl	8003b58 <HAL_TIM_SlaveConfigSynchro>
 800044e:	4603      	mov	r3, r0
 8000450:	b108      	cbz	r0, 8000456 <main+0x23e>
 8000452:	b672      	cpsid	i
 8000454:	e7fe      	b.n	8000454 <main+0x23c>
 8000456:	a904      	add	r1, sp, #16
 8000458:	4620      	mov	r0, r4
 800045a:	e9cd 3304 	strd	r3, r3, [sp, #16]
 800045e:	f003 fcf1 	bl	8003e44 <HAL_TIMEx_MasterConfigSynchronization>
 8000462:	b108      	cbz	r0, 8000468 <main+0x250>
 8000464:	b672      	cpsid	i
 8000466:	e7fe      	b.n	8000466 <main+0x24e>
 8000468:	2360      	movs	r3, #96	; 0x60
 800046a:	4602      	mov	r2, r0
 800046c:	e9cd 000c 	strd	r0, r0, [sp, #48]	; 0x30
 8000470:	e9cd 000e 	strd	r0, r0, [sp, #56]	; 0x38
 8000474:	e9cd 0010 	strd	r0, r0, [sp, #64]	; 0x40
 8000478:	a90b      	add	r1, sp, #44	; 0x2c
 800047a:	4620      	mov	r0, r4
 800047c:	930b      	str	r3, [sp, #44]	; 0x2c
 800047e:	f003 f9c1 	bl	8003804 <HAL_TIM_PWM_ConfigChannel>
 8000482:	b108      	cbz	r0, 8000488 <main+0x270>
 8000484:	b672      	cpsid	i
 8000486:	e7fe      	b.n	8000486 <main+0x26e>
 8000488:	2204      	movs	r2, #4
 800048a:	a90b      	add	r1, sp, #44	; 0x2c
 800048c:	4620      	mov	r0, r4
 800048e:	f003 f9b9 	bl	8003804 <HAL_TIM_PWM_ConfigChannel>
 8000492:	b108      	cbz	r0, 8000498 <main+0x280>
 8000494:	b672      	cpsid	i
 8000496:	e7fe      	b.n	8000496 <main+0x27e>
 8000498:	2208      	movs	r2, #8
 800049a:	a90b      	add	r1, sp, #44	; 0x2c
 800049c:	4620      	mov	r0, r4
 800049e:	f003 f9b1 	bl	8003804 <HAL_TIM_PWM_ConfigChannel>
 80004a2:	b108      	cbz	r0, 80004a8 <main+0x290>
 80004a4:	b672      	cpsid	i
 80004a6:	e7fe      	b.n	80004a6 <main+0x28e>
 80004a8:	2070      	movs	r0, #112	; 0x70
 80004aa:	f240 73cf 	movw	r3, #1999	; 0x7cf
 80004ae:	900b      	str	r0, [sp, #44]	; 0x2c
 80004b0:	220c      	movs	r2, #12
 80004b2:	a90b      	add	r1, sp, #44	; 0x2c
 80004b4:	4620      	mov	r0, r4
 80004b6:	930c      	str	r3, [sp, #48]	; 0x30
 80004b8:	f003 f9a4 	bl	8003804 <HAL_TIM_PWM_ConfigChannel>
 80004bc:	b180      	cbz	r0, 80004e0 <main+0x2c8>
 80004be:	b672      	cpsid	i
 80004c0:	e7fe      	b.n	80004c0 <main+0x2a8>
 80004c2:	bf00      	nop
 80004c4:	40021000 	.word	0x40021000
 80004c8:	40012400 	.word	0x40012400
 80004cc:	40012800 	.word	0x40012800
 80004d0:	20000728 	.word	0x20000728
 80004d4:	40012c00 	.word	0x40012c00
 80004d8:	200006b4 	.word	0x200006b4
 80004dc:	2000063c 	.word	0x2000063c
 80004e0:	f44f 6100 	mov.w	r1, #2048	; 0x800
 80004e4:	f44f 6280 	mov.w	r2, #1024	; 0x400
 80004e8:	2319      	movs	r3, #25
 80004ea:	e9cd 0016 	strd	r0, r0, [sp, #88]	; 0x58
 80004ee:	9019      	str	r0, [sp, #100]	; 0x64
 80004f0:	9112      	str	r1, [sp, #72]	; 0x48
 80004f2:	4620      	mov	r0, r4
 80004f4:	a912      	add	r1, sp, #72	; 0x48
 80004f6:	9614      	str	r6, [sp, #80]	; 0x50
 80004f8:	9213      	str	r2, [sp, #76]	; 0x4c
 80004fa:	9315      	str	r3, [sp, #84]	; 0x54
 80004fc:	f003 fcd6 	bl	8003eac <HAL_TIMEx_ConfigBreakDeadTime>
 8000500:	4605      	mov	r5, r0
 8000502:	b108      	cbz	r0, 8000508 <main+0x2f0>
 8000504:	b672      	cpsid	i
 8000506:	e7fe      	b.n	8000506 <main+0x2ee>
 8000508:	4620      	mov	r0, r4
 800050a:	f001 fc6d 	bl	8001de8 <HAL_TIM_MspPostInit>
 800050e:	f64f 71ff 	movw	r1, #65535	; 0xffff
 8000512:	4b41      	ldr	r3, [pc, #260]	; (8000618 <main+0x400>)
 8000514:	4a41      	ldr	r2, [pc, #260]	; (800061c <main+0x404>)
 8000516:	4618      	mov	r0, r3
 8000518:	e9cd 550b 	strd	r5, r5, [sp, #44]	; 0x2c
 800051c:	e9cd 550d 	strd	r5, r5, [sp, #52]	; 0x34
 8000520:	e9cd 5512 	strd	r5, r5, [sp, #72]	; 0x48
 8000524:	e9cd 5514 	strd	r5, r5, [sp, #80]	; 0x50
 8000528:	e9cd 5506 	strd	r5, r5, [sp, #24]
 800052c:	60d9      	str	r1, [r3, #12]
 800052e:	e9c3 5501 	strd	r5, r5, [r3, #4]
 8000532:	611d      	str	r5, [r3, #16]
 8000534:	619d      	str	r5, [r3, #24]
 8000536:	601a      	str	r2, [r3, #0]
 8000538:	f003 f8a2 	bl	8003680 <HAL_TIM_Base_Init>
 800053c:	b108      	cbz	r0, 8000542 <main+0x32a>
 800053e:	b672      	cpsid	i
 8000540:	e7fe      	b.n	8000540 <main+0x328>
 8000542:	f44f 5380 	mov.w	r3, #4096	; 0x1000
 8000546:	a90b      	add	r1, sp, #44	; 0x2c
 8000548:	4833      	ldr	r0, [pc, #204]	; (8000618 <main+0x400>)
 800054a:	930b      	str	r3, [sp, #44]	; 0x2c
 800054c:	f003 fa5e 	bl	8003a0c <HAL_TIM_ConfigClockSource>
 8000550:	4603      	mov	r3, r0
 8000552:	b108      	cbz	r0, 8000558 <main+0x340>
 8000554:	b672      	cpsid	i
 8000556:	e7fe      	b.n	8000556 <main+0x33e>
 8000558:	220a      	movs	r2, #10
 800055a:	a912      	add	r1, sp, #72	; 0x48
 800055c:	482e      	ldr	r0, [pc, #184]	; (8000618 <main+0x400>)
 800055e:	e9cd 3312 	strd	r3, r3, [sp, #72]	; 0x48
 8000562:	e9cd 2314 	strd	r2, r3, [sp, #80]	; 0x50
 8000566:	f003 fc09 	bl	8003d7c <HAL_TIMEx_HallSensor_Init>
 800056a:	4603      	mov	r3, r0
 800056c:	b108      	cbz	r0, 8000572 <main+0x35a>
 800056e:	b672      	cpsid	i
 8000570:	e7fe      	b.n	8000570 <main+0x358>
 8000572:	2250      	movs	r2, #80	; 0x50
 8000574:	a906      	add	r1, sp, #24
 8000576:	4828      	ldr	r0, [pc, #160]	; (8000618 <main+0x400>)
 8000578:	e9cd 2306 	strd	r2, r3, [sp, #24]
 800057c:	f003 fc62 	bl	8003e44 <HAL_TIMEx_MasterConfigSynchronization>
 8000580:	4602      	mov	r2, r0
 8000582:	b108      	cbz	r0, 8000588 <main+0x370>
 8000584:	b672      	cpsid	i
 8000586:	e7fe      	b.n	8000586 <main+0x36e>
 8000588:	210c      	movs	r1, #12
 800058a:	f44f 35e1 	mov.w	r5, #115200	; 0x1c200
 800058e:	4b24      	ldr	r3, [pc, #144]	; (8000620 <main+0x408>)
 8000590:	4c24      	ldr	r4, [pc, #144]	; (8000624 <main+0x40c>)
 8000592:	4618      	mov	r0, r3
 8000594:	601c      	str	r4, [r3, #0]
 8000596:	e9c3 5201 	strd	r5, r2, [r3, #4]
 800059a:	e9c3 2203 	strd	r2, r2, [r3, #12]
 800059e:	e9c3 2206 	strd	r2, r2, [r3, #24]
 80005a2:	6159      	str	r1, [r3, #20]
 80005a4:	f003 fcac 	bl	8003f00 <HAL_UART_Init>
 80005a8:	4604      	mov	r4, r0
 80005aa:	b108      	cbz	r0, 80005b0 <main+0x398>
 80005ac:	b672      	cpsid	i
 80005ae:	e7fe      	b.n	80005ae <main+0x396>
 80005b0:	f001 f8fc 	bl	80017ac <MX_MotorControl_Init>
 80005b4:	4622      	mov	r2, r4
 80005b6:	2102      	movs	r1, #2
 80005b8:	2012      	movs	r0, #18
 80005ba:	f002 fb5f 	bl	8002c7c <HAL_NVIC_SetPriority>
 80005be:	2012      	movs	r0, #18
 80005c0:	f002 fb92 	bl	8002ce8 <HAL_NVIC_EnableIRQ>
 80005c4:	4622      	mov	r2, r4
 80005c6:	4621      	mov	r1, r4
 80005c8:	2019      	movs	r0, #25
 80005ca:	f002 fb57 	bl	8002c7c <HAL_NVIC_SetPriority>
 80005ce:	2019      	movs	r0, #25
 80005d0:	f002 fb8a 	bl	8002ce8 <HAL_NVIC_EnableIRQ>
 80005d4:	2201      	movs	r2, #1
 80005d6:	2104      	movs	r1, #4
 80005d8:	2018      	movs	r0, #24
 80005da:	f002 fb4f 	bl	8002c7c <HAL_NVIC_SetPriority>
 80005de:	2018      	movs	r0, #24
 80005e0:	f002 fb82 	bl	8002ce8 <HAL_NVIC_EnableIRQ>
 80005e4:	4622      	mov	r2, r4
 80005e6:	4621      	mov	r1, r4
 80005e8:	200b      	movs	r0, #11
 80005ea:	f002 fb47 	bl	8002c7c <HAL_NVIC_SetPriority>
 80005ee:	200b      	movs	r0, #11
 80005f0:	f002 fb7a 	bl	8002ce8 <HAL_NVIC_EnableIRQ>
 80005f4:	4622      	mov	r2, r4
 80005f6:	2103      	movs	r1, #3
 80005f8:	201d      	movs	r0, #29
 80005fa:	f002 fb3f 	bl	8002c7c <HAL_NVIC_SetPriority>
 80005fe:	201d      	movs	r0, #29
 8000600:	f002 fb72 	bl	8002ce8 <HAL_NVIC_EnableIRQ>
 8000604:	2027      	movs	r0, #39	; 0x27
 8000606:	2201      	movs	r2, #1
 8000608:	2103      	movs	r1, #3
 800060a:	f002 fb37 	bl	8002c7c <HAL_NVIC_SetPriority>
 800060e:	2027      	movs	r0, #39	; 0x27
 8000610:	f002 fb6a 	bl	8002ce8 <HAL_NVIC_EnableIRQ>
 8000614:	e7fe      	b.n	8000614 <main+0x3fc>
 8000616:	bf00      	nop
 8000618:	2000066c 	.word	0x2000066c
 800061c:	40000400 	.word	0x40000400
 8000620:	200005fc 	.word	0x200005fc
 8000624:	40004800 	.word	0x40004800

08000628 <Error_Handler>:
 8000628:	b672      	cpsid	i
 800062a:	e7fe      	b.n	800062a <Error_Handler+0x2>

0800062c <MCI_Init>:
 800062c:	b410      	push	{r4}
 800062e:	2400      	movs	r4, #0
 8000630:	e9c0 1200 	strd	r1, r2, [r0]
 8000634:	7304      	strb	r4, [r0, #12]
 8000636:	f8c0 400e 	str.w	r4, [r0, #14]
 800063a:	82c4      	strh	r4, [r0, #22]
 800063c:	7604      	strb	r4, [r0, #24]
 800063e:	6083      	str	r3, [r0, #8]
 8000640:	bc10      	pop	{r4}
 8000642:	4770      	bx	lr

08000644 <MCI_ExecSpeedRamp>:
 8000644:	2301      	movs	r3, #1
 8000646:	81c1      	strh	r1, [r0, #14]
 8000648:	82c2      	strh	r2, [r0, #22]
 800064a:	7303      	strb	r3, [r0, #12]
 800064c:	7603      	strb	r3, [r0, #24]
 800064e:	7643      	strb	r3, [r0, #25]
 8000650:	4770      	bx	lr
 8000652:	bf00      	nop

08000654 <MCI_ExecTorqueRamp>:
 8000654:	b430      	push	{r4, r5}
 8000656:	2300      	movs	r3, #0
 8000658:	2502      	movs	r5, #2
 800065a:	2401      	movs	r4, #1
 800065c:	7305      	strb	r5, [r0, #12]
 800065e:	7604      	strb	r4, [r0, #24]
 8000660:	8201      	strh	r1, [r0, #16]
 8000662:	82c2      	strh	r2, [r0, #22]
 8000664:	7643      	strb	r3, [r0, #25]
 8000666:	bc30      	pop	{r4, r5}
 8000668:	4770      	bx	lr
 800066a:	bf00      	nop

0800066c <MCI_SetCurrentReferences>:
 800066c:	b410      	push	{r4}
 800066e:	2201      	movs	r2, #1
 8000670:	2403      	movs	r4, #3
 8000672:	2300      	movs	r3, #0
 8000674:	b083      	sub	sp, #12
 8000676:	f8c0 1012 	str.w	r1, [r0, #18]
 800067a:	7304      	strb	r4, [r0, #12]
 800067c:	7602      	strb	r2, [r0, #24]
 800067e:	7643      	strb	r3, [r0, #25]
 8000680:	b003      	add	sp, #12
 8000682:	bc10      	pop	{r4}
 8000684:	4770      	bx	lr
 8000686:	bf00      	nop

08000688 <MCI_StartMotor>:
 8000688:	b510      	push	{r4, lr}
 800068a:	2103      	movs	r1, #3
 800068c:	4604      	mov	r4, r0
 800068e:	6800      	ldr	r0, [r0, #0]
 8000690:	f005 f892 	bl	80057b8 <STM_NextState>
 8000694:	b108      	cbz	r0, 800069a <MCI_StartMotor+0x12>
 8000696:	2301      	movs	r3, #1
 8000698:	7623      	strb	r3, [r4, #24]
 800069a:	bd10      	pop	{r4, pc}

0800069c <MCI_StopMotor>:
 800069c:	6800      	ldr	r0, [r0, #0]
 800069e:	2107      	movs	r1, #7
 80006a0:	f005 b88a 	b.w	80057b8 <STM_NextState>

080006a4 <MCI_FaultAcknowledged>:
 80006a4:	6800      	ldr	r0, [r0, #0]
 80006a6:	f005 b8fd 	b.w	80058a4 <STM_FaultAcknowledged>
 80006aa:	bf00      	nop

080006ac <MCI_EncoderAlign>:
 80006ac:	6800      	ldr	r0, [r0, #0]
 80006ae:	2101      	movs	r1, #1
 80006b0:	f005 b882 	b.w	80057b8 <STM_NextState>

080006b4 <MCI_ExecBufferedCommands>:
 80006b4:	b110      	cbz	r0, 80006bc <MCI_ExecBufferedCommands+0x8>
 80006b6:	7e03      	ldrb	r3, [r0, #24]
 80006b8:	2b01      	cmp	r3, #1
 80006ba:	d000      	beq.n	80006be <MCI_ExecBufferedCommands+0xa>
 80006bc:	4770      	bx	lr
 80006be:	7b01      	ldrb	r1, [r0, #12]
 80006c0:	b510      	push	{r4, lr}
 80006c2:	2902      	cmp	r1, #2
 80006c4:	4604      	mov	r4, r0
 80006c6:	d01f      	beq.n	8000708 <MCI_ExecBufferedCommands+0x54>
 80006c8:	2903      	cmp	r1, #3
 80006ca:	d004      	beq.n	80006d6 <MCI_ExecBufferedCommands+0x22>
 80006cc:	2901      	cmp	r1, #1
 80006ce:	d00b      	beq.n	80006e8 <MCI_ExecBufferedCommands+0x34>
 80006d0:	2303      	movs	r3, #3
 80006d2:	7623      	strb	r3, [r4, #24]
 80006d4:	bd10      	pop	{r4, pc}
 80006d6:	6882      	ldr	r2, [r0, #8]
 80006d8:	f8d0 1012 	ldr.w	r1, [r0, #18]
 80006dc:	f882 3024 	strb.w	r3, [r2, #36]	; 0x24
 80006e0:	6111      	str	r1, [r2, #16]
 80006e2:	2302      	movs	r3, #2
 80006e4:	7623      	strb	r3, [r4, #24]
 80006e6:	bd10      	pop	{r4, pc}
 80006e8:	2200      	movs	r2, #0
 80006ea:	6883      	ldr	r3, [r0, #8]
 80006ec:	6840      	ldr	r0, [r0, #4]
 80006ee:	f883 2024 	strb.w	r2, [r3, #36]	; 0x24
 80006f2:	f004 ff9d 	bl	8005630 <STC_SetControlMode>
 80006f6:	8ae2      	ldrh	r2, [r4, #22]
 80006f8:	f9b4 100e 	ldrsh.w	r1, [r4, #14]
 80006fc:	6860      	ldr	r0, [r4, #4]
 80006fe:	f004 ff9b 	bl	8005638 <STC_ExecRamp>
 8000702:	2800      	cmp	r0, #0
 8000704:	d0e4      	beq.n	80006d0 <MCI_ExecBufferedCommands+0x1c>
 8000706:	e7ec      	b.n	80006e2 <MCI_ExecBufferedCommands+0x2e>
 8000708:	2300      	movs	r3, #0
 800070a:	6882      	ldr	r2, [r0, #8]
 800070c:	4619      	mov	r1, r3
 800070e:	f882 3024 	strb.w	r3, [r2, #36]	; 0x24
 8000712:	6840      	ldr	r0, [r0, #4]
 8000714:	f004 ff8c 	bl	8005630 <STC_SetControlMode>
 8000718:	8ae2      	ldrh	r2, [r4, #22]
 800071a:	f9b4 1010 	ldrsh.w	r1, [r4, #16]
 800071e:	6860      	ldr	r0, [r4, #4]
 8000720:	f004 ff8a 	bl	8005638 <STC_ExecRamp>
 8000724:	2800      	cmp	r0, #0
 8000726:	d0d3      	beq.n	80006d0 <MCI_ExecBufferedCommands+0x1c>
 8000728:	e7db      	b.n	80006e2 <MCI_ExecBufferedCommands+0x2e>
 800072a:	bf00      	nop

0800072c <MCI_GetSTMState>:
 800072c:	6800      	ldr	r0, [r0, #0]
 800072e:	f005 b8b7 	b.w	80058a0 <STM_GetState>
 8000732:	bf00      	nop

08000734 <MCI_GetControlMode>:
 8000734:	7e40      	ldrb	r0, [r0, #25]
 8000736:	4770      	bx	lr

08000738 <MCI_GetLastRampFinalSpeed>:
 8000738:	7b03      	ldrb	r3, [r0, #12]
 800073a:	2b01      	cmp	r3, #1
 800073c:	bf0c      	ite	eq
 800073e:	f9b0 000e 	ldrsheq.w	r0, [r0, #14]
 8000742:	2000      	movne	r0, #0
 8000744:	4770      	bx	lr
 8000746:	bf00      	nop

08000748 <MCI_StopRamp>:
 8000748:	6840      	ldr	r0, [r0, #4]
 800074a:	f004 bfbf 	b.w	80056cc <STC_StopRamp>
 800074e:	bf00      	nop

08000750 <MCI_GetAvrgMecSpeedUnit>:
 8000750:	b508      	push	{r3, lr}
 8000752:	6840      	ldr	r0, [r0, #4]
 8000754:	f004 ff52 	bl	80055fc <STC_GetSpeedSensor>
 8000758:	e8bd 4008 	ldmia.w	sp!, {r3, lr}
 800075c:	f004 bef4 	b.w	8005548 <SPD_GetAvrgMecSpeedUnit>

08000760 <MCI_GetMecSpeedRefUnit>:
 8000760:	6840      	ldr	r0, [r0, #4]
 8000762:	f004 bf55 	b.w	8005610 <STC_GetMecSpeedRefUnit>
 8000766:	bf00      	nop

08000768 <MCI_GetIab>:
 8000768:	6883      	ldr	r3, [r0, #8]
 800076a:	b082      	sub	sp, #8
 800076c:	6818      	ldr	r0, [r3, #0]
 800076e:	b283      	uxth	r3, r0
 8000770:	f363 000f 	bfi	r0, r3, #0, #16
 8000774:	b002      	add	sp, #8
 8000776:	4770      	bx	lr

08000778 <MCI_GetIalphabeta>:
 8000778:	6883      	ldr	r3, [r0, #8]
 800077a:	b082      	sub	sp, #8
 800077c:	6858      	ldr	r0, [r3, #4]
 800077e:	b283      	uxth	r3, r0
 8000780:	f363 000f 	bfi	r0, r3, #0, #16
 8000784:	b002      	add	sp, #8
 8000786:	4770      	bx	lr

08000788 <MCI_GetIqd>:
 8000788:	6883      	ldr	r3, [r0, #8]
 800078a:	b082      	sub	sp, #8
 800078c:	68d8      	ldr	r0, [r3, #12]
 800078e:	b283      	uxth	r3, r0
 8000790:	f363 000f 	bfi	r0, r3, #0, #16
 8000794:	b002      	add	sp, #8
 8000796:	4770      	bx	lr

08000798 <MCI_GetIqdref>:
 8000798:	6883      	ldr	r3, [r0, #8]
 800079a:	b082      	sub	sp, #8
 800079c:	6918      	ldr	r0, [r3, #16]
 800079e:	b283      	uxth	r3, r0
 80007a0:	f363 000f 	bfi	r0, r3, #0, #16
 80007a4:	b002      	add	sp, #8
 80007a6:	4770      	bx	lr

080007a8 <MCI_GetVqd>:
 80007a8:	6883      	ldr	r3, [r0, #8]
 80007aa:	b082      	sub	sp, #8
 80007ac:	f8d3 0016 	ldr.w	r0, [r3, #22]
 80007b0:	b283      	uxth	r3, r0
 80007b2:	f363 000f 	bfi	r0, r3, #0, #16
 80007b6:	b002      	add	sp, #8
 80007b8:	4770      	bx	lr
 80007ba:	bf00      	nop

080007bc <MCI_GetValphabeta>:
 80007bc:	6883      	ldr	r3, [r0, #8]
 80007be:	b082      	sub	sp, #8
 80007c0:	f8d3 001a 	ldr.w	r0, [r3, #26]
 80007c4:	b283      	uxth	r3, r0
 80007c6:	f363 000f 	bfi	r0, r3, #0, #16
 80007ca:	b002      	add	sp, #8
 80007cc:	4770      	bx	lr
 80007ce:	bf00      	nop

080007d0 <MCI_GetTeref>:
 80007d0:	6883      	ldr	r3, [r0, #8]
 80007d2:	f9b3 001e 	ldrsh.w	r0, [r3, #30]
 80007d6:	4770      	bx	lr

080007d8 <MCI_SetIdref>:
 80007d8:	6883      	ldr	r3, [r0, #8]
 80007da:	8259      	strh	r1, [r3, #18]
 80007dc:	8299      	strh	r1, [r3, #20]
 80007de:	4770      	bx	lr

080007e0 <MCI_Clear_Iqdref>:
 80007e0:	4603      	mov	r3, r0
 80007e2:	b510      	push	{r4, lr}
 80007e4:	e9d3 0401 	ldrd	r0, r4, [r3, #4]
 80007e8:	f004 ffae 	bl	8005748 <STC_GetDefaultIqdref>
 80007ec:	f3c0 430f 	ubfx	r3, r0, #16, #16
 80007f0:	8220      	strh	r0, [r4, #16]
 80007f2:	8263      	strh	r3, [r4, #18]
 80007f4:	bd10      	pop	{r4, pc}
 80007f6:	bf00      	nop

080007f8 <MCM_Clarke>:
 80007f8:	f644 13e6 	movw	r3, #18918	; 0x49e6
 80007fc:	b202      	sxth	r2, r0
 80007fe:	1401      	asrs	r1, r0, #16
 8000800:	fb03 f002 	mul.w	r0, r3, r2
 8000804:	fb03 f301 	mul.w	r3, r3, r1
 8000808:	4240      	negs	r0, r0
 800080a:	eba0 0043 	sub.w	r0, r0, r3, lsl #1
 800080e:	13c0      	asrs	r0, r0, #15
 8000810:	f5b0 4f00 	cmp.w	r0, #32768	; 0x8000
 8000814:	b084      	sub	sp, #16
 8000816:	da04      	bge.n	8000822 <MCM_Clarke+0x2a>
 8000818:	f510 4f00 	cmn.w	r0, #32768	; 0x8000
 800081c:	da0c      	bge.n	8000838 <MCM_Clarke+0x40>
 800081e:	4b08      	ldr	r3, [pc, #32]	; (8000840 <MCM_Clarke+0x48>)
 8000820:	e001      	b.n	8000826 <MCM_Clarke+0x2e>
 8000822:	f647 73ff 	movw	r3, #32767	; 0x7fff
 8000826:	2000      	movs	r0, #0
 8000828:	b292      	uxth	r2, r2
 800082a:	b29b      	uxth	r3, r3
 800082c:	f362 000f 	bfi	r0, r2, #0, #16
 8000830:	f363 401f 	bfi	r0, r3, #16, #16
 8000834:	b004      	add	sp, #16
 8000836:	4770      	bx	lr
 8000838:	b203      	sxth	r3, r0
 800083a:	d1f4      	bne.n	8000826 <MCM_Clarke+0x2e>
 800083c:	e7ef      	b.n	800081e <MCM_Clarke+0x26>
 800083e:	bf00      	nop
 8000840:	ffff8001 	.word	0xffff8001

08000844 <MCM_Trig_Functions>:
 8000844:	f500 4000 	add.w	r0, r0, #32768	; 0x8000
 8000848:	f3c0 1089 	ubfx	r0, r0, #6, #10
 800084c:	f400 7140 	and.w	r1, r0, #768	; 0x300
 8000850:	f5b1 7f80 	cmp.w	r1, #256	; 0x100
 8000854:	b082      	sub	sp, #8
 8000856:	d031      	beq.n	80008bc <MCM_Trig_Functions+0x78>
 8000858:	d921      	bls.n	800089e <MCM_Trig_Functions+0x5a>
 800085a:	f5b1 7f00 	cmp.w	r1, #512	; 0x200
 800085e:	d015      	beq.n	800088c <MCM_Trig_Functions+0x48>
 8000860:	f5b1 7f40 	cmp.w	r1, #768	; 0x300
 8000864:	d109      	bne.n	800087a <MCM_Trig_Functions+0x36>
 8000866:	b2c0      	uxtb	r0, r0
 8000868:	43c3      	mvns	r3, r0
 800086a:	491a      	ldr	r1, [pc, #104]	; (80008d4 <MCM_Trig_Functions+0x90>)
 800086c:	b2db      	uxtb	r3, r3
 800086e:	f831 2010 	ldrh.w	r2, [r1, r0, lsl #1]
 8000872:	f931 3013 	ldrsh.w	r3, [r1, r3, lsl #1]
 8000876:	4252      	negs	r2, r2
 8000878:	b212      	sxth	r2, r2
 800087a:	2000      	movs	r0, #0
 800087c:	b292      	uxth	r2, r2
 800087e:	b29b      	uxth	r3, r3
 8000880:	f362 000f 	bfi	r0, r2, #0, #16
 8000884:	f363 401f 	bfi	r0, r3, #16, #16
 8000888:	b002      	add	sp, #8
 800088a:	4770      	bx	lr
 800088c:	b2c0      	uxtb	r0, r0
 800088e:	43c3      	mvns	r3, r0
 8000890:	4910      	ldr	r1, [pc, #64]	; (80008d4 <MCM_Trig_Functions+0x90>)
 8000892:	b2db      	uxtb	r3, r3
 8000894:	f931 2013 	ldrsh.w	r2, [r1, r3, lsl #1]
 8000898:	f931 3010 	ldrsh.w	r3, [r1, r0, lsl #1]
 800089c:	e7ed      	b.n	800087a <MCM_Trig_Functions+0x36>
 800089e:	2900      	cmp	r1, #0
 80008a0:	d1eb      	bne.n	800087a <MCM_Trig_Functions+0x36>
 80008a2:	b2c0      	uxtb	r0, r0
 80008a4:	43c3      	mvns	r3, r0
 80008a6:	490b      	ldr	r1, [pc, #44]	; (80008d4 <MCM_Trig_Functions+0x90>)
 80008a8:	b2db      	uxtb	r3, r3
 80008aa:	f831 2013 	ldrh.w	r2, [r1, r3, lsl #1]
 80008ae:	f831 3010 	ldrh.w	r3, [r1, r0, lsl #1]
 80008b2:	4252      	negs	r2, r2
 80008b4:	425b      	negs	r3, r3
 80008b6:	b212      	sxth	r2, r2
 80008b8:	b21b      	sxth	r3, r3
 80008ba:	e7de      	b.n	800087a <MCM_Trig_Functions+0x36>
 80008bc:	b2c0      	uxtb	r0, r0
 80008be:	43c3      	mvns	r3, r0
 80008c0:	4a04      	ldr	r2, [pc, #16]	; (80008d4 <MCM_Trig_Functions+0x90>)
 80008c2:	b2db      	uxtb	r3, r3
 80008c4:	f832 3013 	ldrh.w	r3, [r2, r3, lsl #1]
 80008c8:	f932 2010 	ldrsh.w	r2, [r2, r0, lsl #1]
 80008cc:	425b      	negs	r3, r3
 80008ce:	b21b      	sxth	r3, r3
 80008d0:	e7d3      	b.n	800087a <MCM_Trig_Functions+0x36>
 80008d2:	bf00      	nop
 80008d4:	08005e04 	.word	0x08005e04

080008d8 <MCM_Park>:
 80008d8:	b530      	push	{r4, r5, lr}
 80008da:	b085      	sub	sp, #20
 80008dc:	9001      	str	r0, [sp, #4]
 80008de:	b204      	sxth	r4, r0
 80008e0:	1405      	asrs	r5, r0, #16
 80008e2:	4608      	mov	r0, r1
 80008e4:	f7ff ffae 	bl	8000844 <MCM_Trig_Functions>
 80008e8:	b202      	sxth	r2, r0
 80008ea:	fb02 f304 	mul.w	r3, r2, r4
 80008ee:	1400      	asrs	r0, r0, #16
 80008f0:	fb00 3315 	mls	r3, r0, r5, r3
 80008f4:	13db      	asrs	r3, r3, #15
 80008f6:	f5b3 4f00 	cmp.w	r3, #32768	; 0x8000
 80008fa:	da04      	bge.n	8000906 <MCM_Park+0x2e>
 80008fc:	f513 4f00 	cmn.w	r3, #32768	; 0x8000
 8000900:	da1e      	bge.n	8000940 <MCM_Park+0x68>
 8000902:	4b11      	ldr	r3, [pc, #68]	; (8000948 <MCM_Park+0x70>)
 8000904:	e001      	b.n	800090a <MCM_Park+0x32>
 8000906:	f647 73ff 	movw	r3, #32767	; 0x7fff
 800090a:	fb05 f502 	mul.w	r5, r5, r2
 800090e:	fb00 5404 	mla	r4, r0, r4, r5
 8000912:	13e4      	asrs	r4, r4, #15
 8000914:	f5b4 4f00 	cmp.w	r4, #32768	; 0x8000
 8000918:	da04      	bge.n	8000924 <MCM_Park+0x4c>
 800091a:	f514 4f00 	cmn.w	r4, #32768	; 0x8000
 800091e:	da0c      	bge.n	800093a <MCM_Park+0x62>
 8000920:	4c09      	ldr	r4, [pc, #36]	; (8000948 <MCM_Park+0x70>)
 8000922:	e001      	b.n	8000928 <MCM_Park+0x50>
 8000924:	f647 74ff 	movw	r4, #32767	; 0x7fff
 8000928:	2000      	movs	r0, #0
 800092a:	b29b      	uxth	r3, r3
 800092c:	b2a4      	uxth	r4, r4
 800092e:	f363 000f 	bfi	r0, r3, #0, #16
 8000932:	f364 401f 	bfi	r0, r4, #16, #16
 8000936:	b005      	add	sp, #20
 8000938:	bd30      	pop	{r4, r5, pc}
 800093a:	b224      	sxth	r4, r4
 800093c:	d1f4      	bne.n	8000928 <MCM_Park+0x50>
 800093e:	e7ef      	b.n	8000920 <MCM_Park+0x48>
 8000940:	b21b      	sxth	r3, r3
 8000942:	d1e2      	bne.n	800090a <MCM_Park+0x32>
 8000944:	e7dd      	b.n	8000902 <MCM_Park+0x2a>
 8000946:	bf00      	nop
 8000948:	ffff8001 	.word	0xffff8001

0800094c <MCM_Rev_Park>:
 800094c:	b530      	push	{r4, r5, lr}
 800094e:	b085      	sub	sp, #20
 8000950:	9001      	str	r0, [sp, #4]
 8000952:	b204      	sxth	r4, r0
 8000954:	1405      	asrs	r5, r0, #16
 8000956:	4608      	mov	r0, r1
 8000958:	f7ff ff74 	bl	8000844 <MCM_Trig_Functions>
 800095c:	4603      	mov	r3, r0
 800095e:	2000      	movs	r0, #0
 8000960:	141a      	asrs	r2, r3, #16
 8000962:	fb02 f105 	mul.w	r1, r2, r5
 8000966:	b21b      	sxth	r3, r3
 8000968:	fb05 f503 	mul.w	r5, r5, r3
 800096c:	fb03 1304 	mla	r3, r3, r4, r1
 8000970:	fb02 5414 	mls	r4, r2, r4, r5
 8000974:	f3c3 33cf 	ubfx	r3, r3, #15, #16
 8000978:	f3c4 34cf 	ubfx	r4, r4, #15, #16
 800097c:	f363 000f 	bfi	r0, r3, #0, #16
 8000980:	f364 401f 	bfi	r0, r4, #16, #16
 8000984:	b005      	add	sp, #20
 8000986:	bd30      	pop	{r4, r5, pc}

08000988 <FOC_Clear>:
 8000988:	2226      	movs	r2, #38	; 0x26
 800098a:	b5f8      	push	{r3, r4, r5, r6, r7, lr}
 800098c:	2400      	movs	r4, #0
 800098e:	4605      	mov	r5, r0
 8000990:	fb02 f200 	mul.w	r2, r2, r0
 8000994:	4b17      	ldr	r3, [pc, #92]	; (80009f4 <FOC_Clear+0x6c>)
 8000996:	f102 010c 	add.w	r1, r2, #12
 800099a:	18d6      	adds	r6, r2, r3
 800099c:	f102 0716 	add.w	r7, r2, #22
 80009a0:	4815      	ldr	r0, [pc, #84]	; (80009f8 <FOC_Clear+0x70>)
 80009a2:	50d4      	str	r4, [r2, r3]
 80009a4:	18fa      	adds	r2, r7, r3
 80009a6:	6074      	str	r4, [r6, #4]
 80009a8:	50cc      	str	r4, [r1, r3]
 80009aa:	4419      	add	r1, r3
 80009ac:	604c      	str	r4, [r1, #4]
 80009ae:	f850 0025 	ldr.w	r0, [r0, r5, lsl #2]
 80009b2:	83f4      	strh	r4, [r6, #30]
 80009b4:	4621      	mov	r1, r4
 80009b6:	50fc      	str	r4, [r7, r3]
 80009b8:	6054      	str	r4, [r2, #4]
 80009ba:	8434      	strh	r4, [r6, #32]
 80009bc:	f004 f80e 	bl	80049dc <PID_SetIntegralTerm>
 80009c0:	4b0e      	ldr	r3, [pc, #56]	; (80009fc <FOC_Clear+0x74>)
 80009c2:	4621      	mov	r1, r4
 80009c4:	f853 0025 	ldr.w	r0, [r3, r5, lsl #2]
 80009c8:	f004 f808 	bl	80049dc <PID_SetIntegralTerm>
 80009cc:	4b0c      	ldr	r3, [pc, #48]	; (8000a00 <FOC_Clear+0x78>)
 80009ce:	f853 0025 	ldr.w	r0, [r3, r5, lsl #2]
 80009d2:	f004 fe15 	bl	8005600 <STC_Clear>
 80009d6:	4b0b      	ldr	r3, [pc, #44]	; (8000a04 <FOC_Clear+0x7c>)
 80009d8:	f853 0025 	ldr.w	r0, [r3, r5, lsl #2]
 80009dc:	f004 f9e2 	bl	8004da4 <PWMC_SwitchOffPWM>
 80009e0:	4b09      	ldr	r3, [pc, #36]	; (8000a08 <FOC_Clear+0x80>)
 80009e2:	f853 0025 	ldr.w	r0, [r3, r5, lsl #2]
 80009e6:	b118      	cbz	r0, 80009f0 <FOC_Clear+0x68>
 80009e8:	e8bd 40f8 	ldmia.w	sp!, {r3, r4, r5, r6, r7, lr}
 80009ec:	f005 b8c4 	b.w	8005b78 <FF_Clear>
 80009f0:	bdf8      	pop	{r3, r4, r5, r6, r7, pc}
 80009f2:	bf00      	nop
 80009f4:	200007a4 	.word	0x200007a4
 80009f8:	20000798 	.word	0x20000798
 80009fc:	20000854 	.word	0x20000854
 8000a00:	20000858 	.word	0x20000858
 8000a04:	20000790 	.word	0x20000790
 8000a08:	20000788 	.word	0x20000788

08000a0c <MCboot>:
 8000a0c:	e92d 4ff0 	stmdb	sp!, {r4, r5, r6, r7, r8, r9, sl, fp, lr}
 8000a10:	2400      	movs	r4, #0
 8000a12:	b087      	sub	sp, #28
 8000a14:	4f63      	ldr	r7, [pc, #396]	; (8000ba4 <MCboot+0x198>)
 8000a16:	9002      	str	r0, [sp, #8]
 8000a18:	4863      	ldr	r0, [pc, #396]	; (8000ba8 <MCboot+0x19c>)
 8000a1a:	9103      	str	r1, [sp, #12]
 8000a1c:	f004 feaa 	bl	8005774 <STM_Init>
 8000a20:	703c      	strb	r4, [r7, #0]
 8000a22:	4b62      	ldr	r3, [pc, #392]	; (8000bac <MCboot+0x1a0>)
 8000a24:	4f62      	ldr	r7, [pc, #392]	; (8000bb0 <MCboot+0x1a4>)
 8000a26:	4963      	ldr	r1, [pc, #396]	; (8000bb4 <MCboot+0x1a8>)
 8000a28:	4a63      	ldr	r2, [pc, #396]	; (8000bb8 <MCboot+0x1ac>)
 8000a2a:	4618      	mov	r0, r3
 8000a2c:	4e63      	ldr	r6, [pc, #396]	; (8000bbc <MCboot+0x1b0>)
 8000a2e:	603b      	str	r3, [r7, #0]
 8000a30:	4d63      	ldr	r5, [pc, #396]	; (8000bc0 <MCboot+0x1b4>)
 8000a32:	4b64      	ldr	r3, [pc, #400]	; (8000bc4 <MCboot+0x1b8>)
 8000a34:	600d      	str	r5, [r1, #0]
 8000a36:	601a      	str	r2, [r3, #0]
 8000a38:	f004 fb3a 	bl	80050b0 <R3_2_Init>
 8000a3c:	f004 f856 	bl	8004aec <startTimers>
 8000a40:	4630      	mov	r0, r6
 8000a42:	f003 ffb7 	bl	80049b4 <PID_HandleInit>
 8000a46:	4d60      	ldr	r5, [pc, #384]	; (8000bc8 <MCboot+0x1bc>)
 8000a48:	4b60      	ldr	r3, [pc, #384]	; (8000bcc <MCboot+0x1c0>)
 8000a4a:	4f61      	ldr	r7, [pc, #388]	; (8000bd0 <MCboot+0x1c4>)
 8000a4c:	f8df b1a8 	ldr.w	fp, [pc, #424]	; 8000bf8 <MCboot+0x1ec>
 8000a50:	4860      	ldr	r0, [pc, #384]	; (8000bd4 <MCboot+0x1c8>)
 8000a52:	602b      	str	r3, [r5, #0]
 8000a54:	603e      	str	r6, [r7, #0]
 8000a56:	f8df a1a4 	ldr.w	sl, [pc, #420]	; 8000bfc <MCboot+0x1f0>
 8000a5a:	f003 fb21 	bl	80040a0 <HALL_Init>
 8000a5e:	6839      	ldr	r1, [r7, #0]
 8000a60:	4a5c      	ldr	r2, [pc, #368]	; (8000bd4 <MCboot+0x1c8>)
 8000a62:	6828      	ldr	r0, [r5, #0]
 8000a64:	f004 fdb6 	bl	80055d4 <STC_Init>
 8000a68:	4658      	mov	r0, fp
 8000a6a:	f003 ffa3 	bl	80049b4 <PID_HandleInit>
 8000a6e:	4650      	mov	r0, sl
 8000a70:	f003 ffa0 	bl	80049b4 <PID_HandleInit>
 8000a74:	4b58      	ldr	r3, [pc, #352]	; (8000bd8 <MCboot+0x1cc>)
 8000a76:	f8df 8188 	ldr.w	r8, [pc, #392]	; 8000c00 <MCboot+0x1f4>
 8000a7a:	4f58      	ldr	r7, [pc, #352]	; (8000bdc <MCboot+0x1d0>)
 8000a7c:	4e58      	ldr	r6, [pc, #352]	; (8000be0 <MCboot+0x1d4>)
 8000a7e:	4618      	mov	r0, r3
 8000a80:	f8df 9180 	ldr.w	r9, [pc, #384]	; 8000c04 <MCboot+0x1f8>
 8000a84:	f8c8 b000 	str.w	fp, [r8]
 8000a88:	f8c7 a000 	str.w	sl, [r7]
 8000a8c:	6033      	str	r3, [r6, #0]
 8000a8e:	f8df a178 	ldr.w	sl, [pc, #376]	; 8000c08 <MCboot+0x1fc>
 8000a92:	f004 fcff 	bl	8005494 <RVBS_Init>
 8000a96:	4b53      	ldr	r3, [pc, #332]	; (8000be4 <MCboot+0x1d8>)
 8000a98:	6832      	ldr	r2, [r6, #0]
 8000a9a:	4953      	ldr	r1, [pc, #332]	; (8000be8 <MCboot+0x1dc>)
 8000a9c:	4648      	mov	r0, r9
 8000a9e:	f8c3 2110 	str.w	r2, [r3, #272]	; 0x110
 8000aa2:	600b      	str	r3, [r1, #0]
 8000aa4:	f8c3 a10c 	str.w	sl, [r3, #268]	; 0x10c
 8000aa8:	f003 ff3c 	bl	8004924 <NTC_Init>
 8000aac:	4845      	ldr	r0, [pc, #276]	; (8000bc4 <MCboot+0x1b8>)
 8000aae:	f8df b15c 	ldr.w	fp, [pc, #348]	; 8000c0c <MCboot+0x200>
 8000ab2:	6831      	ldr	r1, [r6, #0]
 8000ab4:	f8d8 3000 	ldr.w	r3, [r8]
 8000ab8:	683a      	ldr	r2, [r7, #0]
 8000aba:	6800      	ldr	r0, [r0, #0]
 8000abc:	f8cb 9000 	str.w	r9, [fp]
 8000ac0:	f005 f84e 	bl	8005b60 <FF_Init>
 8000ac4:	4b49      	ldr	r3, [pc, #292]	; (8000bec <MCboot+0x1e0>)
 8000ac6:	4a4a      	ldr	r2, [pc, #296]	; (8000bf0 <MCboot+0x1e4>)
 8000ac8:	4618      	mov	r0, r3
 8000aca:	6013      	str	r3, [r2, #0]
 8000acc:	f004 fd30 	bl	8005530 <REMNG_Init>
 8000ad0:	4620      	mov	r0, r4
 8000ad2:	f7ff ff59 	bl	8000988 <FOC_Clear>
 8000ad6:	f04f 0c01 	mov.w	ip, #1
 8000ada:	6828      	ldr	r0, [r5, #0]
 8000adc:	f88a c024 	strb.w	ip, [sl, #36]	; 0x24
 8000ae0:	f004 fe32 	bl	8005748 <STC_GetDefaultIqdref>
 8000ae4:	4603      	mov	r3, r0
 8000ae6:	f3c3 420f 	ubfx	r2, r3, #16, #16
 8000aea:	f8aa 3010 	strh.w	r3, [sl, #16]
 8000aee:	f8aa 2012 	strh.w	r2, [sl, #18]
 8000af2:	6828      	ldr	r0, [r5, #0]
 8000af4:	f004 fe28 	bl	8005748 <STC_GetDefaultIqdref>
 8000af8:	f8df c114 	ldr.w	ip, [pc, #276]	; 8000c10 <MCboot+0x204>
 8000afc:	f8df 9114 	ldr.w	r9, [pc, #276]	; 8000c14 <MCboot+0x208>
 8000b00:	f3c0 400f 	ubfx	r0, r0, #16, #16
 8000b04:	4653      	mov	r3, sl
 8000b06:	682a      	ldr	r2, [r5, #0]
 8000b08:	4927      	ldr	r1, [pc, #156]	; (8000ba8 <MCboot+0x19c>)
 8000b0a:	f8aa 0014 	strh.w	r0, [sl, #20]
 8000b0e:	4660      	mov	r0, ip
 8000b10:	f8c9 c000 	str.w	ip, [r9]
 8000b14:	f7ff fd8a 	bl	800062c <MCI_Init>
 8000b18:	6828      	ldr	r0, [r5, #0]
 8000b1a:	f8d9 a000 	ldr.w	sl, [r9]
 8000b1e:	f004 fe09 	bl	8005734 <STC_GetMecSpeedRefUnitDefault>
 8000b22:	4622      	mov	r2, r4
 8000b24:	4601      	mov	r1, r0
 8000b26:	4650      	mov	r0, sl
 8000b28:	f7ff fd8c 	bl	8000644 <MCI_ExecSpeedRamp>
 8000b2c:	f8d9 2000 	ldr.w	r2, [r9]
 8000b30:	4b24      	ldr	r3, [pc, #144]	; (8000bc4 <MCboot+0x1b8>)
 8000b32:	9201      	str	r2, [sp, #4]
 8000b34:	4a26      	ldr	r2, [pc, #152]	; (8000bd0 <MCboot+0x1c4>)
 8000b36:	f8d8 c000 	ldr.w	ip, [r8]
 8000b3a:	f8d2 e000 	ldr.w	lr, [r2]
 8000b3e:	4a1c      	ldr	r2, [pc, #112]	; (8000bb0 <MCboot+0x1a4>)
 8000b40:	f8d3 8000 	ldr.w	r8, [r3]
 8000b44:	6811      	ldr	r1, [r2, #0]
 8000b46:	682a      	ldr	r2, [r5, #0]
 8000b48:	9d02      	ldr	r5, [sp, #8]
 8000b4a:	4b2a      	ldr	r3, [pc, #168]	; (8000bf4 <MCboot+0x1e8>)
 8000b4c:	46a9      	mov	r9, r5
 8000b4e:	6838      	ldr	r0, [r7, #0]
 8000b50:	9d01      	ldr	r5, [sp, #4]
 8000b52:	4f25      	ldr	r7, [pc, #148]	; (8000be8 <MCboot+0x1dc>)
 8000b54:	f8db a000 	ldr.w	sl, [fp]
 8000b58:	6836      	ldr	r6, [r6, #0]
 8000b5a:	683f      	ldr	r7, [r7, #0]
 8000b5c:	f8c9 5000 	str.w	r5, [r9]
 8000b60:	e9c3 ec00 	strd	lr, ip, [r3]
 8000b64:	f04f 0c01 	mov.w	ip, #1
 8000b68:	625a      	str	r2, [r3, #36]	; 0x24
 8000b6a:	4a1a      	ldr	r2, [pc, #104]	; (8000bd4 <MCboot+0x1c8>)
 8000b6c:	6098      	str	r0, [r3, #8]
 8000b6e:	e9c3 2406 	strd	r2, r4, [r3, #24]
 8000b72:	4a0d      	ldr	r2, [pc, #52]	; (8000ba8 <MCboot+0x19c>)
 8000b74:	6119      	str	r1, [r3, #16]
 8000b76:	e9c3 a60b 	strd	sl, r6, [r3, #44]	; 0x2c
 8000b7a:	63df      	str	r7, [r3, #60]	; 0x3c
 8000b7c:	f8c3 8044 	str.w	r8, [r3, #68]	; 0x44
 8000b80:	60dc      	str	r4, [r3, #12]
 8000b82:	615c      	str	r4, [r3, #20]
 8000b84:	621c      	str	r4, [r3, #32]
 8000b86:	629a      	str	r2, [r3, #40]	; 0x28
 8000b88:	e9c3 440d 	strd	r4, r4, [r3, #52]	; 0x34
 8000b8c:	641c      	str	r4, [r3, #64]	; 0x40
 8000b8e:	e9c3 4412 	strd	r4, r4, [r3, #72]	; 0x48
 8000b92:	9a03      	ldr	r2, [sp, #12]
 8000b94:	651c      	str	r4, [r3, #80]	; 0x50
 8000b96:	6013      	str	r3, [r2, #0]
 8000b98:	4b02      	ldr	r3, [pc, #8]	; (8000ba4 <MCboot+0x198>)
 8000b9a:	f883 c000 	strb.w	ip, [r3]
 8000b9e:	b007      	add	sp, #28
 8000ba0:	e8bd 8ff0 	ldmia.w	sp!, {r4, r5, r6, r7, r8, r9, sl, fp, pc}
 8000ba4:	200005e4 	.word	0x200005e4
 8000ba8:	20000844 	.word	0x20000844
 8000bac:	2000034c 	.word	0x2000034c
 8000bb0:	20000790 	.word	0x20000790
 8000bb4:	20000820 	.word	0x20000820
 8000bb8:	200000b4 	.word	0x200000b4
 8000bbc:	2000020c 	.word	0x2000020c
 8000bc0:	20000000 	.word	0x20000000
 8000bc4:	20000788 	.word	0x20000788
 8000bc8:	20000858 	.word	0x20000858
 8000bcc:	20000404 	.word	0x20000404
 8000bd0:	20000794 	.word	0x20000794
 8000bd4:	200000ec 	.word	0x200000ec
 8000bd8:	200003dc 	.word	0x200003dc
 8000bdc:	20000854 	.word	0x20000854
 8000be0:	20000824 	.word	0x20000824
 8000be4:	20000238 	.word	0x20000238
 8000be8:	20000850 	.word	0x20000850
 8000bec:	200003c4 	.word	0x200003c4
 8000bf0:	2000084c 	.word	0x2000084c
 8000bf4:	200007cc 	.word	0x200007cc
 8000bf8:	200001e0 	.word	0x200001e0
 8000bfc:	200001b4 	.word	0x200001b4
 8000c00:	20000798 	.word	0x20000798
 8000c04:	20000438 	.word	0x20000438
 8000c08:	200007a4 	.word	0x200007a4
 8000c0c:	2000078c 	.word	0x2000078c
 8000c10:	20000828 	.word	0x20000828
 8000c14:	2000079c 	.word	0x2000079c

08000c18 <FOC_InitAdditionalMethods>:
 8000c18:	4b03      	ldr	r3, [pc, #12]	; (8000c28 <FOC_InitAdditionalMethods+0x10>)
 8000c1a:	f853 0020 	ldr.w	r0, [r3, r0, lsl #2]
 8000c1e:	b108      	cbz	r0, 8000c24 <FOC_InitAdditionalMethods+0xc>
 8000c20:	f005 b846 	b.w	8005cb0 <FF_InitFOCAdditionalMethods>
 8000c24:	4770      	bx	lr
 8000c26:	bf00      	nop
 8000c28:	20000788 	.word	0x20000788

08000c2c <FOC_CalcCurrRef>:
 8000c2c:	b570      	push	{r4, r5, r6, lr}
 8000c2e:	2426      	movs	r4, #38	; 0x26
 8000c30:	4b0e      	ldr	r3, [pc, #56]	; (8000c6c <FOC_CalcCurrRef+0x40>)
 8000c32:	fb04 3400 	mla	r4, r4, r0, r3
 8000c36:	f894 3024 	ldrb.w	r3, [r4, #36]	; 0x24
 8000c3a:	b103      	cbz	r3, 8000c3e <FOC_CalcCurrRef+0x12>
 8000c3c:	bd70      	pop	{r4, r5, r6, pc}
 8000c3e:	4e0c      	ldr	r6, [pc, #48]	; (8000c70 <FOC_CalcCurrRef+0x44>)
 8000c40:	4605      	mov	r5, r0
 8000c42:	f856 0020 	ldr.w	r0, [r6, r0, lsl #2]
 8000c46:	f004 fd45 	bl	80056d4 <STC_CalcTorqueReference>
 8000c4a:	4b0a      	ldr	r3, [pc, #40]	; (8000c74 <FOC_CalcCurrRef+0x48>)
 8000c4c:	83e0      	strh	r0, [r4, #30]
 8000c4e:	f853 3025 	ldr.w	r3, [r3, r5, lsl #2]
 8000c52:	8220      	strh	r0, [r4, #16]
 8000c54:	3410      	adds	r4, #16
 8000c56:	2b00      	cmp	r3, #0
 8000c58:	d0f0      	beq.n	8000c3c <FOC_CalcCurrRef+0x10>
 8000c5a:	f856 2025 	ldr.w	r2, [r6, r5, lsl #2]
 8000c5e:	6821      	ldr	r1, [r4, #0]
 8000c60:	4618      	mov	r0, r3
 8000c62:	e8bd 4070 	ldmia.w	sp!, {r4, r5, r6, lr}
 8000c66:	f004 bf8b 	b.w	8005b80 <FF_VqdffComputation>
 8000c6a:	bf00      	nop
 8000c6c:	200007a4 	.word	0x200007a4
 8000c70:	20000858 	.word	0x20000858
 8000c74:	20000788 	.word	0x20000788

08000c78 <TSK_SetChargeBootCapDelayM1>:
 8000c78:	4b01      	ldr	r3, [pc, #4]	; (8000c80 <TSK_SetChargeBootCapDelayM1+0x8>)
 8000c7a:	8018      	strh	r0, [r3, #0]
 8000c7c:	4770      	bx	lr
 8000c7e:	bf00      	nop
 8000c80:	200005e6 	.word	0x200005e6

08000c84 <TSK_ChargeBootCapDelayHasElapsedM1>:
 8000c84:	4b03      	ldr	r3, [pc, #12]	; (8000c94 <TSK_ChargeBootCapDelayHasElapsedM1+0x10>)
 8000c86:	8818      	ldrh	r0, [r3, #0]
 8000c88:	b280      	uxth	r0, r0
 8000c8a:	fab0 f080 	clz	r0, r0
 8000c8e:	0940      	lsrs	r0, r0, #5
 8000c90:	4770      	bx	lr
 8000c92:	bf00      	nop
 8000c94:	200005e6 	.word	0x200005e6

08000c98 <TSK_SetStopPermanencyTimeM1>:
 8000c98:	4b01      	ldr	r3, [pc, #4]	; (8000ca0 <TSK_SetStopPermanencyTimeM1+0x8>)
 8000c9a:	8018      	strh	r0, [r3, #0]
 8000c9c:	4770      	bx	lr
 8000c9e:	bf00      	nop
 8000ca0:	200005ea 	.word	0x200005ea

08000ca4 <TSK_StopPermanencyTimeHasElapsedM1>:
 8000ca4:	4b03      	ldr	r3, [pc, #12]	; (8000cb4 <TSK_StopPermanencyTimeHasElapsedM1+0x10>)
 8000ca6:	8818      	ldrh	r0, [r3, #0]
 8000ca8:	b280      	uxth	r0, r0
 8000caa:	fab0 f080 	clz	r0, r0
 8000cae:	0940      	lsrs	r0, r0, #5
 8000cb0:	4770      	bx	lr
 8000cb2:	bf00      	nop
 8000cb4:	200005ea 	.word	0x200005ea

08000cb8 <TSK_MediumFrequencyTaskM1>:
 8000cb8:	2300      	movs	r3, #0
 8000cba:	b530      	push	{r4, r5, lr}
 8000cbc:	b083      	sub	sp, #12
 8000cbe:	a902      	add	r1, sp, #8
 8000cc0:	f821 3d02 	strh.w	r3, [r1, #-2]!
 8000cc4:	484b      	ldr	r0, [pc, #300]	; (8000df4 <TSK_MediumFrequencyTaskM1+0x13c>)
 8000cc6:	f003 fb43 	bl	8004350 <HALL_CalcAvrgMecSpeedUnit>
 8000cca:	4c4b      	ldr	r4, [pc, #300]	; (8000df8 <TSK_MediumFrequencyTaskM1+0x140>)
 8000ccc:	4605      	mov	r5, r0
 8000cce:	6820      	ldr	r0, [r4, #0]
 8000cd0:	f003 fed4 	bl	8004a7c <PQD_CalcElMotorPower>
 8000cd4:	4849      	ldr	r0, [pc, #292]	; (8000dfc <TSK_MediumFrequencyTaskM1+0x144>)
 8000cd6:	f004 fde3 	bl	80058a0 <STM_GetState>
 8000cda:	3803      	subs	r0, #3
 8000cdc:	280f      	cmp	r0, #15
 8000cde:	d80d      	bhi.n	8000cfc <TSK_MediumFrequencyTaskM1+0x44>
 8000ce0:	e8df f000 	tbb	[pc, r0]
 8000ce4:	43302b1f 	.word	0x43302b1f
 8000ce8:	0c086552 	.word	0x0c086552
 8000cec:	0c0c0c0c 	.word	0x0c0c0c0c
 8000cf0:	0e7c6e0c 	.word	0x0e7c6e0c
 8000cf4:	2100      	movs	r1, #0
 8000cf6:	4841      	ldr	r0, [pc, #260]	; (8000dfc <TSK_MediumFrequencyTaskM1+0x144>)
 8000cf8:	f004 fd5e 	bl	80057b8 <STM_NextState>
 8000cfc:	b003      	add	sp, #12
 8000cfe:	bd30      	pop	{r4, r5, pc}
 8000d00:	483c      	ldr	r0, [pc, #240]	; (8000df4 <TSK_MediumFrequencyTaskM1+0x13c>)
 8000d02:	f003 fa59 	bl	80041b8 <HALL_Clear>
 8000d06:	2104      	movs	r1, #4
 8000d08:	483c      	ldr	r0, [pc, #240]	; (8000dfc <TSK_MediumFrequencyTaskM1+0x144>)
 8000d0a:	f004 fd55 	bl	80057b8 <STM_NextState>
 8000d0e:	2800      	cmp	r0, #0
 8000d10:	d0f4      	beq.n	8000cfc <TSK_MediumFrequencyTaskM1+0x44>
 8000d12:	2000      	movs	r0, #0
 8000d14:	f7ff fe38 	bl	8000988 <FOC_Clear>
 8000d18:	4b39      	ldr	r3, [pc, #228]	; (8000e00 <TSK_MediumFrequencyTaskM1+0x148>)
 8000d1a:	6818      	ldr	r0, [r3, #0]
 8000d1c:	f004 fa3c 	bl	8005198 <R3_2_SwitchOnPWM>
 8000d20:	e7ec      	b.n	8000cfc <TSK_MediumFrequencyTaskM1+0x44>
 8000d22:	4b37      	ldr	r3, [pc, #220]	; (8000e00 <TSK_MediumFrequencyTaskM1+0x148>)
 8000d24:	6818      	ldr	r0, [r3, #0]
 8000d26:	f004 fa09 	bl	800513c <R3_2_TurnOnLowSides>
 8000d2a:	2014      	movs	r0, #20
 8000d2c:	f7ff ffa4 	bl	8000c78 <TSK_SetChargeBootCapDelayM1>
 8000d30:	2110      	movs	r1, #16
 8000d32:	4832      	ldr	r0, [pc, #200]	; (8000dfc <TSK_MediumFrequencyTaskM1+0x144>)
 8000d34:	f004 fd40 	bl	80057b8 <STM_NextState>
 8000d38:	e7e0      	b.n	8000cfc <TSK_MediumFrequencyTaskM1+0x44>
 8000d3a:	2105      	movs	r1, #5
 8000d3c:	482f      	ldr	r0, [pc, #188]	; (8000dfc <TSK_MediumFrequencyTaskM1+0x144>)
 8000d3e:	f004 fd3b 	bl	80057b8 <STM_NextState>
 8000d42:	e7db      	b.n	8000cfc <TSK_MediumFrequencyTaskM1+0x44>
 8000d44:	2000      	movs	r0, #0
 8000d46:	f7ff ff67 	bl	8000c18 <FOC_InitAdditionalMethods>
 8000d4a:	2000      	movs	r0, #0
 8000d4c:	f7ff ff6e 	bl	8000c2c <FOC_CalcCurrRef>
 8000d50:	2106      	movs	r1, #6
 8000d52:	482a      	ldr	r0, [pc, #168]	; (8000dfc <TSK_MediumFrequencyTaskM1+0x144>)
 8000d54:	f004 fd30 	bl	80057b8 <STM_NextState>
 8000d58:	4b2a      	ldr	r3, [pc, #168]	; (8000e04 <TSK_MediumFrequencyTaskM1+0x14c>)
 8000d5a:	6818      	ldr	r0, [r3, #0]
 8000d5c:	f004 fd02 	bl	8005764 <STC_ForceSpeedReferenceToCurrentSpeed>
 8000d60:	4b29      	ldr	r3, [pc, #164]	; (8000e08 <TSK_MediumFrequencyTaskM1+0x150>)
 8000d62:	6818      	ldr	r0, [r3, #0]
 8000d64:	f7ff fca6 	bl	80006b4 <MCI_ExecBufferedCommands>
 8000d68:	e7c8      	b.n	8000cfc <TSK_MediumFrequencyTaskM1+0x44>
 8000d6a:	4b27      	ldr	r3, [pc, #156]	; (8000e08 <TSK_MediumFrequencyTaskM1+0x150>)
 8000d6c:	6818      	ldr	r0, [r3, #0]
 8000d6e:	f7ff fca1 	bl	80006b4 <MCI_ExecBufferedCommands>
 8000d72:	2000      	movs	r0, #0
 8000d74:	f7ff ff5a 	bl	8000c2c <FOC_CalcCurrRef>
 8000d78:	2d00      	cmp	r5, #0
 8000d7a:	d1bf      	bne.n	8000cfc <TSK_MediumFrequencyTaskM1+0x44>
 8000d7c:	462a      	mov	r2, r5
 8000d7e:	2120      	movs	r1, #32
 8000d80:	481e      	ldr	r0, [pc, #120]	; (8000dfc <TSK_MediumFrequencyTaskM1+0x144>)
 8000d82:	f004 fcfd 	bl	8005780 <STM_FaultProcessing>
 8000d86:	e7b9      	b.n	8000cfc <TSK_MediumFrequencyTaskM1+0x44>
 8000d88:	4b1d      	ldr	r3, [pc, #116]	; (8000e00 <TSK_MediumFrequencyTaskM1+0x148>)
 8000d8a:	6818      	ldr	r0, [r3, #0]
 8000d8c:	f004 fa4c 	bl	8005228 <R3_2_SwitchOffPWM>
 8000d90:	2000      	movs	r0, #0
 8000d92:	f7ff fdf9 	bl	8000988 <FOC_Clear>
 8000d96:	6820      	ldr	r0, [r4, #0]
 8000d98:	f003 fd84 	bl	80048a4 <MPM_Clear>
 8000d9c:	f44f 7048 	mov.w	r0, #800	; 0x320
 8000da0:	f7ff ff7a 	bl	8000c98 <TSK_SetStopPermanencyTimeM1>
 8000da4:	2108      	movs	r1, #8
 8000da6:	4815      	ldr	r0, [pc, #84]	; (8000dfc <TSK_MediumFrequencyTaskM1+0x144>)
 8000da8:	f004 fd06 	bl	80057b8 <STM_NextState>
 8000dac:	e7a6      	b.n	8000cfc <TSK_MediumFrequencyTaskM1+0x44>
 8000dae:	f7ff ff79 	bl	8000ca4 <TSK_StopPermanencyTimeHasElapsedM1>
 8000db2:	2800      	cmp	r0, #0
 8000db4:	d0a2      	beq.n	8000cfc <TSK_MediumFrequencyTaskM1+0x44>
 8000db6:	2109      	movs	r1, #9
 8000db8:	4810      	ldr	r0, [pc, #64]	; (8000dfc <TSK_MediumFrequencyTaskM1+0x144>)
 8000dba:	f004 fcfd 	bl	80057b8 <STM_NextState>
 8000dbe:	e79d      	b.n	8000cfc <TSK_MediumFrequencyTaskM1+0x44>
 8000dc0:	f7ff ff60 	bl	8000c84 <TSK_ChargeBootCapDelayHasElapsedM1>
 8000dc4:	2800      	cmp	r0, #0
 8000dc6:	d099      	beq.n	8000cfc <TSK_MediumFrequencyTaskM1+0x44>
 8000dc8:	4b0d      	ldr	r3, [pc, #52]	; (8000e00 <TSK_MediumFrequencyTaskM1+0x148>)
 8000dca:	2100      	movs	r1, #0
 8000dcc:	6818      	ldr	r0, [r3, #0]
 8000dce:	f003 ffeb 	bl	8004da8 <PWMC_CurrentReadingCalibr>
 8000dd2:	2111      	movs	r1, #17
 8000dd4:	4809      	ldr	r0, [pc, #36]	; (8000dfc <TSK_MediumFrequencyTaskM1+0x144>)
 8000dd6:	f004 fcef 	bl	80057b8 <STM_NextState>
 8000dda:	e78f      	b.n	8000cfc <TSK_MediumFrequencyTaskM1+0x44>
 8000ddc:	4b08      	ldr	r3, [pc, #32]	; (8000e00 <TSK_MediumFrequencyTaskM1+0x148>)
 8000dde:	2101      	movs	r1, #1
 8000de0:	6818      	ldr	r0, [r3, #0]
 8000de2:	f003 ffe1 	bl	8004da8 <PWMC_CurrentReadingCalibr>
 8000de6:	2800      	cmp	r0, #0
 8000de8:	d088      	beq.n	8000cfc <TSK_MediumFrequencyTaskM1+0x44>
 8000dea:	2112      	movs	r1, #18
 8000dec:	4803      	ldr	r0, [pc, #12]	; (8000dfc <TSK_MediumFrequencyTaskM1+0x144>)
 8000dee:	f004 fce3 	bl	80057b8 <STM_NextState>
 8000df2:	e783      	b.n	8000cfc <TSK_MediumFrequencyTaskM1+0x44>
 8000df4:	200000ec 	.word	0x200000ec
 8000df8:	20000850 	.word	0x20000850
 8000dfc:	20000844 	.word	0x20000844
 8000e00:	20000790 	.word	0x20000790
 8000e04:	20000858 	.word	0x20000858
 8000e08:	2000079c 	.word	0x2000079c

08000e0c <MC_Scheduler>:
 8000e0c:	b538      	push	{r3, r4, r5, lr}
 8000e0e:	4b12      	ldr	r3, [pc, #72]	; (8000e58 <MC_Scheduler+0x4c>)
 8000e10:	781c      	ldrb	r4, [r3, #0]
 8000e12:	2c01      	cmp	r4, #1
 8000e14:	d000      	beq.n	8000e18 <MC_Scheduler+0xc>
 8000e16:	bd38      	pop	{r3, r4, r5, pc}
 8000e18:	4d10      	ldr	r5, [pc, #64]	; (8000e5c <MC_Scheduler+0x50>)
 8000e1a:	882b      	ldrh	r3, [r5, #0]
 8000e1c:	b29b      	uxth	r3, r3
 8000e1e:	b1b3      	cbz	r3, 8000e4e <MC_Scheduler+0x42>
 8000e20:	882b      	ldrh	r3, [r5, #0]
 8000e22:	3b01      	subs	r3, #1
 8000e24:	b29b      	uxth	r3, r3
 8000e26:	802b      	strh	r3, [r5, #0]
 8000e28:	4a0d      	ldr	r2, [pc, #52]	; (8000e60 <MC_Scheduler+0x54>)
 8000e2a:	8813      	ldrh	r3, [r2, #0]
 8000e2c:	b29b      	uxth	r3, r3
 8000e2e:	b94b      	cbnz	r3, 8000e44 <MC_Scheduler+0x38>
 8000e30:	4a0c      	ldr	r2, [pc, #48]	; (8000e64 <MC_Scheduler+0x58>)
 8000e32:	8813      	ldrh	r3, [r2, #0]
 8000e34:	b29b      	uxth	r3, r3
 8000e36:	2b00      	cmp	r3, #0
 8000e38:	d0ed      	beq.n	8000e16 <MC_Scheduler+0xa>
 8000e3a:	8813      	ldrh	r3, [r2, #0]
 8000e3c:	3b01      	subs	r3, #1
 8000e3e:	b29b      	uxth	r3, r3
 8000e40:	8013      	strh	r3, [r2, #0]
 8000e42:	bd38      	pop	{r3, r4, r5, pc}
 8000e44:	8813      	ldrh	r3, [r2, #0]
 8000e46:	3b01      	subs	r3, #1
 8000e48:	b29b      	uxth	r3, r3
 8000e4a:	8013      	strh	r3, [r2, #0]
 8000e4c:	e7f0      	b.n	8000e30 <MC_Scheduler+0x24>
 8000e4e:	f7ff ff33 	bl	8000cb8 <TSK_MediumFrequencyTaskM1>
 8000e52:	802c      	strh	r4, [r5, #0]
 8000e54:	e7e8      	b.n	8000e28 <MC_Scheduler+0x1c>
 8000e56:	bf00      	nop
 8000e58:	200005e4 	.word	0x200005e4
 8000e5c:	200005e8 	.word	0x200005e8
 8000e60:	200005e6 	.word	0x200005e6
 8000e64:	200005ea 	.word	0x200005ea

08000e68 <TSK_HighFrequencyTask>:
 8000e68:	e92d 43f0 	stmdb	sp!, {r4, r5, r6, r7, r8, r9, lr}
 8000e6c:	4838      	ldr	r0, [pc, #224]	; (8000f50 <TSK_HighFrequencyTask+0xe8>)
 8000e6e:	b087      	sub	sp, #28
 8000e70:	f003 fa4e 	bl	8004310 <HALL_CalcElAngle>
 8000e74:	4b37      	ldr	r3, [pc, #220]	; (8000f54 <TSK_HighFrequencyTask+0xec>)
 8000e76:	f8df 80f8 	ldr.w	r8, [pc, #248]	; 8000f70 <TSK_HighFrequencyTask+0x108>
 8000e7a:	6818      	ldr	r0, [r3, #0]
 8000e7c:	f004 fbbe 	bl	80055fc <STC_GetSpeedSensor>
 8000e80:	4605      	mov	r5, r0
 8000e82:	f004 fb5d 	bl	8005540 <SPD_GetElAngle>
 8000e86:	a903      	add	r1, sp, #12
 8000e88:	4606      	mov	r6, r0
 8000e8a:	f8d8 0000 	ldr.w	r0, [r8]
 8000e8e:	f003 fe81 	bl	8004b94 <PWMC_GetPhaseCurrents>
 8000e92:	9803      	ldr	r0, [sp, #12]
 8000e94:	f7ff fcb0 	bl	80007f8 <MCM_Clarke>
 8000e98:	4631      	mov	r1, r6
 8000e9a:	9004      	str	r0, [sp, #16]
 8000e9c:	f7ff fd1c 	bl	80008d8 <MCM_Park>
 8000ea0:	4603      	mov	r3, r0
 8000ea2:	4c2d      	ldr	r4, [pc, #180]	; (8000f58 <TSK_HighFrequencyTask+0xf0>)
 8000ea4:	4a2d      	ldr	r2, [pc, #180]	; (8000f5c <TSK_HighFrequencyTask+0xf4>)
 8000ea6:	f9b4 0010 	ldrsh.w	r0, [r4, #16]
 8000eaa:	b219      	sxth	r1, r3
 8000eac:	1a41      	subs	r1, r0, r1
 8000eae:	6810      	ldr	r0, [r2, #0]
 8000eb0:	9301      	str	r3, [sp, #4]
 8000eb2:	f003 fd9f 	bl	80049f4 <PI_Controller>
 8000eb6:	f9bd 2006 	ldrsh.w	r2, [sp, #6]
 8000eba:	4b29      	ldr	r3, [pc, #164]	; (8000f60 <TSK_HighFrequencyTask+0xf8>)
 8000ebc:	f9b4 1012 	ldrsh.w	r1, [r4, #18]
 8000ec0:	4681      	mov	r9, r0
 8000ec2:	1a89      	subs	r1, r1, r2
 8000ec4:	6818      	ldr	r0, [r3, #0]
 8000ec6:	f003 fd95 	bl	80049f4 <PI_Controller>
 8000eca:	4f26      	ldr	r7, [pc, #152]	; (8000f64 <TSK_HighFrequencyTask+0xfc>)
 8000ecc:	f8ad 9008 	strh.w	r9, [sp, #8]
 8000ed0:	683b      	ldr	r3, [r7, #0]
 8000ed2:	f8ad 000a 	strh.w	r0, [sp, #10]
 8000ed6:	9902      	ldr	r1, [sp, #8]
 8000ed8:	4618      	mov	r0, r3
 8000eda:	f004 feab 	bl	8005c34 <FF_VqdConditioning>
 8000ede:	4b22      	ldr	r3, [pc, #136]	; (8000f68 <TSK_HighFrequencyTask+0x100>)
 8000ee0:	4601      	mov	r1, r0
 8000ee2:	6818      	ldr	r0, [r3, #0]
 8000ee4:	f003 f87e 	bl	8003fe4 <Circle_Limitation>
 8000ee8:	4603      	mov	r3, r0
 8000eea:	4628      	mov	r0, r5
 8000eec:	fa0f f983 	sxth.w	r9, r3
 8000ef0:	141d      	asrs	r5, r3, #16
 8000ef2:	9302      	str	r3, [sp, #8]
 8000ef4:	f004 fb30 	bl	8005558 <SPD_GetInstElSpeedDpp>
 8000ef8:	4631      	mov	r1, r6
 8000efa:	9802      	ldr	r0, [sp, #8]
 8000efc:	f7ff fd26 	bl	800094c <MCM_Rev_Park>
 8000f00:	4603      	mov	r3, r0
 8000f02:	f8d8 0000 	ldr.w	r0, [r8]
 8000f06:	4619      	mov	r1, r3
 8000f08:	9305      	str	r3, [sp, #20]
 8000f0a:	f003 fe45 	bl	8004b98 <PWMC_SetPhaseVoltage>
 8000f0e:	4680      	mov	r8, r0
 8000f10:	9803      	ldr	r0, [sp, #12]
 8000f12:	f8a4 9016 	strh.w	r9, [r4, #22]
 8000f16:	6020      	str	r0, [r4, #0]
 8000f18:	9804      	ldr	r0, [sp, #16]
 8000f1a:	8325      	strh	r5, [r4, #24]
 8000f1c:	6060      	str	r0, [r4, #4]
 8000f1e:	9801      	ldr	r0, [sp, #4]
 8000f20:	8426      	strh	r6, [r4, #32]
 8000f22:	60e0      	str	r0, [r4, #12]
 8000f24:	9805      	ldr	r0, [sp, #20]
 8000f26:	f8c4 001a 	str.w	r0, [r4, #26]
 8000f2a:	6838      	ldr	r0, [r7, #0]
 8000f2c:	f004 feaa 	bl	8005c84 <FF_DataProcess>
 8000f30:	f1b8 0f01 	cmp.w	r8, #1
 8000f34:	d003      	beq.n	8000f3e <TSK_HighFrequencyTask+0xd6>
 8000f36:	2000      	movs	r0, #0
 8000f38:	b007      	add	sp, #28
 8000f3a:	e8bd 83f0 	ldmia.w	sp!, {r4, r5, r6, r7, r8, r9, pc}
 8000f3e:	4641      	mov	r1, r8
 8000f40:	2200      	movs	r2, #0
 8000f42:	480a      	ldr	r0, [pc, #40]	; (8000f6c <TSK_HighFrequencyTask+0x104>)
 8000f44:	f004 fc1c 	bl	8005780 <STM_FaultProcessing>
 8000f48:	2000      	movs	r0, #0
 8000f4a:	b007      	add	sp, #28
 8000f4c:	e8bd 83f0 	ldmia.w	sp!, {r4, r5, r6, r7, r8, r9, pc}
 8000f50:	200000ec 	.word	0x200000ec
 8000f54:	20000858 	.word	0x20000858
 8000f58:	200007a4 	.word	0x200007a4
 8000f5c:	20000798 	.word	0x20000798
 8000f60:	20000854 	.word	0x20000854
 8000f64:	20000788 	.word	0x20000788
 8000f68:	20000820 	.word	0x20000820
 8000f6c:	20000844 	.word	0x20000844
 8000f70:	20000790 	.word	0x20000790

08000f74 <TSK_SafetyTask_PWMOFF>:
 8000f74:	b5f8      	push	{r3, r4, r5, r6, r7, lr}
 8000f76:	4b20      	ldr	r3, [pc, #128]	; (8000ff8 <TSK_SafetyTask_PWMOFF+0x84>)
 8000f78:	4605      	mov	r5, r0
 8000f7a:	f853 0020 	ldr.w	r0, [r3, r0, lsl #2]
 8000f7e:	f003 fce3 	bl	8004948 <NTC_CalcAvTemp>
 8000f82:	4f1e      	ldr	r7, [pc, #120]	; (8000ffc <TSK_SafetyTask_PWMOFF+0x88>)
 8000f84:	4604      	mov	r4, r0
 8000f86:	f857 0025 	ldr.w	r0, [r7, r5, lsl #2]
 8000f8a:	f003 ff37 	bl	8004dfc <PWMC_CheckOverCurrent>
 8000f8e:	f004 040e 	and.w	r4, r4, #14
 8000f92:	4304      	orrs	r4, r0
 8000f94:	b2a4      	uxth	r4, r4
 8000f96:	b335      	cbz	r5, 8000fe6 <TSK_SafetyTask_PWMOFF+0x72>
 8000f98:	43e2      	mvns	r2, r4
 8000f9a:	4e19      	ldr	r6, [pc, #100]	; (8001000 <TSK_SafetyTask_PWMOFF+0x8c>)
 8000f9c:	eb05 0345 	add.w	r3, r5, r5, lsl #1
 8000fa0:	eb06 0643 	add.w	r6, r6, r3, lsl #1
 8000fa4:	b292      	uxth	r2, r2
 8000fa6:	4621      	mov	r1, r4
 8000fa8:	4630      	mov	r0, r6
 8000faa:	f004 fbe9 	bl	8005780 <STM_FaultProcessing>
 8000fae:	4630      	mov	r0, r6
 8000fb0:	f004 fc76 	bl	80058a0 <STM_GetState>
 8000fb4:	280a      	cmp	r0, #10
 8000fb6:	d008      	beq.n	8000fca <TSK_SafetyTask_PWMOFF+0x56>
 8000fb8:	280b      	cmp	r0, #11
 8000fba:	d105      	bne.n	8000fc8 <TSK_SafetyTask_PWMOFF+0x54>
 8000fbc:	f857 0025 	ldr.w	r0, [r7, r5, lsl #2]
 8000fc0:	e8bd 40f8 	ldmia.w	sp!, {r3, r4, r5, r6, r7, lr}
 8000fc4:	f003 beee 	b.w	8004da4 <PWMC_SwitchOffPWM>
 8000fc8:	bdf8      	pop	{r3, r4, r5, r6, r7, pc}
 8000fca:	f857 0025 	ldr.w	r0, [r7, r5, lsl #2]
 8000fce:	f003 fee9 	bl	8004da4 <PWMC_SwitchOffPWM>
 8000fd2:	4628      	mov	r0, r5
 8000fd4:	f7ff fcd8 	bl	8000988 <FOC_Clear>
 8000fd8:	4b0a      	ldr	r3, [pc, #40]	; (8001004 <TSK_SafetyTask_PWMOFF+0x90>)
 8000fda:	f853 0025 	ldr.w	r0, [r3, r5, lsl #2]
 8000fde:	e8bd 40f8 	ldmia.w	sp!, {r3, r4, r5, r6, r7, lr}
 8000fe2:	f003 bc5f 	b.w	80048a4 <MPM_Clear>
 8000fe6:	4b08      	ldr	r3, [pc, #32]	; (8001008 <TSK_SafetyTask_PWMOFF+0x94>)
 8000fe8:	6818      	ldr	r0, [r3, #0]
 8000fea:	f004 fa6b 	bl	80054c4 <RVBS_CalcAvVbus>
 8000fee:	f000 000e 	and.w	r0, r0, #14
 8000ff2:	4304      	orrs	r4, r0
 8000ff4:	e7d0      	b.n	8000f98 <TSK_SafetyTask_PWMOFF+0x24>
 8000ff6:	bf00      	nop
 8000ff8:	2000078c 	.word	0x2000078c
 8000ffc:	20000790 	.word	0x20000790
 8001000:	20000844 	.word	0x20000844
 8001004:	20000850 	.word	0x20000850
 8001008:	20000824 	.word	0x20000824

0800100c <TSK_SafetyTask>:
 800100c:	b508      	push	{r3, lr}
 800100e:	4b06      	ldr	r3, [pc, #24]	; (8001028 <TSK_SafetyTask+0x1c>)
 8001010:	781b      	ldrb	r3, [r3, #0]
 8001012:	2b01      	cmp	r3, #1
 8001014:	d000      	beq.n	8001018 <TSK_SafetyTask+0xc>
 8001016:	bd08      	pop	{r3, pc}
 8001018:	2000      	movs	r0, #0
 800101a:	f7ff ffab 	bl	8000f74 <TSK_SafetyTask_PWMOFF>
 800101e:	e8bd 4008 	ldmia.w	sp!, {r3, lr}
 8001022:	f000 bcdb 	b.w	80019dc <RCM_ExecUserConv>
 8001026:	bf00      	nop
 8001028:	200005e4 	.word	0x200005e4

0800102c <MC_RunMotorControlTasks>:
 800102c:	b508      	push	{r3, lr}
 800102e:	4b06      	ldr	r3, [pc, #24]	; (8001048 <MC_RunMotorControlTasks+0x1c>)
 8001030:	781b      	ldrb	r3, [r3, #0]
 8001032:	b903      	cbnz	r3, 8001036 <MC_RunMotorControlTasks+0xa>
 8001034:	bd08      	pop	{r3, pc}
 8001036:	f7ff fee9 	bl	8000e0c <MC_Scheduler>
 800103a:	f7ff ffe7 	bl	800100c <TSK_SafetyTask>
 800103e:	e8bd 4008 	ldmia.w	sp!, {r3, lr}
 8001042:	f000 bf87 	b.w	8001f54 <UI_Scheduler>
 8001046:	bf00      	nop
 8001048:	200005e4 	.word	0x200005e4

0800104c <TSK_HardwareFaultTask>:
 800104c:	b508      	push	{r3, lr}
 800104e:	4b05      	ldr	r3, [pc, #20]	; (8001064 <TSK_HardwareFaultTask+0x18>)
 8001050:	6818      	ldr	r0, [r3, #0]
 8001052:	f004 f8e9 	bl	8005228 <R3_2_SwitchOffPWM>
 8001056:	e8bd 4008 	ldmia.w	sp!, {r3, lr}
 800105a:	2200      	movs	r2, #0
 800105c:	2180      	movs	r1, #128	; 0x80
 800105e:	4802      	ldr	r0, [pc, #8]	; (8001068 <TSK_HardwareFaultTask+0x1c>)
 8001060:	f004 bb8e 	b.w	8005780 <STM_FaultProcessing>
 8001064:	20000790 	.word	0x20000790
 8001068:	20000844 	.word	0x20000844

0800106c <mc_lock_pins>:
 800106c:	f44f 3180 	mov.w	r1, #65536	; 0x10000
 8001070:	2000      	movs	r0, #0
 8001072:	e92d 43f0 	stmdb	sp!, {r4, r5, r6, r7, r8, r9, lr}
 8001076:	f04f 1401 	mov.w	r4, #65537	; 0x10001
 800107a:	f04f 0801 	mov.w	r8, #1
 800107e:	f04f 0e02 	mov.w	lr, #2
 8001082:	f04f 0c40 	mov.w	ip, #64	; 0x40
 8001086:	2704      	movs	r7, #4
 8001088:	4a33      	ldr	r2, [pc, #204]	; (8001158 <mc_lock_pins+0xec>)
 800108a:	2680      	movs	r6, #128	; 0x80
 800108c:	6191      	str	r1, [r2, #24]
 800108e:	6190      	str	r0, [r2, #24]
 8001090:	6191      	str	r1, [r2, #24]
 8001092:	6993      	ldr	r3, [r2, #24]
 8001094:	b08f      	sub	sp, #60	; 0x3c
 8001096:	930d      	str	r3, [sp, #52]	; 0x34
 8001098:	9b0d      	ldr	r3, [sp, #52]	; 0x34
 800109a:	2520      	movs	r5, #32
 800109c:	6191      	str	r1, [r2, #24]
 800109e:	6190      	str	r0, [r2, #24]
 80010a0:	6191      	str	r1, [r2, #24]
 80010a2:	6993      	ldr	r3, [r2, #24]
 80010a4:	930c      	str	r3, [sp, #48]	; 0x30
 80010a6:	9b0c      	ldr	r3, [sp, #48]	; 0x30
 80010a8:	6191      	str	r1, [r2, #24]
 80010aa:	6190      	str	r0, [r2, #24]
 80010ac:	6191      	str	r1, [r2, #24]
 80010ae:	6993      	ldr	r3, [r2, #24]
 80010b0:	930b      	str	r3, [sp, #44]	; 0x2c
 80010b2:	4b2a      	ldr	r3, [pc, #168]	; (800115c <mc_lock_pins+0xf0>)
 80010b4:	f8dd 902c 	ldr.w	r9, [sp, #44]	; 0x2c
 80010b8:	619c      	str	r4, [r3, #24]
 80010ba:	f8c3 8018 	str.w	r8, [r3, #24]
 80010be:	619c      	str	r4, [r3, #24]
 80010c0:	699c      	ldr	r4, [r3, #24]
 80010c2:	940a      	str	r4, [sp, #40]	; 0x28
 80010c4:	4c26      	ldr	r4, [pc, #152]	; (8001160 <mc_lock_pins+0xf4>)
 80010c6:	f8dd 8028 	ldr.w	r8, [sp, #40]	; 0x28
 80010ca:	619c      	str	r4, [r3, #24]
 80010cc:	f8c3 e018 	str.w	lr, [r3, #24]
 80010d0:	619c      	str	r4, [r3, #24]
 80010d2:	699c      	ldr	r4, [r3, #24]
 80010d4:	9409      	str	r4, [sp, #36]	; 0x24
 80010d6:	4c23      	ldr	r4, [pc, #140]	; (8001164 <mc_lock_pins+0xf8>)
 80010d8:	f8dd e024 	ldr.w	lr, [sp, #36]	; 0x24
 80010dc:	6194      	str	r4, [r2, #24]
 80010de:	f8c2 c018 	str.w	ip, [r2, #24]
 80010e2:	6194      	str	r4, [r2, #24]
 80010e4:	6994      	ldr	r4, [r2, #24]
 80010e6:	9408      	str	r4, [sp, #32]
 80010e8:	4c1f      	ldr	r4, [pc, #124]	; (8001168 <mc_lock_pins+0xfc>)
 80010ea:	f8dd c020 	ldr.w	ip, [sp, #32]
 80010ee:	619c      	str	r4, [r3, #24]
 80010f0:	619f      	str	r7, [r3, #24]
 80010f2:	619c      	str	r4, [r3, #24]
 80010f4:	699f      	ldr	r7, [r3, #24]
 80010f6:	347c      	adds	r4, #124	; 0x7c
 80010f8:	9707      	str	r7, [sp, #28]
 80010fa:	9f07      	ldr	r7, [sp, #28]
 80010fc:	6194      	str	r4, [r2, #24]
 80010fe:	6196      	str	r6, [r2, #24]
 8001100:	6194      	str	r4, [r2, #24]
 8001102:	6996      	ldr	r6, [r2, #24]
 8001104:	3c60      	subs	r4, #96	; 0x60
 8001106:	9606      	str	r6, [sp, #24]
 8001108:	9e06      	ldr	r6, [sp, #24]
 800110a:	6194      	str	r4, [r2, #24]
 800110c:	6195      	str	r5, [r2, #24]
 800110e:	6194      	str	r4, [r2, #24]
 8001110:	6992      	ldr	r2, [r2, #24]
 8001112:	9205      	str	r2, [sp, #20]
 8001114:	9a05      	ldr	r2, [sp, #20]
 8001116:	6199      	str	r1, [r3, #24]
 8001118:	6198      	str	r0, [r3, #24]
 800111a:	6199      	str	r1, [r3, #24]
 800111c:	699a      	ldr	r2, [r3, #24]
 800111e:	9204      	str	r2, [sp, #16]
 8001120:	9a04      	ldr	r2, [sp, #16]
 8001122:	6199      	str	r1, [r3, #24]
 8001124:	6198      	str	r0, [r3, #24]
 8001126:	6199      	str	r1, [r3, #24]
 8001128:	699a      	ldr	r2, [r3, #24]
 800112a:	9203      	str	r2, [sp, #12]
 800112c:	9a03      	ldr	r2, [sp, #12]
 800112e:	6199      	str	r1, [r3, #24]
 8001130:	6198      	str	r0, [r3, #24]
 8001132:	6199      	str	r1, [r3, #24]
 8001134:	699a      	ldr	r2, [r3, #24]
 8001136:	9202      	str	r2, [sp, #8]
 8001138:	9a02      	ldr	r2, [sp, #8]
 800113a:	6199      	str	r1, [r3, #24]
 800113c:	6198      	str	r0, [r3, #24]
 800113e:	6199      	str	r1, [r3, #24]
 8001140:	699a      	ldr	r2, [r3, #24]
 8001142:	9201      	str	r2, [sp, #4]
 8001144:	9a01      	ldr	r2, [sp, #4]
 8001146:	6199      	str	r1, [r3, #24]
 8001148:	6198      	str	r0, [r3, #24]
 800114a:	6199      	str	r1, [r3, #24]
 800114c:	699b      	ldr	r3, [r3, #24]
 800114e:	9300      	str	r3, [sp, #0]
 8001150:	9b00      	ldr	r3, [sp, #0]
 8001152:	b00f      	add	sp, #60	; 0x3c
 8001154:	e8bd 83f0 	ldmia.w	sp!, {r4, r5, r6, r7, r8, r9, pc}
 8001158:	40010c00 	.word	0x40010c00
 800115c:	40010800 	.word	0x40010800
 8001160:	00010002 	.word	0x00010002
 8001164:	00010040 	.word	0x00010040
 8001168:	00010004 	.word	0x00010004

0800116c <MCP_ReceivedFrame>:
 800116c:	b5f0      	push	{r4, r5, r6, r7, lr}
 800116e:	460c      	mov	r4, r1
 8001170:	2100      	movs	r1, #0
 8001172:	b08d      	sub	sp, #52	; 0x34
 8001174:	4616      	mov	r6, r2
 8001176:	0962      	lsrs	r2, r4, #5
 8001178:	461f      	mov	r7, r3
 800117a:	f88d 1009 	strb.w	r1, [sp, #9]
 800117e:	4605      	mov	r5, r0
 8001180:	d122      	bne.n	80011c8 <MCP_ReceivedFrame+0x5c>
 8001182:	2c12      	cmp	r4, #18
 8001184:	d814      	bhi.n	80011b0 <MCP_ReceivedFrame+0x44>
 8001186:	e8df f014 	tbh	[pc, r4, lsl #1]
 800118a:	0016      	.short	0x0016
 800118c:	00de004c 	.word	0x00de004c
 8001190:	00130170 	.word	0x00130170
 8001194:	017a0013 	.word	0x017a0013
 8001198:	01b601a1 	.word	0x01b601a1
 800119c:	020b01e9 	.word	0x020b01e9
 80011a0:	0233021c 	.word	0x0233021c
 80011a4:	00130257 	.word	0x00130257
 80011a8:	00130013 	.word	0x00130013
 80011ac:	00160013 	.word	0x00160013
 80011b0:	2301      	movs	r3, #1
 80011b2:	f88d 300e 	strb.w	r3, [sp, #14]
 80011b6:	e9d5 0406 	ldrd	r0, r4, [r5, #24]
 80011ba:	2301      	movs	r3, #1
 80011bc:	f10d 020e 	add.w	r2, sp, #14
 80011c0:	21ff      	movs	r1, #255	; 0xff
 80011c2:	47a0      	blx	r4
 80011c4:	b00d      	add	sp, #52	; 0x34
 80011c6:	bdf0      	pop	{r4, r5, r6, r7, pc}
 80011c8:	3a01      	subs	r2, #1
 80011ca:	f000 ff03 	bl	8001fd4 <UI_SetReg>
 80011ce:	b1c8      	cbz	r0, 8001204 <MCP_ReceivedFrame+0x98>
 80011d0:	f004 041f 	and.w	r4, r4, #31
 80011d4:	2c12      	cmp	r4, #18
 80011d6:	f200 829e 	bhi.w	8001716 <MCP_ReceivedFrame+0x5aa>
 80011da:	e8df f014 	tbh	[pc, r4, lsl #1]
 80011de:	01bc      	.short	0x01bc
 80011e0:	00b40022 	.word	0x00b40022
 80011e4:	029c0146 	.word	0x029c0146
 80011e8:	0150029c 	.word	0x0150029c
 80011ec:	018c0177 	.word	0x018c0177
 80011f0:	01e101bf 	.word	0x01e101bf
 80011f4:	020901f2 	.word	0x020901f2
 80011f8:	029c022d 	.word	0x029c022d
 80011fc:	029c029c 	.word	0x029c029c
 8001200:	01bc029c 	.word	0x01bc029c
 8001204:	230b      	movs	r3, #11
 8001206:	f89d 0009 	ldrb.w	r0, [sp, #9]
 800120a:	f88d 300e 	strb.w	r3, [sp, #14]
 800120e:	2800      	cmp	r0, #0
 8001210:	d0d1      	beq.n	80011b6 <MCP_ReceivedFrame+0x4a>
 8001212:	2300      	movs	r3, #0
 8001214:	69ec      	ldr	r4, [r5, #28]
 8001216:	461a      	mov	r2, r3
 8001218:	69a8      	ldr	r0, [r5, #24]
 800121a:	21f0      	movs	r1, #240	; 0xf0
 800121c:	47a0      	blx	r4
 800121e:	b00d      	add	sp, #52	; 0x34
 8001220:	bdf0      	pop	{r4, r5, r6, r7, pc}
 8001222:	2305      	movs	r3, #5
 8001224:	7831      	ldrb	r1, [r6, #0]
 8001226:	f88d 300e 	strb.w	r3, [sp, #14]
 800122a:	2988      	cmp	r1, #136	; 0x88
 800122c:	f200 8279 	bhi.w	8001722 <MCP_ReceivedFrame+0x5b6>
 8001230:	e8df f011 	tbh	[pc, r1, lsl #1]
 8001234:	02770269 	.word	0x02770269
 8001238:	02620277 	.word	0x02620277
 800123c:	02580277 	.word	0x02580277
 8001240:	02580258 	.word	0x02580258
 8001244:	02580258 	.word	0x02580258
 8001248:	02580258 	.word	0x02580258
 800124c:	02580258 	.word	0x02580258
 8001250:	02580258 	.word	0x02580258
 8001254:	02480248 	.word	0x02480248
 8001258:	02770277 	.word	0x02770277
 800125c:	02580258 	.word	0x02580258
 8001260:	02580258 	.word	0x02580258
 8001264:	02770258 	.word	0x02770258
 8001268:	02770277 	.word	0x02770277
 800126c:	01fe01fe 	.word	0x01fe01fe
 8001270:	02770277 	.word	0x02770277
 8001274:	02770277 	.word	0x02770277
 8001278:	02770277 	.word	0x02770277
 800127c:	02770277 	.word	0x02770277
 8001280:	02770277 	.word	0x02770277
 8001284:	02770277 	.word	0x02770277
 8001288:	02770277 	.word	0x02770277
 800128c:	02770277 	.word	0x02770277
 8001290:	02770277 	.word	0x02770277
 8001294:	02770277 	.word	0x02770277
 8001298:	02770277 	.word	0x02770277
 800129c:	02770277 	.word	0x02770277
 80012a0:	02770277 	.word	0x02770277
 80012a4:	02770277 	.word	0x02770277
 80012a8:	02770277 	.word	0x02770277
 80012ac:	02770277 	.word	0x02770277
 80012b0:	02770277 	.word	0x02770277
 80012b4:	02580277 	.word	0x02580277
 80012b8:	02770277 	.word	0x02770277
 80012bc:	02770277 	.word	0x02770277
 80012c0:	02480248 	.word	0x02480248
 80012c4:	02770248 	.word	0x02770248
 80012c8:	02770277 	.word	0x02770277
 80012cc:	02770277 	.word	0x02770277
 80012d0:	02580277 	.word	0x02580277
 80012d4:	02770277 	.word	0x02770277
 80012d8:	02580277 	.word	0x02580277
 80012dc:	02580258 	.word	0x02580258
 80012e0:	02580258 	.word	0x02580258
 80012e4:	02580258 	.word	0x02580258
 80012e8:	02480277 	.word	0x02480277
 80012ec:	02770277 	.word	0x02770277
 80012f0:	02770277 	.word	0x02770277
 80012f4:	02580277 	.word	0x02580277
 80012f8:	02770277 	.word	0x02770277
 80012fc:	02580258 	.word	0x02580258
 8001300:	02770277 	.word	0x02770277
 8001304:	02770277 	.word	0x02770277
 8001308:	02770277 	.word	0x02770277
 800130c:	02770277 	.word	0x02770277
 8001310:	02770277 	.word	0x02770277
 8001314:	02770277 	.word	0x02770277
 8001318:	02770277 	.word	0x02770277
 800131c:	02480262 	.word	0x02480262
 8001320:	02480248 	.word	0x02480248
 8001324:	02480248 	.word	0x02480248
 8001328:	02770277 	.word	0x02770277
 800132c:	02480277 	.word	0x02480277
 8001330:	02770248 	.word	0x02770248
 8001334:	02770277 	.word	0x02770277
 8001338:	02770277 	.word	0x02770277
 800133c:	02770277 	.word	0x02770277
 8001340:	02580258 	.word	0x02580258
 8001344:	0258      	.short	0x0258
 8001346:	2303      	movs	r3, #3
 8001348:	7831      	ldrb	r1, [r6, #0]
 800134a:	f88d 300e 	strb.w	r3, [sp, #14]
 800134e:	2988      	cmp	r1, #136	; 0x88
 8001350:	f200 8101 	bhi.w	8001556 <MCP_ReceivedFrame+0x3ea>
 8001354:	e8df f011 	tbh	[pc, r1, lsl #1]
 8001358:	01800192 	.word	0x01800192
 800135c:	01920192 	.word	0x01920192
 8001360:	01a40180 	.word	0x01a40180
 8001364:	01a401a4 	.word	0x01a401a4
 8001368:	01a401a4 	.word	0x01a401a4
 800136c:	01a401a4 	.word	0x01a401a4
 8001370:	01a401a4 	.word	0x01a401a4
 8001374:	01a401a4 	.word	0x01a401a4
 8001378:	01a401a4 	.word	0x01a401a4
 800137c:	01a401a4 	.word	0x01a401a4
 8001380:	01a401a4 	.word	0x01a401a4
 8001384:	01a401a4 	.word	0x01a401a4
 8001388:	01a401a4 	.word	0x01a401a4
 800138c:	01a401a4 	.word	0x01a401a4
 8001390:	00ff00ff 	.word	0x00ff00ff
 8001394:	01a40180 	.word	0x01a40180
 8001398:	01a401a4 	.word	0x01a401a4
 800139c:	00ff0192 	.word	0x00ff0192
 80013a0:	00ff00ff 	.word	0x00ff00ff
 80013a4:	00ff00ff 	.word	0x00ff00ff
 80013a8:	00ff00ff 	.word	0x00ff00ff
 80013ac:	00ff00ff 	.word	0x00ff00ff
 80013b0:	00ff00ff 	.word	0x00ff00ff
 80013b4:	00ff00ff 	.word	0x00ff00ff
 80013b8:	00ff00ff 	.word	0x00ff00ff
 80013bc:	00ff00ff 	.word	0x00ff00ff
 80013c0:	00ff00ff 	.word	0x00ff00ff
 80013c4:	00ff00ff 	.word	0x00ff00ff
 80013c8:	00ff00ff 	.word	0x00ff00ff
 80013cc:	00ff00ff 	.word	0x00ff00ff
 80013d0:	00ff00ff 	.word	0x00ff00ff
 80013d4:	00ff00ff 	.word	0x00ff00ff
 80013d8:	01a400ff 	.word	0x01a400ff
 80013dc:	00ff00ff 	.word	0x00ff00ff
 80013e0:	00ff00ff 	.word	0x00ff00ff
 80013e4:	01800180 	.word	0x01800180
 80013e8:	01a40180 	.word	0x01a40180
 80013ec:	01a401a4 	.word	0x01a401a4
 80013f0:	019201a4 	.word	0x019201a4
 80013f4:	01a40180 	.word	0x01a40180
 80013f8:	01a401a4 	.word	0x01a401a4
 80013fc:	01a401a4 	.word	0x01a401a4
 8001400:	01a401a4 	.word	0x01a401a4
 8001404:	01a401a4 	.word	0x01a401a4
 8001408:	01a401a4 	.word	0x01a401a4
 800140c:	01800192 	.word	0x01800192
 8001410:	01a400ff 	.word	0x01a400ff
 8001414:	01a401a4 	.word	0x01a401a4
 8001418:	01a401a4 	.word	0x01a401a4
 800141c:	00ff00ff 	.word	0x00ff00ff
 8001420:	01a401a4 	.word	0x01a401a4
 8001424:	01920192 	.word	0x01920192
 8001428:	01800180 	.word	0x01800180
 800142c:	01800180 	.word	0x01800180
 8001430:	01920180 	.word	0x01920180
 8001434:	01a401a4 	.word	0x01a401a4
 8001438:	00ff0180 	.word	0x00ff0180
 800143c:	01a401a4 	.word	0x01a401a4
 8001440:	01800192 	.word	0x01800192
 8001444:	01800180 	.word	0x01800180
 8001448:	01800180 	.word	0x01800180
 800144c:	01800180 	.word	0x01800180
 8001450:	01800180 	.word	0x01800180
 8001454:	01800180 	.word	0x01800180
 8001458:	00ff0192 	.word	0x00ff0192
 800145c:	01800192 	.word	0x01800192
 8001460:	01800180 	.word	0x01800180
 8001464:	01a401a4 	.word	0x01a401a4
 8001468:	01a4      	.short	0x01a4
 800146a:	2307      	movs	r3, #7
 800146c:	7831      	ldrb	r1, [r6, #0]
 800146e:	4628      	mov	r0, r5
 8001470:	f88d 300e 	strb.w	r3, [sp, #14]
 8001474:	f001 f8c0 	bl	80025f8 <UI_ExecCmd>
 8001478:	f88d 0009 	strb.w	r0, [sp, #9]
 800147c:	e6c7      	b.n	800120e <MCP_ReceivedFrame+0xa2>
 800147e:	ac04      	add	r4, sp, #16
 8001480:	2100      	movs	r1, #0
 8001482:	4620      	mov	r0, r4
 8001484:	2220      	movs	r2, #32
 8001486:	f004 fca1 	bl	8005dcc <memset>
 800148a:	f8d5 60a8 	ldr.w	r6, [r5, #168]	; 0xa8
 800148e:	f10d 0012 	add.w	r0, sp, #18
 8001492:	1e71      	subs	r1, r6, #1
 8001494:	2300      	movs	r3, #0
 8001496:	e005      	b.n	80014a4 <MCP_ReceivedFrame+0x338>
 8001498:	3301      	adds	r3, #1
 800149a:	2b1d      	cmp	r3, #29
 800149c:	f800 2f01 	strb.w	r2, [r0, #1]!
 80014a0:	f000 8145 	beq.w	800172e <MCP_ReceivedFrame+0x5c2>
 80014a4:	f811 2f01 	ldrb.w	r2, [r1, #1]!
 80014a8:	2a09      	cmp	r2, #9
 80014aa:	d1f5      	bne.n	8001498 <MCP_ReceivedFrame+0x32c>
 80014ac:	1d5a      	adds	r2, r3, #5
 80014ae:	1dd8      	adds	r0, r3, #7
 80014b0:	3309      	adds	r3, #9
 80014b2:	5cb1      	ldrb	r1, [r6, r2]
 80014b4:	4622      	mov	r2, r4
 80014b6:	f88d 1010 	strb.w	r1, [sp, #16]
 80014ba:	5c31      	ldrb	r1, [r6, r0]
 80014bc:	69ec      	ldr	r4, [r5, #28]
 80014be:	f88d 1011 	strb.w	r1, [sp, #17]
 80014c2:	5cf1      	ldrb	r1, [r6, r3]
 80014c4:	2320      	movs	r3, #32
 80014c6:	f88d 1012 	strb.w	r1, [sp, #18]
 80014ca:	e0ae      	b.n	800162a <MCP_ReceivedFrame+0x4be>
 80014cc:	7871      	ldrb	r1, [r6, #1]
 80014ce:	7833      	ldrb	r3, [r6, #0]
 80014d0:	7970      	ldrb	r0, [r6, #5]
 80014d2:	78b4      	ldrb	r4, [r6, #2]
 80014d4:	7932      	ldrb	r2, [r6, #4]
 80014d6:	eb03 2301 	add.w	r3, r3, r1, lsl #8
 80014da:	78f1      	ldrb	r1, [r6, #3]
 80014dc:	eb03 4304 	add.w	r3, r3, r4, lsl #16
 80014e0:	eb02 2200 	add.w	r2, r2, r0, lsl #8
 80014e4:	eb03 6101 	add.w	r1, r3, r1, lsl #24
 80014e8:	b292      	uxth	r2, r2
 80014ea:	4628      	mov	r0, r5
 80014ec:	f001 f8c0 	bl	8002670 <UI_ExecSpeedRamp>
 80014f0:	f88d 0009 	strb.w	r0, [sp, #9]
 80014f4:	e68b      	b.n	800120e <MCP_ReceivedFrame+0xa2>
 80014f6:	f10d 030e 	add.w	r3, sp, #14
 80014fa:	7831      	ldrb	r1, [r6, #0]
 80014fc:	f10d 020a 	add.w	r2, sp, #10
 8001500:	9300      	str	r3, [sp, #0]
 8001502:	4628      	mov	r0, r5
 8001504:	ab03      	add	r3, sp, #12
 8001506:	f001 f8cf 	bl	80026a8 <UI_GetRevupData>
 800150a:	2200      	movs	r2, #0
 800150c:	f9bd 300c 	ldrsh.w	r3, [sp, #12]
 8001510:	f9bd 000e 	ldrsh.w	r0, [sp, #14]
 8001514:	eb03 0343 	add.w	r3, r3, r3, lsl #1
 8001518:	005b      	lsls	r3, r3, #1
 800151a:	1219      	asrs	r1, r3, #8
 800151c:	f363 0207 	bfi	r2, r3, #0, #8
 8001520:	141c      	asrs	r4, r3, #16
 8001522:	f361 220f 	bfi	r2, r1, #8, #8
 8001526:	f8bd 100a 	ldrh.w	r1, [sp, #10]
 800152a:	f364 4217 	bfi	r2, r4, #16, #8
 800152e:	161b      	asrs	r3, r3, #24
 8001530:	f363 621f 	bfi	r2, r3, #24, #8
 8001534:	1204      	asrs	r4, r0, #8
 8001536:	0a0b      	lsrs	r3, r1, #8
 8001538:	9204      	str	r2, [sp, #16]
 800153a:	f88d 0014 	strb.w	r0, [sp, #20]
 800153e:	f88d 4015 	strb.w	r4, [sp, #21]
 8001542:	f88d 1016 	strb.w	r1, [sp, #22]
 8001546:	f88d 3017 	strb.w	r3, [sp, #23]
 800154a:	69ec      	ldr	r4, [r5, #28]
 800154c:	2308      	movs	r3, #8
 800154e:	aa04      	add	r2, sp, #16
 8001550:	21f0      	movs	r1, #240	; 0xf0
 8001552:	69a8      	ldr	r0, [r5, #24]
 8001554:	47a0      	blx	r4
 8001556:	f89d 0009 	ldrb.w	r0, [sp, #9]
 800155a:	e658      	b.n	800120e <MCP_ReceivedFrame+0xa2>
 800155c:	78b1      	ldrb	r1, [r6, #2]
 800155e:	7873      	ldrb	r3, [r6, #1]
 8001560:	78f2      	ldrb	r2, [r6, #3]
 8001562:	eb03 2301 	add.w	r3, r3, r1, lsl #8
 8001566:	7931      	ldrb	r1, [r6, #4]
 8001568:	eb03 4302 	add.w	r3, r3, r2, lsl #16
 800156c:	4a72      	ldr	r2, [pc, #456]	; (8001738 <MCP_ReceivedFrame+0x5cc>)
 800156e:	eb03 6301 	add.w	r3, r3, r1, lsl #24
 8001572:	fb82 1203 	smull	r1, r2, r2, r3
 8001576:	7970      	ldrb	r0, [r6, #5]
 8001578:	79b1      	ldrb	r1, [r6, #6]
 800157a:	7a34      	ldrb	r4, [r6, #8]
 800157c:	eba2 73e3 	sub.w	r3, r2, r3, asr #31
 8001580:	79f2      	ldrb	r2, [r6, #7]
 8001582:	eb00 2001 	add.w	r0, r0, r1, lsl #8
 8001586:	b200      	sxth	r0, r0
 8001588:	eb02 2204 	add.w	r2, r2, r4, lsl #8
 800158c:	7831      	ldrb	r1, [r6, #0]
 800158e:	b21b      	sxth	r3, r3
 8001590:	9000      	str	r0, [sp, #0]
 8001592:	b292      	uxth	r2, r2
 8001594:	4628      	mov	r0, r5
 8001596:	f001 f8a3 	bl	80026e0 <UI_SetRevupData>
 800159a:	f88d 0009 	strb.w	r0, [sp, #9]
 800159e:	e636      	b.n	800120e <MCP_ReceivedFrame+0xa2>
 80015a0:	78f0      	ldrb	r0, [r6, #3]
 80015a2:	7873      	ldrb	r3, [r6, #1]
 80015a4:	78b2      	ldrb	r2, [r6, #2]
 80015a6:	7831      	ldrb	r1, [r6, #0]
 80015a8:	eb02 2200 	add.w	r2, r2, r0, lsl #8
 80015ac:	eb01 2103 	add.w	r1, r1, r3, lsl #8
 80015b0:	b212      	sxth	r2, r2
 80015b2:	b209      	sxth	r1, r1
 80015b4:	4628      	mov	r0, r5
 80015b6:	f001 f8ad 	bl	8002714 <UI_SetCurrentReferences>
 80015ba:	2301      	movs	r3, #1
 80015bc:	f88d 3009 	strb.w	r3, [sp, #9]
 80015c0:	e627      	b.n	8001212 <MCP_ReceivedFrame+0xa6>
 80015c2:	230c      	movs	r3, #12
 80015c4:	4c5d      	ldr	r4, [pc, #372]	; (800173c <MCP_ReceivedFrame+0x5d0>)
 80015c6:	a804      	add	r0, sp, #16
 80015c8:	4621      	mov	r1, r4
 80015ca:	9604      	str	r6, [sp, #16]
 80015cc:	f88d 7014 	strb.w	r7, [sp, #20]
 80015d0:	f88d 300e 	strb.w	r3, [sp, #14]
 80015d4:	f001 f8ae 	bl	8002734 <UI_GetMPInfo>
 80015d8:	f88d 0009 	strb.w	r0, [sp, #9]
 80015dc:	2800      	cmp	r0, #0
 80015de:	f43f adea 	beq.w	80011b6 <MCP_ReceivedFrame+0x4a>
 80015e2:	e9d5 0606 	ldrd	r0, r6, [r5, #24]
 80015e6:	7923      	ldrb	r3, [r4, #4]
 80015e8:	6822      	ldr	r2, [r4, #0]
 80015ea:	21f0      	movs	r1, #240	; 0xf0
 80015ec:	47b0      	blx	r6
 80015ee:	e5e9      	b.n	80011c4 <MCP_ReceivedFrame+0x58>
 80015f0:	f8d5 20a8 	ldr.w	r2, [r5, #168]	; 0xa8
 80015f4:	ac04      	add	r4, sp, #16
 80015f6:	4623      	mov	r3, r4
 80015f8:	ae0c      	add	r6, sp, #48	; 0x30
 80015fa:	3a01      	subs	r2, #1
 80015fc:	e003      	b.n	8001606 <MCP_ReceivedFrame+0x49a>
 80015fe:	f803 1b01 	strb.w	r1, [r3], #1
 8001602:	429e      	cmp	r6, r3
 8001604:	d00e      	beq.n	8001624 <MCP_ReceivedFrame+0x4b8>
 8001606:	f812 1f01 	ldrb.w	r1, [r2, #1]!
 800160a:	1b18      	subs	r0, r3, r4
 800160c:	b2c0      	uxtb	r0, r0
 800160e:	2900      	cmp	r1, #0
 8001610:	d1f5      	bne.n	80015fe <MCP_ReceivedFrame+0x492>
 8001612:	281f      	cmp	r0, #31
 8001614:	d806      	bhi.n	8001624 <MCP_ReceivedFrame+0x4b8>
 8001616:	f1c0 021f 	rsb	r2, r0, #31
 800161a:	b2d2      	uxtb	r2, r2
 800161c:	3201      	adds	r2, #1
 800161e:	4420      	add	r0, r4
 8001620:	f004 fbd4 	bl	8005dcc <memset>
 8001624:	2320      	movs	r3, #32
 8001626:	4622      	mov	r2, r4
 8001628:	69ec      	ldr	r4, [r5, #28]
 800162a:	21f0      	movs	r1, #240	; 0xf0
 800162c:	69a8      	ldr	r0, [r5, #24]
 800162e:	47a0      	blx	r4
 8001630:	2301      	movs	r3, #1
 8001632:	f88d 3009 	strb.w	r3, [sp, #9]
 8001636:	e5ec      	b.n	8001212 <MCP_ReceivedFrame+0xa6>
 8001638:	7970      	ldrb	r0, [r6, #5]
 800163a:	7932      	ldrb	r2, [r6, #4]
 800163c:	7873      	ldrb	r3, [r6, #1]
 800163e:	7831      	ldrb	r1, [r6, #0]
 8001640:	eb02 2200 	add.w	r2, r2, r0, lsl #8
 8001644:	eb01 2103 	add.w	r1, r1, r3, lsl #8
 8001648:	b292      	uxth	r2, r2
 800164a:	b209      	sxth	r1, r1
 800164c:	4628      	mov	r0, r5
 800164e:	f001 f821 	bl	8002694 <UI_ExecTorqueRamp>
 8001652:	f88d 0009 	strb.w	r0, [sp, #9]
 8001656:	e5da      	b.n	800120e <MCP_ReceivedFrame+0xa2>
 8001658:	f10d 0209 	add.w	r2, sp, #9
 800165c:	4628      	mov	r0, r5
 800165e:	f000 fda3 	bl	80021a8 <UI_GetReg>
 8001662:	f89d 3009 	ldrb.w	r3, [sp, #9]
 8001666:	9004      	str	r0, [sp, #16]
 8001668:	2b00      	cmp	r3, #0
 800166a:	f43f ada4 	beq.w	80011b6 <MCP_ReceivedFrame+0x4a>
 800166e:	e9d5 0406 	ldrd	r0, r4, [r5, #24]
 8001672:	2304      	movs	r3, #4
 8001674:	aa04      	add	r2, sp, #16
 8001676:	21f0      	movs	r1, #240	; 0xf0
 8001678:	47a0      	blx	r4
 800167a:	e5a3      	b.n	80011c4 <MCP_ReceivedFrame+0x58>
 800167c:	f10d 0209 	add.w	r2, sp, #9
 8001680:	4628      	mov	r0, r5
 8001682:	f000 fd91 	bl	80021a8 <UI_GetReg>
 8001686:	f89d 3009 	ldrb.w	r3, [sp, #9]
 800168a:	9004      	str	r0, [sp, #16]
 800168c:	2b00      	cmp	r3, #0
 800168e:	f43f ad92 	beq.w	80011b6 <MCP_ReceivedFrame+0x4a>
 8001692:	e9d5 0406 	ldrd	r0, r4, [r5, #24]
 8001696:	2301      	movs	r3, #1
 8001698:	aa04      	add	r2, sp, #16
 800169a:	21f0      	movs	r1, #240	; 0xf0
 800169c:	47a0      	blx	r4
 800169e:	e591      	b.n	80011c4 <MCP_ReceivedFrame+0x58>
 80016a0:	f10d 0209 	add.w	r2, sp, #9
 80016a4:	4628      	mov	r0, r5
 80016a6:	f000 fd7f 	bl	80021a8 <UI_GetReg>
 80016aa:	f89d 3009 	ldrb.w	r3, [sp, #9]
 80016ae:	9004      	str	r0, [sp, #16]
 80016b0:	2b00      	cmp	r3, #0
 80016b2:	f43f ad80 	beq.w	80011b6 <MCP_ReceivedFrame+0x4a>
 80016b6:	e9d5 0406 	ldrd	r0, r4, [r5, #24]
 80016ba:	2302      	movs	r3, #2
 80016bc:	aa04      	add	r2, sp, #16
 80016be:	21f0      	movs	r1, #240	; 0xf0
 80016c0:	47a0      	blx	r4
 80016c2:	e57f      	b.n	80011c4 <MCP_ReceivedFrame+0x58>
 80016c4:	78b2      	ldrb	r2, [r6, #2]
 80016c6:	7873      	ldrb	r3, [r6, #1]
 80016c8:	78f0      	ldrb	r0, [r6, #3]
 80016ca:	eb03 2302 	add.w	r3, r3, r2, lsl #8
 80016ce:	7932      	ldrb	r2, [r6, #4]
 80016d0:	eb03 4300 	add.w	r3, r3, r0, lsl #16
 80016d4:	eb03 6202 	add.w	r2, r3, r2, lsl #24
 80016d8:	4628      	mov	r0, r5
 80016da:	f000 fc7b 	bl	8001fd4 <UI_SetReg>
 80016de:	f88d 0009 	strb.w	r0, [sp, #9]
 80016e2:	e594      	b.n	800120e <MCP_ReceivedFrame+0xa2>
 80016e4:	78b2      	ldrb	r2, [r6, #2]
 80016e6:	7873      	ldrb	r3, [r6, #1]
 80016e8:	4628      	mov	r0, r5
 80016ea:	eb03 2202 	add.w	r2, r3, r2, lsl #8
 80016ee:	f000 fc71 	bl	8001fd4 <UI_SetReg>
 80016f2:	f88d 0009 	strb.w	r0, [sp, #9]
 80016f6:	e58a      	b.n	800120e <MCP_ReceivedFrame+0xa2>
 80016f8:	7872      	ldrb	r2, [r6, #1]
 80016fa:	4628      	mov	r0, r5
 80016fc:	f000 fc6a 	bl	8001fd4 <UI_SetReg>
 8001700:	f88d 0009 	strb.w	r0, [sp, #9]
 8001704:	e583      	b.n	800120e <MCP_ReceivedFrame+0xa2>
 8001706:	7872      	ldrb	r2, [r6, #1]
 8001708:	2100      	movs	r1, #0
 800170a:	4628      	mov	r0, r5
 800170c:	f000 fc62 	bl	8001fd4 <UI_SetReg>
 8001710:	f88d 0009 	strb.w	r0, [sp, #9]
 8001714:	e57b      	b.n	800120e <MCP_ReceivedFrame+0xa2>
 8001716:	2301      	movs	r3, #1
 8001718:	f89d 0009 	ldrb.w	r0, [sp, #9]
 800171c:	f88d 300e 	strb.w	r3, [sp, #14]
 8001720:	e575      	b.n	800120e <MCP_ReceivedFrame+0xa2>
 8001722:	2302      	movs	r3, #2
 8001724:	f89d 0009 	ldrb.w	r0, [sp, #9]
 8001728:	f88d 300e 	strb.w	r3, [sp, #14]
 800172c:	e56f      	b.n	800120e <MCP_ReceivedFrame+0xa2>
 800172e:	2326      	movs	r3, #38	; 0x26
 8001730:	2024      	movs	r0, #36	; 0x24
 8001732:	2222      	movs	r2, #34	; 0x22
 8001734:	e6bd      	b.n	80014b2 <MCP_ReceivedFrame+0x346>
 8001736:	bf00      	nop
 8001738:	2aaaaaab 	.word	0x2aaaaaab
 800173c:	200005ec 	.word	0x200005ec

08001740 <MCP_WaitNextFrame>:
 8001740:	b510      	push	{r4, lr}
 8001742:	6a43      	ldr	r3, [r0, #36]	; 0x24
 8001744:	4604      	mov	r4, r0
 8001746:	6980      	ldr	r0, [r0, #24]
 8001748:	4798      	blx	r3
 800174a:	2280      	movs	r2, #128	; 0x80
 800174c:	f884 20ac 	strb.w	r2, [r4, #172]	; 0xac
 8001750:	6a23      	ldr	r3, [r4, #32]
 8001752:	69a0      	ldr	r0, [r4, #24]
 8001754:	e8bd 4010 	ldmia.w	sp!, {r4, lr}
 8001758:	4718      	bx	r3
 800175a:	bf00      	nop

0800175c <MCP_Init>:
 800175c:	b5f0      	push	{r4, r5, r6, r7, lr}
 800175e:	4604      	mov	r4, r0
 8001760:	4617      	mov	r7, r2
 8001762:	461e      	mov	r6, r3
 8001764:	b083      	sub	sp, #12
 8001766:	9a09      	ldr	r2, [sp, #36]	; 0x24
 8001768:	4b09      	ldr	r3, [pc, #36]	; (8001790 <MCP_Init+0x34>)
 800176a:	9d08      	ldr	r5, [sp, #32]
 800176c:	6181      	str	r1, [r0, #24]
 800176e:	f8c4 20a8 	str.w	r2, [r4, #168]	; 0xa8
 8001772:	4608      	mov	r0, r1
 8001774:	9300      	str	r3, [sp, #0]
 8001776:	4621      	mov	r1, r4
 8001778:	4b06      	ldr	r3, [pc, #24]	; (8001794 <MCP_Init+0x38>)
 800177a:	4a07      	ldr	r2, [pc, #28]	; (8001798 <MCP_Init+0x3c>)
 800177c:	f002 fc72 	bl	8004064 <FCP_SetClient>
 8001780:	e9c4 7607 	strd	r7, r6, [r4, #28]
 8001784:	6265      	str	r5, [r4, #36]	; 0x24
 8001786:	4620      	mov	r0, r4
 8001788:	f7ff ffda 	bl	8001740 <MCP_WaitNextFrame>
 800178c:	b003      	add	sp, #12
 800178e:	bdf0      	pop	{r4, r5, r6, r7, pc}
 8001790:	0800179d 	.word	0x0800179d
 8001794:	0800116d 	.word	0x0800116d
 8001798:	080017a5 	.word	0x080017a5

0800179c <MCP_OnTimeOut>:
 800179c:	b508      	push	{r3, lr}
 800179e:	f7ff ffcf 	bl	8001740 <MCP_WaitNextFrame>
 80017a2:	bd08      	pop	{r3, pc}

080017a4 <MCP_SentFrame>:
 80017a4:	b508      	push	{r3, lr}
 80017a6:	f7ff ffcb 	bl	8001740 <MCP_WaitNextFrame>
 80017aa:	bd08      	pop	{r3, pc}

080017ac <MX_MotorControl_Init>:
 80017ac:	b530      	push	{r4, r5, lr}
 80017ae:	b083      	sub	sp, #12
 80017b0:	f001 febe 	bl	8003530 <HAL_RCC_GetHCLKFreq>
 80017b4:	4b0b      	ldr	r3, [pc, #44]	; (80017e4 <MX_MotorControl_Init+0x38>)
 80017b6:	4d0c      	ldr	r5, [pc, #48]	; (80017e8 <MX_MotorControl_Init+0x3c>)
 80017b8:	fba3 3000 	umull	r3, r0, r3, r0
 80017bc:	4c0b      	ldr	r4, [pc, #44]	; (80017ec <MX_MotorControl_Init+0x40>)
 80017be:	09c0      	lsrs	r0, r0, #7
 80017c0:	f001 faa0 	bl	8002d04 <HAL_SYSTICK_Config>
 80017c4:	4629      	mov	r1, r5
 80017c6:	4620      	mov	r0, r4
 80017c8:	f7ff f920 	bl	8000a0c <MCboot>
 80017cc:	f7ff fc4e 	bl	800106c <mc_lock_pins>
 80017d0:	4907      	ldr	r1, [pc, #28]	; (80017f0 <MX_MotorControl_Init+0x44>)
 80017d2:	462b      	mov	r3, r5
 80017d4:	9100      	str	r1, [sp, #0]
 80017d6:	4622      	mov	r2, r4
 80017d8:	2101      	movs	r1, #1
 80017da:	4806      	ldr	r0, [pc, #24]	; (80017f4 <MX_MotorControl_Init+0x48>)
 80017dc:	f000 fb7e 	bl	8001edc <UI_TaskInit>
 80017e0:	b003      	add	sp, #12
 80017e2:	bd30      	pop	{r4, r5, pc}
 80017e4:	10624dd3 	.word	0x10624dd3
 80017e8:	20000860 	.word	0x20000860
 80017ec:	2000085c 	.word	0x2000085c
 80017f0:	08006094 	.word	0x08006094
 80017f4:	2000059c 	.word	0x2000059c

080017f8 <RCM_RegisterRegConv>:
 80017f8:	495d      	ldr	r1, [pc, #372]	; (8001970 <RCM_RegisterRegConv+0x178>)
 80017fa:	b4f0      	push	{r4, r5, r6, r7}
 80017fc:	680a      	ldr	r2, [r1, #0]
 80017fe:	b32a      	cbz	r2, 800184c <RCM_RegisterRegConv+0x54>
 8001800:	7904      	ldrb	r4, [r0, #4]
 8001802:	7913      	ldrb	r3, [r2, #4]
 8001804:	429c      	cmp	r4, r3
 8001806:	d01b      	beq.n	8001840 <RCM_RegisterRegConv+0x48>
 8001808:	684b      	ldr	r3, [r1, #4]
 800180a:	2b00      	cmp	r3, #0
 800180c:	f000 8090 	beq.w	8001930 <RCM_RegisterRegConv+0x138>
 8001810:	791d      	ldrb	r5, [r3, #4]
 8001812:	22ff      	movs	r2, #255	; 0xff
 8001814:	42a5      	cmp	r5, r4
 8001816:	d021      	beq.n	800185c <RCM_RegisterRegConv+0x64>
 8001818:	688d      	ldr	r5, [r1, #8]
 800181a:	2d00      	cmp	r5, #0
 800181c:	f000 809c 	beq.w	8001958 <RCM_RegisterRegConv+0x160>
 8001820:	792b      	ldrb	r3, [r5, #4]
 8001822:	42a3      	cmp	r3, r4
 8001824:	d07d      	beq.n	8001922 <RCM_RegisterRegConv+0x12a>
 8001826:	68cb      	ldr	r3, [r1, #12]
 8001828:	b1f3      	cbz	r3, 8001868 <RCM_RegisterRegConv+0x70>
 800182a:	791d      	ldrb	r5, [r3, #4]
 800182c:	42a5      	cmp	r5, r4
 800182e:	f000 808c 	beq.w	800194a <RCM_RegisterRegConv+0x152>
 8001832:	2a03      	cmp	r2, #3
 8001834:	bf88      	it	hi
 8001836:	22ff      	movhi	r2, #255	; 0xff
 8001838:	d919      	bls.n	800186e <RCM_RegisterRegConv+0x76>
 800183a:	bcf0      	pop	{r4, r5, r6, r7}
 800183c:	4610      	mov	r0, r2
 800183e:	4770      	bx	lr
 8001840:	6812      	ldr	r2, [r2, #0]
 8001842:	6803      	ldr	r3, [r0, #0]
 8001844:	429a      	cmp	r2, r3
 8001846:	d1df      	bne.n	8001808 <RCM_RegisterRegConv+0x10>
 8001848:	2200      	movs	r2, #0
 800184a:	e011      	b.n	8001870 <RCM_RegisterRegConv+0x78>
 800184c:	684b      	ldr	r3, [r1, #4]
 800184e:	2b00      	cmp	r3, #0
 8001850:	f000 8087 	beq.w	8001962 <RCM_RegisterRegConv+0x16a>
 8001854:	7904      	ldrb	r4, [r0, #4]
 8001856:	791d      	ldrb	r5, [r3, #4]
 8001858:	42a5      	cmp	r5, r4
 800185a:	d1dd      	bne.n	8001818 <RCM_RegisterRegConv+0x20>
 800185c:	681d      	ldr	r5, [r3, #0]
 800185e:	6803      	ldr	r3, [r0, #0]
 8001860:	429d      	cmp	r5, r3
 8001862:	d1d9      	bne.n	8001818 <RCM_RegisterRegConv+0x20>
 8001864:	2201      	movs	r2, #1
 8001866:	e003      	b.n	8001870 <RCM_RegisterRegConv+0x78>
 8001868:	2a04      	cmp	r2, #4
 800186a:	d9e2      	bls.n	8001832 <RCM_RegisterRegConv+0x3a>
 800186c:	2203      	movs	r2, #3
 800186e:	6803      	ldr	r3, [r0, #0]
 8001870:	2500      	movs	r5, #0
 8001872:	4c40      	ldr	r4, [pc, #256]	; (8001974 <RCM_RegisterRegConv+0x17c>)
 8001874:	f841 0022 	str.w	r0, [r1, r2, lsl #2]
 8001878:	6899      	ldr	r1, [r3, #8]
 800187a:	f844 5032 	str.w	r5, [r4, r2, lsl #3]
 800187e:	07cc      	lsls	r4, r1, #31
 8001880:	d418      	bmi.n	80018b4 <RCM_RegisterRegConv+0xbc>
 8001882:	f06f 0502 	mvn.w	r5, #2
 8001886:	f06f 0404 	mvn.w	r4, #4
 800188a:	6859      	ldr	r1, [r3, #4]
 800188c:	f021 0120 	bic.w	r1, r1, #32
 8001890:	6059      	str	r1, [r3, #4]
 8001892:	601d      	str	r5, [r3, #0]
 8001894:	6859      	ldr	r1, [r3, #4]
 8001896:	f021 0180 	bic.w	r1, r1, #128	; 0x80
 800189a:	6059      	str	r1, [r3, #4]
 800189c:	601c      	str	r4, [r3, #0]
 800189e:	6899      	ldr	r1, [r3, #8]
 80018a0:	f041 0101 	orr.w	r1, r1, #1
 80018a4:	6099      	str	r1, [r3, #8]
 80018a6:	6899      	ldr	r1, [r3, #8]
 80018a8:	f041 0104 	orr.w	r1, r1, #4
 80018ac:	6099      	str	r1, [r3, #8]
 80018ae:	6899      	ldr	r1, [r3, #8]
 80018b0:	0749      	lsls	r1, r1, #29
 80018b2:	d4fc      	bmi.n	80018ae <RCM_RegisterRegConv+0xb6>
 80018b4:	6ad9      	ldr	r1, [r3, #44]	; 0x2c
 80018b6:	f04f 7700 	mov.w	r7, #33554432	; 0x2000000
 80018ba:	f421 0170 	bic.w	r1, r1, #15728640	; 0xf00000
 80018be:	62d9      	str	r1, [r3, #44]	; 0x2c
 80018c0:	7901      	ldrb	r1, [r0, #4]
 80018c2:	eb01 0441 	add.w	r4, r1, r1, lsl #1
 80018c6:	2909      	cmp	r1, #9
 80018c8:	bf94      	ite	ls
 80018ca:	f041 7100 	orrls.w	r1, r1, #33554432	; 0x2000000
 80018ce:	3c1e      	subhi	r4, #30
 80018d0:	ea41 5104 	orr.w	r1, r1, r4, lsl #20
 80018d4:	fa97 f7a7 	rbit	r7, r7
 80018d8:	fab7 f487 	clz	r4, r7
 80018dc:	f001 7700 	and.w	r7, r1, #33554432	; 0x2000000
 80018e0:	40e7      	lsrs	r7, r4
 80018e2:	330c      	adds	r3, #12
 80018e4:	f001 71f8 	and.w	r1, r1, #32505856	; 0x1f00000
 80018e8:	f853 5027 	ldr.w	r5, [r3, r7, lsl #2]
 80018ec:	f04f 74f8 	mov.w	r4, #32505856	; 0x1f00000
 80018f0:	fa94 f6a4 	rbit	r6, r4
 80018f4:	fab6 f686 	clz	r6, r6
 80018f8:	fa94 f4a4 	rbit	r4, r4
 80018fc:	f04f 0c07 	mov.w	ip, #7
 8001900:	fab4 f484 	clz	r4, r4
 8001904:	fa21 f606 	lsr.w	r6, r1, r6
 8001908:	6880      	ldr	r0, [r0, #8]
 800190a:	40e1      	lsrs	r1, r4
 800190c:	fa0c f606 	lsl.w	r6, ip, r6
 8001910:	4088      	lsls	r0, r1
 8001912:	ea25 0106 	bic.w	r1, r5, r6
 8001916:	4301      	orrs	r1, r0
 8001918:	f843 1027 	str.w	r1, [r3, r7, lsl #2]
 800191c:	4610      	mov	r0, r2
 800191e:	bcf0      	pop	{r4, r5, r6, r7}
 8001920:	4770      	bx	lr
 8001922:	682d      	ldr	r5, [r5, #0]
 8001924:	6803      	ldr	r3, [r0, #0]
 8001926:	429d      	cmp	r5, r3
 8001928:	f47f af7d 	bne.w	8001826 <RCM_RegisterRegConv+0x2e>
 800192c:	2202      	movs	r2, #2
 800192e:	e79f      	b.n	8001870 <RCM_RegisterRegConv+0x78>
 8001930:	688d      	ldr	r5, [r1, #8]
 8001932:	2201      	movs	r2, #1
 8001934:	2d00      	cmp	r5, #0
 8001936:	f47f af73 	bne.w	8001820 <RCM_RegisterRegConv+0x28>
 800193a:	68cb      	ldr	r3, [r1, #12]
 800193c:	2b00      	cmp	r3, #0
 800193e:	d096      	beq.n	800186e <RCM_RegisterRegConv+0x76>
 8001940:	7904      	ldrb	r4, [r0, #4]
 8001942:	791d      	ldrb	r5, [r3, #4]
 8001944:	42a5      	cmp	r5, r4
 8001946:	f47f af74 	bne.w	8001832 <RCM_RegisterRegConv+0x3a>
 800194a:	681c      	ldr	r4, [r3, #0]
 800194c:	6803      	ldr	r3, [r0, #0]
 800194e:	429c      	cmp	r4, r3
 8001950:	f47f af6f 	bne.w	8001832 <RCM_RegisterRegConv+0x3a>
 8001954:	2203      	movs	r2, #3
 8001956:	e78b      	b.n	8001870 <RCM_RegisterRegConv+0x78>
 8001958:	2a04      	cmp	r2, #4
 800195a:	bf8c      	ite	hi
 800195c:	2202      	movhi	r2, #2
 800195e:	2200      	movls	r2, #0
 8001960:	e7eb      	b.n	800193a <RCM_RegisterRegConv+0x142>
 8001962:	688d      	ldr	r5, [r1, #8]
 8001964:	b115      	cbz	r5, 800196c <RCM_RegisterRegConv+0x174>
 8001966:	461a      	mov	r2, r3
 8001968:	7904      	ldrb	r4, [r0, #4]
 800196a:	e759      	b.n	8001820 <RCM_RegisterRegConv+0x28>
 800196c:	462a      	mov	r2, r5
 800196e:	e7e4      	b.n	800193a <RCM_RegisterRegConv+0x142>
 8001970:	2000088c 	.word	0x2000088c
 8001974:	20000868 	.word	0x20000868

08001978 <RCM_ExecRegularConv>:
 8001978:	b410      	push	{r4}
 800197a:	4b17      	ldr	r3, [pc, #92]	; (80019d8 <RCM_ExecRegularConv+0x60>)
 800197c:	f853 2020 	ldr.w	r2, [r3, r0, lsl #2]
 8001980:	7913      	ldrb	r3, [r2, #4]
 8001982:	6812      	ldr	r2, [r2, #0]
 8001984:	eb03 0143 	add.w	r1, r3, r3, lsl #1
 8001988:	2b09      	cmp	r3, #9
 800198a:	bf8c      	ite	hi
 800198c:	391e      	subhi	r1, #30
 800198e:	f043 7300 	orrls.w	r3, r3, #33554432	; 0x2000000
 8001992:	ea43 5301 	orr.w	r3, r3, r1, lsl #20
 8001996:	f44f 7140 	mov.w	r1, #768	; 0x300
 800199a:	fa91 f1a1 	rbit	r1, r1
 800199e:	f44f 7400 	mov.w	r4, #512	; 0x200
 80019a2:	fab1 f181 	clz	r1, r1
 80019a6:	f102 002c 	add.w	r0, r2, #44	; 0x2c
 80019aa:	40cc      	lsrs	r4, r1
 80019ac:	f850 1024 	ldr.w	r1, [r0, r4, lsl #2]
 80019b0:	f003 031f 	and.w	r3, r3, #31
 80019b4:	f021 011f 	bic.w	r1, r1, #31
 80019b8:	430b      	orrs	r3, r1
 80019ba:	f840 3024 	str.w	r3, [r0, r4, lsl #2]
 80019be:	6cd3      	ldr	r3, [r2, #76]	; 0x4c
 80019c0:	6893      	ldr	r3, [r2, #8]
 80019c2:	f443 03a0 	orr.w	r3, r3, #5242880	; 0x500000
 80019c6:	6093      	str	r3, [r2, #8]
 80019c8:	6813      	ldr	r3, [r2, #0]
 80019ca:	079b      	lsls	r3, r3, #30
 80019cc:	d5fc      	bpl.n	80019c8 <RCM_ExecRegularConv+0x50>
 80019ce:	6cd0      	ldr	r0, [r2, #76]	; 0x4c
 80019d0:	bc10      	pop	{r4}
 80019d2:	b280      	uxth	r0, r0
 80019d4:	4770      	bx	lr
 80019d6:	bf00      	nop
 80019d8:	2000088c 	.word	0x2000088c

080019dc <RCM_ExecUserConv>:
 80019dc:	b470      	push	{r4, r5, r6}
 80019de:	4c22      	ldr	r4, [pc, #136]	; (8001a68 <RCM_ExecUserConv+0x8c>)
 80019e0:	7823      	ldrb	r3, [r4, #0]
 80019e2:	2b01      	cmp	r3, #1
 80019e4:	d001      	beq.n	80019ea <RCM_ExecUserConv+0xe>
 80019e6:	bc70      	pop	{r4, r5, r6}
 80019e8:	4770      	bx	lr
 80019ea:	4a20      	ldr	r2, [pc, #128]	; (8001a6c <RCM_ExecUserConv+0x90>)
 80019ec:	4b20      	ldr	r3, [pc, #128]	; (8001a70 <RCM_ExecUserConv+0x94>)
 80019ee:	7810      	ldrb	r0, [r2, #0]
 80019f0:	f853 2020 	ldr.w	r2, [r3, r0, lsl #2]
 80019f4:	7913      	ldrb	r3, [r2, #4]
 80019f6:	6812      	ldr	r2, [r2, #0]
 80019f8:	eb03 0143 	add.w	r1, r3, r3, lsl #1
 80019fc:	2b09      	cmp	r3, #9
 80019fe:	bf8c      	ite	hi
 8001a00:	391e      	subhi	r1, #30
 8001a02:	f043 7300 	orrls.w	r3, r3, #33554432	; 0x2000000
 8001a06:	ea43 5301 	orr.w	r3, r3, r1, lsl #20
 8001a0a:	f44f 7140 	mov.w	r1, #768	; 0x300
 8001a0e:	fa91 f1a1 	rbit	r1, r1
 8001a12:	f44f 7600 	mov.w	r6, #512	; 0x200
 8001a16:	fab1 f181 	clz	r1, r1
 8001a1a:	f102 052c 	add.w	r5, r2, #44	; 0x2c
 8001a1e:	40ce      	lsrs	r6, r1
 8001a20:	f855 1026 	ldr.w	r1, [r5, r6, lsl #2]
 8001a24:	f003 031f 	and.w	r3, r3, #31
 8001a28:	f021 011f 	bic.w	r1, r1, #31
 8001a2c:	430b      	orrs	r3, r1
 8001a2e:	f845 3026 	str.w	r3, [r5, r6, lsl #2]
 8001a32:	6cd3      	ldr	r3, [r2, #76]	; 0x4c
 8001a34:	6893      	ldr	r3, [r2, #8]
 8001a36:	f443 03a0 	orr.w	r3, r3, #5242880	; 0x500000
 8001a3a:	6093      	str	r3, [r2, #8]
 8001a3c:	6813      	ldr	r3, [r2, #0]
 8001a3e:	079b      	lsls	r3, r3, #30
 8001a40:	d5fc      	bpl.n	8001a3c <RCM_ExecUserConv+0x60>
 8001a42:	2602      	movs	r6, #2
 8001a44:	4b0b      	ldr	r3, [pc, #44]	; (8001a74 <RCM_ExecUserConv+0x98>)
 8001a46:	6cd1      	ldr	r1, [r2, #76]	; 0x4c
 8001a48:	f853 5030 	ldr.w	r5, [r3, r0, lsl #3]
 8001a4c:	4a0a      	ldr	r2, [pc, #40]	; (8001a78 <RCM_ExecUserConv+0x9c>)
 8001a4e:	b289      	uxth	r1, r1
 8001a50:	8011      	strh	r1, [r2, #0]
 8001a52:	7026      	strb	r6, [r4, #0]
 8001a54:	2d00      	cmp	r5, #0
 8001a56:	d0c6      	beq.n	80019e6 <RCM_ExecUserConv+0xa>
 8001a58:	2600      	movs	r6, #0
 8001a5a:	eb03 03c0 	add.w	r3, r3, r0, lsl #3
 8001a5e:	685a      	ldr	r2, [r3, #4]
 8001a60:	7026      	strb	r6, [r4, #0]
 8001a62:	462b      	mov	r3, r5
 8001a64:	bc70      	pop	{r4, r5, r6}
 8001a66:	4718      	bx	r3
 8001a68:	20000888 	.word	0x20000888
 8001a6c:	20000864 	.word	0x20000864
 8001a70:	2000088c 	.word	0x2000088c
 8001a74:	20000868 	.word	0x20000868
 8001a78:	2000089c 	.word	0x2000089c

08001a7c <ADC1_2_IRQHandler>:
 8001a7c:	4a03      	ldr	r2, [pc, #12]	; (8001a8c <ADC1_2_IRQHandler+0x10>)
 8001a7e:	6813      	ldr	r3, [r2, #0]
 8001a80:	f023 030c 	bic.w	r3, r3, #12
 8001a84:	6013      	str	r3, [r2, #0]
 8001a86:	f7ff b9ef 	b.w	8000e68 <TSK_HighFrequencyTask>
 8001a8a:	bf00      	nop
 8001a8c:	40012400 	.word	0x40012400

08001a90 <TIM1_UP_IRQHandler>:
 8001a90:	f06f 0201 	mvn.w	r2, #1
 8001a94:	4b02      	ldr	r3, [pc, #8]	; (8001aa0 <TIM1_UP_IRQHandler+0x10>)
 8001a96:	4803      	ldr	r0, [pc, #12]	; (8001aa4 <TIM1_UP_IRQHandler+0x14>)
 8001a98:	611a      	str	r2, [r3, #16]
 8001a9a:	f003 bc73 	b.w	8005384 <R3_2_TIMx_UP_IRQHandler>
 8001a9e:	bf00      	nop
 8001aa0:	40012c00 	.word	0x40012c00
 8001aa4:	2000034c 	.word	0x2000034c

08001aa8 <TIM1_BRK_IRQHandler>:
 8001aa8:	4807      	ldr	r0, [pc, #28]	; (8001ac8 <TIM1_BRK_IRQHandler+0x20>)
 8001aaa:	b508      	push	{r3, lr}
 8001aac:	6f43      	ldr	r3, [r0, #116]	; 0x74
 8001aae:	689b      	ldr	r3, [r3, #8]
 8001ab0:	691a      	ldr	r2, [r3, #16]
 8001ab2:	0612      	lsls	r2, r2, #24
 8001ab4:	d504      	bpl.n	8001ac0 <TIM1_BRK_IRQHandler+0x18>
 8001ab6:	f06f 0280 	mvn.w	r2, #128	; 0x80
 8001aba:	611a      	str	r2, [r3, #16]
 8001abc:	f003 fc9c 	bl	80053f8 <R3_2_BRK_IRQHandler>
 8001ac0:	e8bd 4008 	ldmia.w	sp!, {r3, lr}
 8001ac4:	f7ff b9a2 	b.w	8000e0c <MC_Scheduler>
 8001ac8:	2000034c 	.word	0x2000034c

08001acc <TIM3_IRQHandler>:
 8001acc:	b510      	push	{r4, lr}
 8001ace:	4c0c      	ldr	r4, [pc, #48]	; (8001b00 <TIM3_IRQHandler+0x34>)
 8001ad0:	6ae3      	ldr	r3, [r4, #44]	; 0x2c
 8001ad2:	691a      	ldr	r2, [r3, #16]
 8001ad4:	07d1      	lsls	r1, r2, #31
 8001ad6:	d40b      	bmi.n	8001af0 <TIM3_IRQHandler+0x24>
 8001ad8:	691a      	ldr	r2, [r3, #16]
 8001ada:	0792      	lsls	r2, r2, #30
 8001adc:	d400      	bmi.n	8001ae0 <TIM3_IRQHandler+0x14>
 8001ade:	bd10      	pop	{r4, pc}
 8001ae0:	f06f 0202 	mvn.w	r2, #2
 8001ae4:	e8bd 4010 	ldmia.w	sp!, {r4, lr}
 8001ae8:	4805      	ldr	r0, [pc, #20]	; (8001b00 <TIM3_IRQHandler+0x34>)
 8001aea:	611a      	str	r2, [r3, #16]
 8001aec:	f002 bc7a 	b.w	80043e4 <HALL_TIMx_CC_IRQHandler>
 8001af0:	f06f 0201 	mvn.w	r2, #1
 8001af4:	4620      	mov	r0, r4
 8001af6:	611a      	str	r2, [r3, #16]
 8001af8:	f002 fe1c 	bl	8004734 <HALL_TIMx_UP_IRQHandler>
 8001afc:	6ae3      	ldr	r3, [r4, #44]	; 0x2c
 8001afe:	e7eb      	b.n	8001ad8 <TIM3_IRQHandler+0xc>
 8001b00:	200000ec 	.word	0x200000ec

08001b04 <USART3_IRQHandler>:
 8001b04:	b530      	push	{r4, r5, lr}
 8001b06:	4c1c      	ldr	r4, [pc, #112]	; (8001b78 <USART3_IRQHandler+0x74>)
 8001b08:	b083      	sub	sp, #12
 8001b0a:	f8d4 3120 	ldr.w	r3, [r4, #288]	; 0x120
 8001b0e:	681d      	ldr	r5, [r3, #0]
 8001b10:	0729      	lsls	r1, r5, #28
 8001b12:	d419      	bmi.n	8001b48 <USART3_IRQHandler+0x44>
 8001b14:	06aa      	lsls	r2, r5, #26
 8001b16:	d40a      	bmi.n	8001b2e <USART3_IRQHandler+0x2a>
 8001b18:	681b      	ldr	r3, [r3, #0]
 8001b1a:	061b      	lsls	r3, r3, #24
 8001b1c:	d401      	bmi.n	8001b22 <USART3_IRQHandler+0x1e>
 8001b1e:	b003      	add	sp, #12
 8001b20:	bd30      	pop	{r4, r5, pc}
 8001b22:	4815      	ldr	r0, [pc, #84]	; (8001b78 <USART3_IRQHandler+0x74>)
 8001b24:	b003      	add	sp, #12
 8001b26:	e8bd 4030 	ldmia.w	sp!, {r4, r5, lr}
 8001b2a:	f003 becf 	b.w	80058cc <UFCP_TX_IRQ_Handler>
 8001b2e:	6859      	ldr	r1, [r3, #4]
 8001b30:	4811      	ldr	r0, [pc, #68]	; (8001b78 <USART3_IRQHandler+0x74>)
 8001b32:	b2c9      	uxtb	r1, r1
 8001b34:	f003 ff9c 	bl	8005a70 <UFCP_RX_IRQ_Handler>
 8001b38:	8803      	ldrh	r3, [r0, #0]
 8001b3a:	2b01      	cmp	r3, #1
 8001b3c:	d017      	beq.n	8001b6e <USART3_IRQHandler+0x6a>
 8001b3e:	2b02      	cmp	r3, #2
 8001b40:	d012      	beq.n	8001b68 <USART3_IRQHandler+0x64>
 8001b42:	f8d4 3120 	ldr.w	r3, [r4, #288]	; 0x120
 8001b46:	e7e7      	b.n	8001b18 <USART3_IRQHandler+0x14>
 8001b48:	4620      	mov	r0, r4
 8001b4a:	f003 fff7 	bl	8005b3c <UFCP_OVR_IRQ_Handler>
 8001b4e:	f8d4 3120 	ldr.w	r3, [r4, #288]	; 0x120
 8001b52:	681a      	ldr	r2, [r3, #0]
 8001b54:	9201      	str	r2, [sp, #4]
 8001b56:	9a01      	ldr	r2, [sp, #4]
 8001b58:	685b      	ldr	r3, [r3, #4]
 8001b5a:	9301      	str	r3, [sp, #4]
 8001b5c:	9b01      	ldr	r3, [sp, #4]
 8001b5e:	f000 fa19 	bl	8001f94 <UI_SerialCommunicationTimeOutStop>
 8001b62:	f8d4 3120 	ldr.w	r3, [r4, #288]	; 0x120
 8001b66:	e7d5      	b.n	8001b14 <USART3_IRQHandler+0x10>
 8001b68:	f000 fa14 	bl	8001f94 <UI_SerialCommunicationTimeOutStop>
 8001b6c:	e7e9      	b.n	8001b42 <USART3_IRQHandler+0x3e>
 8001b6e:	f000 fa17 	bl	8001fa0 <UI_SerialCommunicationTimeOutStart>
 8001b72:	f8d4 3120 	ldr.w	r3, [r4, #288]	; 0x120
 8001b76:	e7cf      	b.n	8001b18 <USART3_IRQHandler+0x14>
 8001b78:	20000460 	.word	0x20000460

08001b7c <HardFault_Handler>:
 8001b7c:	b530      	push	{r4, r5, lr}
 8001b7e:	4c1d      	ldr	r4, [pc, #116]	; (8001bf4 <HardFault_Handler+0x78>)
 8001b80:	b083      	sub	sp, #12
 8001b82:	f7ff fa63 	bl	800104c <TSK_HardwareFaultTask>
 8001b86:	4625      	mov	r5, r4
 8001b88:	f8d4 3120 	ldr.w	r3, [r4, #288]	; 0x120
 8001b8c:	681a      	ldr	r2, [r3, #0]
 8001b8e:	0712      	lsls	r2, r2, #28
 8001b90:	d41d      	bmi.n	8001bce <HardFault_Handler+0x52>
 8001b92:	681a      	ldr	r2, [r3, #0]
 8001b94:	0610      	lsls	r0, r2, #24
 8001b96:	d40f      	bmi.n	8001bb8 <HardFault_Handler+0x3c>
 8001b98:	681a      	ldr	r2, [r3, #0]
 8001b9a:	0692      	lsls	r2, r2, #26
 8001b9c:	d5f6      	bpl.n	8001b8c <HardFault_Handler+0x10>
 8001b9e:	6859      	ldr	r1, [r3, #4]
 8001ba0:	4628      	mov	r0, r5
 8001ba2:	b2c9      	uxtb	r1, r1
 8001ba4:	f003 ff64 	bl	8005a70 <UFCP_RX_IRQ_Handler>
 8001ba8:	8803      	ldrh	r3, [r0, #0]
 8001baa:	2b01      	cmp	r3, #1
 8001bac:	d01f      	beq.n	8001bee <HardFault_Handler+0x72>
 8001bae:	2b02      	cmp	r3, #2
 8001bb0:	d1ea      	bne.n	8001b88 <HardFault_Handler+0xc>
 8001bb2:	f000 f9ef 	bl	8001f94 <UI_SerialCommunicationTimeOutStop>
 8001bb6:	e7e7      	b.n	8001b88 <HardFault_Handler+0xc>
 8001bb8:	4628      	mov	r0, r5
 8001bba:	f003 fe87 	bl	80058cc <UFCP_TX_IRQ_Handler>
 8001bbe:	f8d4 3120 	ldr.w	r3, [r4, #288]	; 0x120
 8001bc2:	681a      	ldr	r2, [r3, #0]
 8001bc4:	0691      	lsls	r1, r2, #26
 8001bc6:	d4ea      	bmi.n	8001b9e <HardFault_Handler+0x22>
 8001bc8:	681a      	ldr	r2, [r3, #0]
 8001bca:	0712      	lsls	r2, r2, #28
 8001bcc:	d5e1      	bpl.n	8001b92 <HardFault_Handler+0x16>
 8001bce:	4628      	mov	r0, r5
 8001bd0:	f003 ffb4 	bl	8005b3c <UFCP_OVR_IRQ_Handler>
 8001bd4:	f8d4 3120 	ldr.w	r3, [r4, #288]	; 0x120
 8001bd8:	681a      	ldr	r2, [r3, #0]
 8001bda:	9201      	str	r2, [sp, #4]
 8001bdc:	9a01      	ldr	r2, [sp, #4]
 8001bde:	685b      	ldr	r3, [r3, #4]
 8001be0:	9301      	str	r3, [sp, #4]
 8001be2:	9b01      	ldr	r3, [sp, #4]
 8001be4:	f000 f9d6 	bl	8001f94 <UI_SerialCommunicationTimeOutStop>
 8001be8:	f8d4 3120 	ldr.w	r3, [r4, #288]	; 0x120
 8001bec:	e7d1      	b.n	8001b92 <HardFault_Handler+0x16>
 8001bee:	f000 f9d7 	bl	8001fa0 <UI_SerialCommunicationTimeOutStart>
 8001bf2:	e7c9      	b.n	8001b88 <HardFault_Handler+0xc>
 8001bf4:	20000460 	.word	0x20000460

08001bf8 <SysTick_Handler>:
 8001bf8:	b510      	push	{r4, lr}
 8001bfa:	4c0a      	ldr	r4, [pc, #40]	; (8001c24 <SysTick_Handler+0x2c>)
 8001bfc:	7823      	ldrb	r3, [r4, #0]
 8001bfe:	2b02      	cmp	r3, #2
 8001c00:	d006      	beq.n	8001c10 <SysTick_Handler+0x18>
 8001c02:	3301      	adds	r3, #1
 8001c04:	b2db      	uxtb	r3, r3
 8001c06:	7023      	strb	r3, [r4, #0]
 8001c08:	e8bd 4010 	ldmia.w	sp!, {r4, lr}
 8001c0c:	f7ff ba0e 	b.w	800102c <MC_RunMotorControlTasks>
 8001c10:	f000 fdca 	bl	80027a8 <HAL_IncTick>
 8001c14:	f001 f890 	bl	8002d38 <HAL_SYSTICK_IRQHandler>
 8001c18:	2301      	movs	r3, #1
 8001c1a:	7023      	strb	r3, [r4, #0]
 8001c1c:	e8bd 4010 	ldmia.w	sp!, {r4, lr}
 8001c20:	f7ff ba04 	b.w	800102c <MC_RunMotorControlTasks>
 8001c24:	200005a0 	.word	0x200005a0

08001c28 <HAL_MspInit>:
 8001c28:	4b10      	ldr	r3, [pc, #64]	; (8001c6c <HAL_MspInit+0x44>)
 8001c2a:	b500      	push	{lr}
 8001c2c:	699a      	ldr	r2, [r3, #24]
 8001c2e:	b083      	sub	sp, #12
 8001c30:	f042 0201 	orr.w	r2, r2, #1
 8001c34:	619a      	str	r2, [r3, #24]
 8001c36:	699a      	ldr	r2, [r3, #24]
 8001c38:	2004      	movs	r0, #4
 8001c3a:	f002 0201 	and.w	r2, r2, #1
 8001c3e:	9200      	str	r2, [sp, #0]
 8001c40:	9a00      	ldr	r2, [sp, #0]
 8001c42:	69da      	ldr	r2, [r3, #28]
 8001c44:	f042 5280 	orr.w	r2, r2, #268435456	; 0x10000000
 8001c48:	61da      	str	r2, [r3, #28]
 8001c4a:	69db      	ldr	r3, [r3, #28]
 8001c4c:	f003 5380 	and.w	r3, r3, #268435456	; 0x10000000
 8001c50:	9301      	str	r3, [sp, #4]
 8001c52:	9b01      	ldr	r3, [sp, #4]
 8001c54:	f001 f800 	bl	8002c58 <HAL_NVIC_SetPriorityGrouping>
 8001c58:	4a05      	ldr	r2, [pc, #20]	; (8001c70 <HAL_MspInit+0x48>)
 8001c5a:	6853      	ldr	r3, [r2, #4]
 8001c5c:	f023 63e0 	bic.w	r3, r3, #117440512	; 0x7000000
 8001c60:	f043 7300 	orr.w	r3, r3, #33554432	; 0x2000000
 8001c64:	6053      	str	r3, [r2, #4]
 8001c66:	b003      	add	sp, #12
 8001c68:	f85d fb04 	ldr.w	pc, [sp], #4
 8001c6c:	40021000 	.word	0x40021000
 8001c70:	40010000 	.word	0x40010000

08001c74 <HAL_ADC_MspInit>:
 8001c74:	b570      	push	{r4, r5, r6, lr}
 8001c76:	2400      	movs	r4, #0
 8001c78:	6803      	ldr	r3, [r0, #0]
 8001c7a:	4a2f      	ldr	r2, [pc, #188]	; (8001d38 <HAL_ADC_MspInit+0xc4>)
 8001c7c:	b088      	sub	sp, #32
 8001c7e:	4293      	cmp	r3, r2
 8001c80:	e9cd 4404 	strd	r4, r4, [sp, #16]
 8001c84:	e9cd 4406 	strd	r4, r4, [sp, #24]
 8001c88:	d004      	beq.n	8001c94 <HAL_ADC_MspInit+0x20>
 8001c8a:	4a2c      	ldr	r2, [pc, #176]	; (8001d3c <HAL_ADC_MspInit+0xc8>)
 8001c8c:	4293      	cmp	r3, r2
 8001c8e:	d036      	beq.n	8001cfe <HAL_ADC_MspInit+0x8a>
 8001c90:	b008      	add	sp, #32
 8001c92:	bd70      	pop	{r4, r5, r6, pc}
 8001c94:	4605      	mov	r5, r0
 8001c96:	203d      	movs	r0, #61	; 0x3d
 8001c98:	2603      	movs	r6, #3
 8001c9a:	4b29      	ldr	r3, [pc, #164]	; (8001d40 <HAL_ADC_MspInit+0xcc>)
 8001c9c:	a904      	add	r1, sp, #16
 8001c9e:	699a      	ldr	r2, [r3, #24]
 8001ca0:	f442 7200 	orr.w	r2, r2, #512	; 0x200
 8001ca4:	619a      	str	r2, [r3, #24]
 8001ca6:	699a      	ldr	r2, [r3, #24]
 8001ca8:	f402 7200 	and.w	r2, r2, #512	; 0x200
 8001cac:	9200      	str	r2, [sp, #0]
 8001cae:	9a00      	ldr	r2, [sp, #0]
 8001cb0:	699a      	ldr	r2, [r3, #24]
 8001cb2:	f042 0204 	orr.w	r2, r2, #4
 8001cb6:	619a      	str	r2, [r3, #24]
 8001cb8:	699b      	ldr	r3, [r3, #24]
 8001cba:	9004      	str	r0, [sp, #16]
 8001cbc:	f003 0304 	and.w	r3, r3, #4
 8001cc0:	9301      	str	r3, [sp, #4]
 8001cc2:	4820      	ldr	r0, [pc, #128]	; (8001d44 <HAL_ADC_MspInit+0xd0>)
 8001cc4:	9b01      	ldr	r3, [sp, #4]
 8001cc6:	9605      	str	r6, [sp, #20]
 8001cc8:	f001 f86e 	bl	8002da8 <HAL_GPIO_Init>
 8001ccc:	f44f 7080 	mov.w	r0, #256	; 0x100
 8001cd0:	f44f 6280 	mov.w	r2, #1024	; 0x400
 8001cd4:	2320      	movs	r3, #32
 8001cd6:	4e1c      	ldr	r6, [pc, #112]	; (8001d48 <HAL_ADC_MspInit+0xd4>)
 8001cd8:	491c      	ldr	r1, [pc, #112]	; (8001d4c <HAL_ADC_MspInit+0xd8>)
 8001cda:	6130      	str	r0, [r6, #16]
 8001cdc:	4630      	mov	r0, r6
 8001cde:	e9c6 4401 	strd	r4, r4, [r6, #4]
 8001ce2:	60f4      	str	r4, [r6, #12]
 8001ce4:	61f4      	str	r4, [r6, #28]
 8001ce6:	6031      	str	r1, [r6, #0]
 8001ce8:	e9c6 2305 	strd	r2, r3, [r6, #20]
 8001cec:	f001 f828 	bl	8002d40 <HAL_DMA_Init>
 8001cf0:	b108      	cbz	r0, 8001cf6 <HAL_ADC_MspInit+0x82>
 8001cf2:	f7fe fc99 	bl	8000628 <Error_Handler>
 8001cf6:	622e      	str	r6, [r5, #32]
 8001cf8:	6275      	str	r5, [r6, #36]	; 0x24
 8001cfa:	b008      	add	sp, #32
 8001cfc:	bd70      	pop	{r4, r5, r6, pc}
 8001cfe:	2538      	movs	r5, #56	; 0x38
 8001d00:	2403      	movs	r4, #3
 8001d02:	4b0f      	ldr	r3, [pc, #60]	; (8001d40 <HAL_ADC_MspInit+0xcc>)
 8001d04:	a904      	add	r1, sp, #16
 8001d06:	699a      	ldr	r2, [r3, #24]
 8001d08:	480e      	ldr	r0, [pc, #56]	; (8001d44 <HAL_ADC_MspInit+0xd0>)
 8001d0a:	f442 6280 	orr.w	r2, r2, #1024	; 0x400
 8001d0e:	619a      	str	r2, [r3, #24]
 8001d10:	699a      	ldr	r2, [r3, #24]
 8001d12:	f402 6280 	and.w	r2, r2, #1024	; 0x400
 8001d16:	9202      	str	r2, [sp, #8]
 8001d18:	9a02      	ldr	r2, [sp, #8]
 8001d1a:	699a      	ldr	r2, [r3, #24]
 8001d1c:	f042 0204 	orr.w	r2, r2, #4
 8001d20:	619a      	str	r2, [r3, #24]
 8001d22:	699b      	ldr	r3, [r3, #24]
 8001d24:	9504      	str	r5, [sp, #16]
 8001d26:	f003 0304 	and.w	r3, r3, #4
 8001d2a:	9303      	str	r3, [sp, #12]
 8001d2c:	9b03      	ldr	r3, [sp, #12]
 8001d2e:	9405      	str	r4, [sp, #20]
 8001d30:	f001 f83a 	bl	8002da8 <HAL_GPIO_Init>
 8001d34:	b008      	add	sp, #32
 8001d36:	bd70      	pop	{r4, r5, r6, pc}
 8001d38:	40012400 	.word	0x40012400
 8001d3c:	40012800 	.word	0x40012800
 8001d40:	40021000 	.word	0x40021000
 8001d44:	40010800 	.word	0x40010800
 8001d48:	200006e4 	.word	0x200006e4
 8001d4c:	40020008 	.word	0x40020008

08001d50 <HAL_TIM_Base_MspInit>:
 8001d50:	2300      	movs	r3, #0
 8001d52:	b510      	push	{r4, lr}
 8001d54:	6802      	ldr	r2, [r0, #0]
 8001d56:	4920      	ldr	r1, [pc, #128]	; (8001dd8 <HAL_TIM_Base_MspInit+0x88>)
 8001d58:	b088      	sub	sp, #32
 8001d5a:	428a      	cmp	r2, r1
 8001d5c:	e9cd 3304 	strd	r3, r3, [sp, #16]
 8001d60:	e9cd 3306 	strd	r3, r3, [sp, #24]
 8001d64:	d004      	beq.n	8001d70 <HAL_TIM_Base_MspInit+0x20>
 8001d66:	4b1d      	ldr	r3, [pc, #116]	; (8001ddc <HAL_TIM_Base_MspInit+0x8c>)
 8001d68:	429a      	cmp	r2, r3
 8001d6a:	d010      	beq.n	8001d8e <HAL_TIM_Base_MspInit+0x3e>
 8001d6c:	b008      	add	sp, #32
 8001d6e:	bd10      	pop	{r4, pc}
 8001d70:	f103 4380 	add.w	r3, r3, #1073741824	; 0x40000000
 8001d74:	f503 3304 	add.w	r3, r3, #135168	; 0x21000
 8001d78:	699a      	ldr	r2, [r3, #24]
 8001d7a:	f442 6200 	orr.w	r2, r2, #2048	; 0x800
 8001d7e:	619a      	str	r2, [r3, #24]
 8001d80:	699b      	ldr	r3, [r3, #24]
 8001d82:	f403 6300 	and.w	r3, r3, #2048	; 0x800
 8001d86:	9301      	str	r3, [sp, #4]
 8001d88:	9b01      	ldr	r3, [sp, #4]
 8001d8a:	b008      	add	sp, #32
 8001d8c:	bd10      	pop	{r4, pc}
 8001d8e:	2431      	movs	r4, #49	; 0x31
 8001d90:	f503 3303 	add.w	r3, r3, #134144	; 0x20c00
 8001d94:	69da      	ldr	r2, [r3, #28]
 8001d96:	a904      	add	r1, sp, #16
 8001d98:	f042 0202 	orr.w	r2, r2, #2
 8001d9c:	61da      	str	r2, [r3, #28]
 8001d9e:	69da      	ldr	r2, [r3, #28]
 8001da0:	480f      	ldr	r0, [pc, #60]	; (8001de0 <HAL_TIM_Base_MspInit+0x90>)
 8001da2:	f002 0202 	and.w	r2, r2, #2
 8001da6:	9202      	str	r2, [sp, #8]
 8001da8:	9a02      	ldr	r2, [sp, #8]
 8001daa:	699a      	ldr	r2, [r3, #24]
 8001dac:	f042 0208 	orr.w	r2, r2, #8
 8001db0:	619a      	str	r2, [r3, #24]
 8001db2:	699b      	ldr	r3, [r3, #24]
 8001db4:	9404      	str	r4, [sp, #16]
 8001db6:	f003 0308 	and.w	r3, r3, #8
 8001dba:	9303      	str	r3, [sp, #12]
 8001dbc:	9b03      	ldr	r3, [sp, #12]
 8001dbe:	f000 fff3 	bl	8002da8 <HAL_GPIO_Init>
 8001dc2:	4a08      	ldr	r2, [pc, #32]	; (8001de4 <HAL_TIM_Base_MspInit+0x94>)
 8001dc4:	6853      	ldr	r3, [r2, #4]
 8001dc6:	f423 6340 	bic.w	r3, r3, #3072	; 0xc00
 8001dca:	f043 63e0 	orr.w	r3, r3, #117440512	; 0x7000000
 8001dce:	f443 6300 	orr.w	r3, r3, #2048	; 0x800
 8001dd2:	6053      	str	r3, [r2, #4]
 8001dd4:	b008      	add	sp, #32
 8001dd6:	bd10      	pop	{r4, pc}
 8001dd8:	40012c00 	.word	0x40012c00
 8001ddc:	40000400 	.word	0x40000400
 8001de0:	40010c00 	.word	0x40010c00
 8001de4:	40010000 	.word	0x40010000

08001de8 <HAL_TIM_MspPostInit>:
 8001de8:	2300      	movs	r3, #0
 8001dea:	b530      	push	{r4, r5, lr}
 8001dec:	6801      	ldr	r1, [r0, #0]
 8001dee:	4a1b      	ldr	r2, [pc, #108]	; (8001e5c <HAL_TIM_MspPostInit+0x74>)
 8001df0:	b087      	sub	sp, #28
 8001df2:	4291      	cmp	r1, r2
 8001df4:	e9cd 3302 	strd	r3, r3, [sp, #8]
 8001df8:	e9cd 3304 	strd	r3, r3, [sp, #16]
 8001dfc:	d001      	beq.n	8001e02 <HAL_TIM_MspPostInit+0x1a>
 8001dfe:	b007      	add	sp, #28
 8001e00:	bd30      	pop	{r4, r5, pc}
 8001e02:	f44f 4160 	mov.w	r1, #57344	; 0xe000
 8001e06:	2502      	movs	r5, #2
 8001e08:	2403      	movs	r4, #3
 8001e0a:	f103 4380 	add.w	r3, r3, #1073741824	; 0x40000000
 8001e0e:	f503 3304 	add.w	r3, r3, #135168	; 0x21000
 8001e12:	699a      	ldr	r2, [r3, #24]
 8001e14:	4812      	ldr	r0, [pc, #72]	; (8001e60 <HAL_TIM_MspPostInit+0x78>)
 8001e16:	f042 0208 	orr.w	r2, r2, #8
 8001e1a:	619a      	str	r2, [r3, #24]
 8001e1c:	699a      	ldr	r2, [r3, #24]
 8001e1e:	f002 0208 	and.w	r2, r2, #8
 8001e22:	9200      	str	r2, [sp, #0]
 8001e24:	9a00      	ldr	r2, [sp, #0]
 8001e26:	699a      	ldr	r2, [r3, #24]
 8001e28:	f042 0204 	orr.w	r2, r2, #4
 8001e2c:	619a      	str	r2, [r3, #24]
 8001e2e:	699b      	ldr	r3, [r3, #24]
 8001e30:	9102      	str	r1, [sp, #8]
 8001e32:	f003 0304 	and.w	r3, r3, #4
 8001e36:	9301      	str	r3, [sp, #4]
 8001e38:	a902      	add	r1, sp, #8
 8001e3a:	9b01      	ldr	r3, [sp, #4]
 8001e3c:	9503      	str	r5, [sp, #12]
 8001e3e:	9405      	str	r4, [sp, #20]
 8001e40:	f000 ffb2 	bl	8002da8 <HAL_GPIO_Init>
 8001e44:	f44f 63e0 	mov.w	r3, #1792	; 0x700
 8001e48:	a902      	add	r1, sp, #8
 8001e4a:	4806      	ldr	r0, [pc, #24]	; (8001e64 <HAL_TIM_MspPostInit+0x7c>)
 8001e4c:	9503      	str	r5, [sp, #12]
 8001e4e:	9405      	str	r4, [sp, #20]
 8001e50:	9302      	str	r3, [sp, #8]
 8001e52:	f000 ffa9 	bl	8002da8 <HAL_GPIO_Init>
 8001e56:	b007      	add	sp, #28
 8001e58:	bd30      	pop	{r4, r5, pc}
 8001e5a:	bf00      	nop
 8001e5c:	40012c00 	.word	0x40012c00
 8001e60:	40010c00 	.word	0x40010c00
 8001e64:	40010800 	.word	0x40010800

08001e68 <HAL_UART_MspInit>:
 8001e68:	b530      	push	{r4, r5, lr}
 8001e6a:	2400      	movs	r4, #0
 8001e6c:	6802      	ldr	r2, [r0, #0]
 8001e6e:	4b19      	ldr	r3, [pc, #100]	; (8001ed4 <HAL_UART_MspInit+0x6c>)
 8001e70:	b087      	sub	sp, #28
 8001e72:	429a      	cmp	r2, r3
 8001e74:	e9cd 4402 	strd	r4, r4, [sp, #8]
 8001e78:	e9cd 4404 	strd	r4, r4, [sp, #16]
 8001e7c:	d001      	beq.n	8001e82 <HAL_UART_MspInit+0x1a>
 8001e7e:	b007      	add	sp, #28
 8001e80:	bd30      	pop	{r4, r5, pc}
 8001e82:	f44f 6180 	mov.w	r1, #1024	; 0x400
 8001e86:	2502      	movs	r5, #2
 8001e88:	f503 33e4 	add.w	r3, r3, #116736	; 0x1c800
 8001e8c:	69da      	ldr	r2, [r3, #28]
 8001e8e:	4812      	ldr	r0, [pc, #72]	; (8001ed8 <HAL_UART_MspInit+0x70>)
 8001e90:	f442 2280 	orr.w	r2, r2, #262144	; 0x40000
 8001e94:	61da      	str	r2, [r3, #28]
 8001e96:	69da      	ldr	r2, [r3, #28]
 8001e98:	f402 2280 	and.w	r2, r2, #262144	; 0x40000
 8001e9c:	9200      	str	r2, [sp, #0]
 8001e9e:	9a00      	ldr	r2, [sp, #0]
 8001ea0:	699a      	ldr	r2, [r3, #24]
 8001ea2:	f042 0208 	orr.w	r2, r2, #8
 8001ea6:	619a      	str	r2, [r3, #24]
 8001ea8:	699b      	ldr	r3, [r3, #24]
 8001eaa:	9102      	str	r1, [sp, #8]
 8001eac:	f003 0308 	and.w	r3, r3, #8
 8001eb0:	9301      	str	r3, [sp, #4]
 8001eb2:	a902      	add	r1, sp, #8
 8001eb4:	9b01      	ldr	r3, [sp, #4]
 8001eb6:	9503      	str	r5, [sp, #12]
 8001eb8:	9505      	str	r5, [sp, #20]
 8001eba:	f000 ff75 	bl	8002da8 <HAL_GPIO_Init>
 8001ebe:	f44f 6300 	mov.w	r3, #2048	; 0x800
 8001ec2:	a902      	add	r1, sp, #8
 8001ec4:	4804      	ldr	r0, [pc, #16]	; (8001ed8 <HAL_UART_MspInit+0x70>)
 8001ec6:	e9cd 4403 	strd	r4, r4, [sp, #12]
 8001eca:	9302      	str	r3, [sp, #8]
 8001ecc:	f000 ff6c 	bl	8002da8 <HAL_GPIO_Init>
 8001ed0:	b007      	add	sp, #28
 8001ed2:	bd30      	pop	{r4, r5, pc}
 8001ed4:	40004800 	.word	0x40004800
 8001ed8:	40010c00 	.word	0x40010c00

08001edc <UI_TaskInit>:
 8001edc:	f8df c070 	ldr.w	ip, [pc, #112]	; 8001f50 <UI_TaskInit+0x74>
 8001ee0:	e92d 47f0 	stmdb	sp!, {r4, r5, r6, r7, r8, r9, sl, lr}
 8001ee4:	4664      	mov	r4, ip
 8001ee6:	460f      	mov	r7, r1
 8001ee8:	4690      	mov	r8, r2
 8001eea:	4699      	mov	r9, r3
 8001eec:	4d12      	ldr	r5, [pc, #72]	; (8001f38 <UI_TaskInit+0x5c>)
 8001eee:	4682      	mov	sl, r0
 8001ef0:	cd0f      	ldmia	r5!, {r0, r1, r2, r3}
 8001ef2:	c40f      	stmia	r4!, {r0, r1, r2, r3}
 8001ef4:	e895 0003 	ldmia.w	r5, {r0, r1}
 8001ef8:	4e10      	ldr	r6, [pc, #64]	; (8001f3c <UI_TaskInit+0x60>)
 8001efa:	4d11      	ldr	r5, [pc, #68]	; (8001f40 <UI_TaskInit+0x64>)
 8001efc:	b082      	sub	sp, #8
 8001efe:	e884 0003 	stmia.w	r4, {r0, r1}
 8001f02:	4630      	mov	r0, r6
 8001f04:	f8c5 c000 	str.w	ip, [r5]
 8001f08:	9c0a      	ldr	r4, [sp, #40]	; 0x28
 8001f0a:	f003 fcdd 	bl	80058c8 <UFCP_Init>
 8001f0e:	4b0d      	ldr	r3, [pc, #52]	; (8001f44 <UI_TaskInit+0x68>)
 8001f10:	6828      	ldr	r0, [r5, #0]
 8001f12:	4631      	mov	r1, r6
 8001f14:	9300      	str	r3, [sp, #0]
 8001f16:	9401      	str	r4, [sp, #4]
 8001f18:	4b0b      	ldr	r3, [pc, #44]	; (8001f48 <UI_TaskInit+0x6c>)
 8001f1a:	4a0c      	ldr	r2, [pc, #48]	; (8001f4c <UI_TaskInit+0x70>)
 8001f1c:	f7ff fc1e 	bl	800175c <MCP_Init>
 8001f20:	464b      	mov	r3, r9
 8001f22:	4642      	mov	r2, r8
 8001f24:	4639      	mov	r1, r7
 8001f26:	6828      	ldr	r0, [r5, #0]
 8001f28:	f8cd a028 	str.w	sl, [sp, #40]	; 0x28
 8001f2c:	b002      	add	sp, #8
 8001f2e:	e8bd 47f0 	ldmia.w	sp!, {r4, r5, r6, r7, r8, r9, sl, lr}
 8001f32:	f000 b83b 	b.w	8001fac <UI_Init>
 8001f36:	bf00      	nop
 8001f38:	200005cc 	.word	0x200005cc
 8001f3c:	20000460 	.word	0x20000460
 8001f40:	200005f8 	.word	0x200005f8
 8001f44:	08005b59 	.word	0x08005b59
 8001f48:	0800592d 	.word	0x0800592d
 8001f4c:	08005951 	.word	0x08005951
 8001f50:	200008a0 	.word	0x200008a0

08001f54 <UI_Scheduler>:
 8001f54:	4a0c      	ldr	r2, [pc, #48]	; (8001f88 <UI_Scheduler+0x34>)
 8001f56:	8813      	ldrh	r3, [r2, #0]
 8001f58:	b29b      	uxth	r3, r3
 8001f5a:	b11b      	cbz	r3, 8001f64 <UI_Scheduler+0x10>
 8001f5c:	8813      	ldrh	r3, [r2, #0]
 8001f5e:	3b01      	subs	r3, #1
 8001f60:	b29b      	uxth	r3, r3
 8001f62:	8013      	strh	r3, [r2, #0]
 8001f64:	4a09      	ldr	r2, [pc, #36]	; (8001f8c <UI_Scheduler+0x38>)
 8001f66:	8813      	ldrh	r3, [r2, #0]
 8001f68:	2b01      	cmp	r3, #1
 8001f6a:	d903      	bls.n	8001f74 <UI_Scheduler+0x20>
 8001f6c:	8813      	ldrh	r3, [r2, #0]
 8001f6e:	3b01      	subs	r3, #1
 8001f70:	b29b      	uxth	r3, r3
 8001f72:	8013      	strh	r3, [r2, #0]
 8001f74:	4a06      	ldr	r2, [pc, #24]	; (8001f90 <UI_Scheduler+0x3c>)
 8001f76:	8813      	ldrh	r3, [r2, #0]
 8001f78:	2b01      	cmp	r3, #1
 8001f7a:	d903      	bls.n	8001f84 <UI_Scheduler+0x30>
 8001f7c:	8813      	ldrh	r3, [r2, #0]
 8001f7e:	3b01      	subs	r3, #1
 8001f80:	b29b      	uxth	r3, r3
 8001f82:	8013      	strh	r3, [r2, #0]
 8001f84:	4770      	bx	lr
 8001f86:	bf00      	nop
 8001f88:	200005f6 	.word	0x200005f6
 8001f8c:	200005f4 	.word	0x200005f4
 8001f90:	200005a2 	.word	0x200005a2

08001f94 <UI_SerialCommunicationTimeOutStop>:
 8001f94:	2200      	movs	r2, #0
 8001f96:	4b01      	ldr	r3, [pc, #4]	; (8001f9c <UI_SerialCommunicationTimeOutStop+0x8>)
 8001f98:	801a      	strh	r2, [r3, #0]
 8001f9a:	4770      	bx	lr
 8001f9c:	200005f4 	.word	0x200005f4

08001fa0 <UI_SerialCommunicationTimeOutStart>:
 8001fa0:	224f      	movs	r2, #79	; 0x4f
 8001fa2:	4b01      	ldr	r3, [pc, #4]	; (8001fa8 <UI_SerialCommunicationTimeOutStart+0x8>)
 8001fa4:	801a      	strh	r2, [r3, #0]
 8001fa6:	4770      	bx	lr
 8001fa8:	200005f4 	.word	0x200005f4

08001fac <UI_Init>:
 8001fac:	b430      	push	{r4, r5}
 8001fae:	2500      	movs	r5, #0
 8001fb0:	9c02      	ldr	r4, [sp, #8]
 8001fb2:	7505      	strb	r5, [r0, #20]
 8001fb4:	6104      	str	r4, [r0, #16]
 8001fb6:	7101      	strb	r1, [r0, #4]
 8001fb8:	e9c0 2302 	strd	r2, r3, [r0, #8]
 8001fbc:	bc30      	pop	{r4, r5}
 8001fbe:	4770      	bx	lr

08001fc0 <UI_SelectMC>:
 8001fc0:	7903      	ldrb	r3, [r0, #4]
 8001fc2:	428b      	cmp	r3, r1
 8001fc4:	bf86      	itte	hi
 8001fc6:	7501      	strbhi	r1, [r0, #20]
 8001fc8:	2001      	movhi	r0, #1
 8001fca:	2000      	movls	r0, #0
 8001fcc:	4770      	bx	lr
 8001fce:	bf00      	nop

08001fd0 <UI_GetSelectedMC>:
 8001fd0:	7d00      	ldrb	r0, [r0, #20]
 8001fd2:	4770      	bx	lr

08001fd4 <UI_SetReg>:
 8001fd4:	b570      	push	{r4, r5, r6, lr}
 8001fd6:	e9d0 6502 	ldrd	r6, r5, [r0, #8]
 8001fda:	7d03      	ldrb	r3, [r0, #20]
 8001fdc:	b084      	sub	sp, #16
 8001fde:	4614      	mov	r4, r2
 8001fe0:	f856 6023 	ldr.w	r6, [r6, r3, lsl #2]
 8001fe4:	f855 5023 	ldr.w	r5, [r5, r3, lsl #2]
 8001fe8:	295b      	cmp	r1, #91	; 0x5b
 8001fea:	f200 80c5 	bhi.w	8002178 <UI_SetReg+0x1a4>
 8001fee:	e8df f001 	tbb	[pc, r1]
 8001ff2:	c33b      	.short	0xc33b
 8001ff4:	48c33fc3 	.word	0x48c33fc3
 8001ff8:	665a544e 	.word	0x665a544e
 8001ffc:	8478726c 	.word	0x8478726c
 8002000:	c3c3908a 	.word	0xc3c3908a
 8002004:	c3c3c3c3 	.word	0xc3c3c3c3
 8002008:	c3c3c3c3 	.word	0xc3c3c3c3
 800200c:	c3c3c3c3 	.word	0xc3c3c3c3
 8002010:	c3c3c3c3 	.word	0xc3c3c3c3
 8002014:	c3c3c3c3 	.word	0xc3c3c3c3
 8002018:	c3c3c3c3 	.word	0xc3c3c3c3
 800201c:	c3c3c3c3 	.word	0xc3c3c3c3
 8002020:	c3c3c3c3 	.word	0xc3c3c3c3
 8002024:	c3c3c3c3 	.word	0xc3c3c3c3
 8002028:	c3c3c3c3 	.word	0xc3c3c3c3
 800202c:	c3c3c3c3 	.word	0xc3c3c3c3
 8002030:	96c3c3c3 	.word	0x96c3c3c3
 8002034:	c3c3c3c3 	.word	0xc3c3c3c3
 8002038:	c3b6a99c 	.word	0xc3b6a99c
 800203c:	c3c3c3c3 	.word	0xc3c3c3c3
 8002040:	c3c3c3c3 	.word	0xc3c3c3c3
 8002044:	c3c3c3c3 	.word	0xc3c3c3c3
 8002048:	c3c3c3c3 	.word	0xc3c3c3c3
 800204c:	2ec3      	.short	0x2ec3
 800204e:	4955      	ldr	r1, [pc, #340]	; (80021a4 <UI_SetReg+0x1d0>)
 8002050:	4630      	mov	r0, r6
 8002052:	fb81 3102 	smull	r3, r1, r1, r2
 8002056:	eba1 71e2 	sub.w	r1, r1, r2, asr #31
 800205a:	b209      	sxth	r1, r1
 800205c:	2200      	movs	r2, #0
 800205e:	f7fe faf1 	bl	8000644 <MCI_ExecSpeedRamp>
 8002062:	2001      	movs	r0, #1
 8002064:	b004      	add	sp, #16
 8002066:	bd70      	pop	{r4, r5, r6, pc}
 8002068:	b2d1      	uxtb	r1, r2
 800206a:	f7ff ffa9 	bl	8001fc0 <UI_SelectMC>
 800206e:	e7f9      	b.n	8002064 <UI_SetReg+0x90>
 8002070:	f012 04ff 	ands.w	r4, r2, #255	; 0xff
 8002074:	f000 8082 	beq.w	800217c <UI_SetReg+0x1a8>
 8002078:	2c01      	cmp	r4, #1
 800207a:	f000 8089 	beq.w	8002190 <UI_SetReg+0x1bc>
 800207e:	2001      	movs	r0, #1
 8002080:	e7f0      	b.n	8002064 <UI_SetReg+0x90>
 8002082:	6828      	ldr	r0, [r5, #0]
 8002084:	b211      	sxth	r1, r2
 8002086:	f002 fc9d 	bl	80049c4 <PID_SetKP>
 800208a:	2001      	movs	r0, #1
 800208c:	e7ea      	b.n	8002064 <UI_SetReg+0x90>
 800208e:	6828      	ldr	r0, [r5, #0]
 8002090:	b211      	sxth	r1, r2
 8002092:	f002 fc99 	bl	80049c8 <PID_SetKI>
 8002096:	2001      	movs	r0, #1
 8002098:	e7e4      	b.n	8002064 <UI_SetReg+0x90>
 800209a:	6828      	ldr	r0, [r5, #0]
 800209c:	b211      	sxth	r1, r2
 800209e:	f002 fca3 	bl	80049e8 <PID_SetKD>
 80020a2:	2001      	movs	r0, #1
 80020a4:	e7de      	b.n	8002064 <UI_SetReg+0x90>
 80020a6:	4630      	mov	r0, r6
 80020a8:	f7fe fb76 	bl	8000798 <MCI_GetIqdref>
 80020ac:	9001      	str	r0, [sp, #4]
 80020ae:	f8ad 4004 	strh.w	r4, [sp, #4]
 80020b2:	4630      	mov	r0, r6
 80020b4:	9901      	ldr	r1, [sp, #4]
 80020b6:	f7fe fad9 	bl	800066c <MCI_SetCurrentReferences>
 80020ba:	2001      	movs	r0, #1
 80020bc:	e7d2      	b.n	8002064 <UI_SetReg+0x90>
 80020be:	6868      	ldr	r0, [r5, #4]
 80020c0:	b211      	sxth	r1, r2
 80020c2:	f002 fc7f 	bl	80049c4 <PID_SetKP>
 80020c6:	2001      	movs	r0, #1
 80020c8:	e7cc      	b.n	8002064 <UI_SetReg+0x90>
 80020ca:	6868      	ldr	r0, [r5, #4]
 80020cc:	b211      	sxth	r1, r2
 80020ce:	f002 fc7b 	bl	80049c8 <PID_SetKI>
 80020d2:	2001      	movs	r0, #1
 80020d4:	e7c6      	b.n	8002064 <UI_SetReg+0x90>
 80020d6:	6868      	ldr	r0, [r5, #4]
 80020d8:	b211      	sxth	r1, r2
 80020da:	f002 fc85 	bl	80049e8 <PID_SetKD>
 80020de:	2001      	movs	r0, #1
 80020e0:	e7c0      	b.n	8002064 <UI_SetReg+0x90>
 80020e2:	4630      	mov	r0, r6
 80020e4:	f7fe fb58 	bl	8000798 <MCI_GetIqdref>
 80020e8:	9001      	str	r0, [sp, #4]
 80020ea:	f8ad 4006 	strh.w	r4, [sp, #6]
 80020ee:	4630      	mov	r0, r6
 80020f0:	9901      	ldr	r1, [sp, #4]
 80020f2:	f7fe fabb 	bl	800066c <MCI_SetCurrentReferences>
 80020f6:	2001      	movs	r0, #1
 80020f8:	e7b4      	b.n	8002064 <UI_SetReg+0x90>
 80020fa:	68a8      	ldr	r0, [r5, #8]
 80020fc:	b211      	sxth	r1, r2
 80020fe:	f002 fc61 	bl	80049c4 <PID_SetKP>
 8002102:	2001      	movs	r0, #1
 8002104:	e7ae      	b.n	8002064 <UI_SetReg+0x90>
 8002106:	68a8      	ldr	r0, [r5, #8]
 8002108:	b211      	sxth	r1, r2
 800210a:	f002 fc5d 	bl	80049c8 <PID_SetKI>
 800210e:	2001      	movs	r0, #1
 8002110:	e7a8      	b.n	8002064 <UI_SetReg+0x90>
 8002112:	68a8      	ldr	r0, [r5, #8]
 8002114:	b211      	sxth	r1, r2
 8002116:	f002 fc67 	bl	80049e8 <PID_SetKD>
 800211a:	2001      	movs	r0, #1
 800211c:	e7a2      	b.n	8002064 <UI_SetReg+0x90>
 800211e:	4630      	mov	r0, r6
 8002120:	b211      	sxth	r1, r2
 8002122:	f7fe fb59 	bl	80007d8 <MCI_SetIdref>
 8002126:	2001      	movs	r0, #1
 8002128:	e79c      	b.n	8002064 <UI_SetReg+0x90>
 800212a:	ae01      	add	r6, sp, #4
 800212c:	4630      	mov	r0, r6
 800212e:	6c69      	ldr	r1, [r5, #68]	; 0x44
 8002130:	f003 fdda 	bl	8005ce8 <FF_GetFFConstants>
 8002134:	9402      	str	r4, [sp, #8]
 8002136:	6c68      	ldr	r0, [r5, #68]	; 0x44
 8002138:	e896 000e 	ldmia.w	r6, {r1, r2, r3}
 800213c:	f003 fdc6 	bl	8005ccc <FF_SetFFConstants>
 8002140:	2001      	movs	r0, #1
 8002142:	e78f      	b.n	8002064 <UI_SetReg+0x90>
 8002144:	ae01      	add	r6, sp, #4
 8002146:	4630      	mov	r0, r6
 8002148:	6c69      	ldr	r1, [r5, #68]	; 0x44
 800214a:	f003 fdcd 	bl	8005ce8 <FF_GetFFConstants>
 800214e:	9401      	str	r4, [sp, #4]
 8002150:	6c68      	ldr	r0, [r5, #68]	; 0x44
 8002152:	e896 000e 	ldmia.w	r6, {r1, r2, r3}
 8002156:	f003 fdb9 	bl	8005ccc <FF_SetFFConstants>
 800215a:	2001      	movs	r0, #1
 800215c:	e782      	b.n	8002064 <UI_SetReg+0x90>
 800215e:	ae01      	add	r6, sp, #4
 8002160:	4630      	mov	r0, r6
 8002162:	6c69      	ldr	r1, [r5, #68]	; 0x44
 8002164:	f003 fdc0 	bl	8005ce8 <FF_GetFFConstants>
 8002168:	9403      	str	r4, [sp, #12]
 800216a:	6c68      	ldr	r0, [r5, #68]	; 0x44
 800216c:	e896 000e 	ldmia.w	r6, {r1, r2, r3}
 8002170:	f003 fdac 	bl	8005ccc <FF_SetFFConstants>
 8002174:	2001      	movs	r0, #1
 8002176:	e775      	b.n	8002064 <UI_SetReg+0x90>
 8002178:	2000      	movs	r0, #0
 800217a:	e773      	b.n	8002064 <UI_SetReg+0x90>
 800217c:	4630      	mov	r0, r6
 800217e:	f7fe fb27 	bl	80007d0 <MCI_GetTeref>
 8002182:	4622      	mov	r2, r4
 8002184:	4601      	mov	r1, r0
 8002186:	4630      	mov	r0, r6
 8002188:	f7fe fa64 	bl	8000654 <MCI_ExecTorqueRamp>
 800218c:	2001      	movs	r0, #1
 800218e:	e769      	b.n	8002064 <UI_SetReg+0x90>
 8002190:	4630      	mov	r0, r6
 8002192:	f7fe fae5 	bl	8000760 <MCI_GetMecSpeedRefUnit>
 8002196:	2200      	movs	r2, #0
 8002198:	4601      	mov	r1, r0
 800219a:	4630      	mov	r0, r6
 800219c:	f7fe fa52 	bl	8000644 <MCI_ExecSpeedRamp>
 80021a0:	4620      	mov	r0, r4
 80021a2:	e75f      	b.n	8002064 <UI_SetReg+0x90>
 80021a4:	2aaaaaab 	.word	0x2aaaaaab

080021a8 <UI_GetReg>:
 80021a8:	b570      	push	{r4, r5, r6, lr}
 80021aa:	e9d0 4502 	ldrd	r4, r5, [r0, #8]
 80021ae:	7d03      	ldrb	r3, [r0, #20]
 80021b0:	b09a      	sub	sp, #104	; 0x68
 80021b2:	f855 5023 	ldr.w	r5, [r5, r3, lsl #2]
 80021b6:	f854 6023 	ldr.w	r6, [r4, r3, lsl #2]
 80021ba:	2a00      	cmp	r2, #0
 80021bc:	f000 8089 	beq.w	80022d2 <UI_GetReg+0x12a>
 80021c0:	2401      	movs	r4, #1
 80021c2:	7014      	strb	r4, [r2, #0]
 80021c4:	2981      	cmp	r1, #129	; 0x81
 80021c6:	f200 8203 	bhi.w	80025d0 <UI_GetReg+0x428>
 80021ca:	e8df f011 	tbh	[pc, r1, lsl #1]
 80021ce:	0125      	.short	0x0125
 80021d0:	011b011f 	.word	0x011b011f
 80021d4:	01100117 	.word	0x01100117
 80021d8:	0108010c 	.word	0x0108010c
 80021dc:	00ff0104 	.word	0x00ff0104
 80021e0:	01fb01c3 	.word	0x01fb01c3
 80021e4:	00fa01f7 	.word	0x00fa01f7
 80021e8:	01ef01f3 	.word	0x01ef01f3
 80021ec:	020101eb 	.word	0x020101eb
 80021f0:	02010201 	.word	0x02010201
 80021f4:	02010201 	.word	0x02010201
 80021f8:	02010201 	.word	0x02010201
 80021fc:	02010201 	.word	0x02010201
 8002200:	01e301e7 	.word	0x01e301e7
 8002204:	020101df 	.word	0x020101df
 8002208:	01d80201 	.word	0x01d80201
 800220c:	01ce01d3 	.word	0x01ce01d3
 8002210:	01c70201 	.word	0x01c70201
 8002214:	014d0152 	.word	0x014d0152
 8002218:	01b901be 	.word	0x01b901be
 800221c:	01ce01d3 	.word	0x01ce01d3
 8002220:	00fa00ff 	.word	0x00fa00ff
 8002224:	01af01b4 	.word	0x01af01b4
 8002228:	01a501aa 	.word	0x01a501aa
 800222c:	017b0190 	.word	0x017b0190
 8002230:	02010201 	.word	0x02010201
 8002234:	02010201 	.word	0x02010201
 8002238:	02010201 	.word	0x02010201
 800223c:	02010201 	.word	0x02010201
 8002240:	02010201 	.word	0x02010201
 8002244:	02010201 	.word	0x02010201
 8002248:	02010201 	.word	0x02010201
 800224c:	016d0174 	.word	0x016d0174
 8002250:	020100fa 	.word	0x020100fa
 8002254:	02010201 	.word	0x02010201
 8002258:	01630201 	.word	0x01630201
 800225c:	0157015d 	.word	0x0157015d
 8002260:	01430148 	.word	0x01430148
 8002264:	0139013e 	.word	0x0139013e
 8002268:	02010201 	.word	0x02010201
 800226c:	02010201 	.word	0x02010201
 8002270:	02010201 	.word	0x02010201
 8002274:	02010201 	.word	0x02010201
 8002278:	02010201 	.word	0x02010201
 800227c:	02010201 	.word	0x02010201
 8002280:	02010201 	.word	0x02010201
 8002284:	0201012c 	.word	0x0201012c
 8002288:	02010201 	.word	0x02010201
 800228c:	02010201 	.word	0x02010201
 8002290:	02010201 	.word	0x02010201
 8002294:	02010201 	.word	0x02010201
 8002298:	02010201 	.word	0x02010201
 800229c:	02010201 	.word	0x02010201
 80022a0:	02010201 	.word	0x02010201
 80022a4:	02010201 	.word	0x02010201
 80022a8:	01280201 	.word	0x01280201
 80022ac:	01ff0169 	.word	0x01ff0169
 80022b0:	00f70201 	.word	0x00f70201
 80022b4:	020100f7 	.word	0x020100f7
 80022b8:	02010201 	.word	0x02010201
 80022bc:	02010201 	.word	0x02010201
 80022c0:	02010201 	.word	0x02010201
 80022c4:	02010201 	.word	0x02010201
 80022c8:	02010201 	.word	0x02010201
 80022cc:	02010201 	.word	0x02010201
 80022d0:	00f7      	.short	0x00f7
 80022d2:	2970      	cmp	r1, #112	; 0x70
 80022d4:	d872      	bhi.n	80023bc <UI_GetReg+0x214>
 80022d6:	e8df f011 	tbh	[pc, r1, lsl #1]
 80022da:	009f      	.short	0x009f
 80022dc:	00950099 	.word	0x00950099
 80022e0:	008a0091 	.word	0x008a0091
 80022e4:	00820086 	.word	0x00820086
 80022e8:	0079007e 	.word	0x0079007e
 80022ec:	0175013d 	.word	0x0175013d
 80022f0:	00740171 	.word	0x00740171
 80022f4:	0169016d 	.word	0x0169016d
 80022f8:	00710165 	.word	0x00710165
 80022fc:	00710071 	.word	0x00710071
 8002300:	00710071 	.word	0x00710071
 8002304:	00710071 	.word	0x00710071
 8002308:	00710071 	.word	0x00710071
 800230c:	015d0161 	.word	0x015d0161
 8002310:	00710159 	.word	0x00710159
 8002314:	01520071 	.word	0x01520071
 8002318:	0148014d 	.word	0x0148014d
 800231c:	01410071 	.word	0x01410071
 8002320:	00c700cc 	.word	0x00c700cc
 8002324:	01330138 	.word	0x01330138
 8002328:	0148014d 	.word	0x0148014d
 800232c:	00740079 	.word	0x00740079
 8002330:	0129012e 	.word	0x0129012e
 8002334:	011f0124 	.word	0x011f0124
 8002338:	00f5010a 	.word	0x00f5010a
 800233c:	00710071 	.word	0x00710071
 8002340:	00710071 	.word	0x00710071
 8002344:	00710071 	.word	0x00710071
 8002348:	00710071 	.word	0x00710071
 800234c:	00710071 	.word	0x00710071
 8002350:	00710071 	.word	0x00710071
 8002354:	00710071 	.word	0x00710071
 8002358:	00e700ee 	.word	0x00e700ee
 800235c:	00710074 	.word	0x00710074
 8002360:	00710071 	.word	0x00710071
 8002364:	00dd0071 	.word	0x00dd0071
 8002368:	00d100d7 	.word	0x00d100d7
 800236c:	00bd00c2 	.word	0x00bd00c2
 8002370:	00b300b8 	.word	0x00b300b8
 8002374:	00710071 	.word	0x00710071
 8002378:	00710071 	.word	0x00710071
 800237c:	00710071 	.word	0x00710071
 8002380:	00710071 	.word	0x00710071
 8002384:	00710071 	.word	0x00710071
 8002388:	00710071 	.word	0x00710071
 800238c:	00710071 	.word	0x00710071
 8002390:	007100a6 	.word	0x007100a6
 8002394:	00710071 	.word	0x00710071
 8002398:	00710071 	.word	0x00710071
 800239c:	00710071 	.word	0x00710071
 80023a0:	00710071 	.word	0x00710071
 80023a4:	00710071 	.word	0x00710071
 80023a8:	00710071 	.word	0x00710071
 80023ac:	00710071 	.word	0x00710071
 80023b0:	00710071 	.word	0x00710071
 80023b4:	00a20071 	.word	0x00a20071
 80023b8:	017900e3 	.word	0x017900e3
 80023bc:	2000      	movs	r0, #0
 80023be:	b01a      	add	sp, #104	; 0x68
 80023c0:	bd70      	pop	{r4, r5, r6, pc}
 80023c2:	4630      	mov	r0, r6
 80023c4:	f7fe f9e8 	bl	8000798 <MCI_GetIqdref>
 80023c8:	1400      	asrs	r0, r0, #16
 80023ca:	e7f8      	b.n	80023be <UI_GetReg+0x216>
 80023cc:	4630      	mov	r0, r6
 80023ce:	f7fe f9e3 	bl	8000798 <MCI_GetIqdref>
 80023d2:	b200      	sxth	r0, r0
 80023d4:	e7f3      	b.n	80023be <UI_GetReg+0x216>
 80023d6:	6828      	ldr	r0, [r5, #0]
 80023d8:	f002 fb08 	bl	80049ec <PID_GetKD>
 80023dc:	e7ef      	b.n	80023be <UI_GetReg+0x216>
 80023de:	6828      	ldr	r0, [r5, #0]
 80023e0:	f002 faf8 	bl	80049d4 <PID_GetKI>
 80023e4:	e7eb      	b.n	80023be <UI_GetReg+0x216>
 80023e6:	6828      	ldr	r0, [r5, #0]
 80023e8:	f002 faf0 	bl	80049cc <PID_GetKP>
 80023ec:	e7e7      	b.n	80023be <UI_GetReg+0x216>
 80023ee:	4630      	mov	r0, r6
 80023f0:	f7fe f9b6 	bl	8000760 <MCI_GetMecSpeedRefUnit>
 80023f4:	eb00 0040 	add.w	r0, r0, r0, lsl #1
 80023f8:	0040      	lsls	r0, r0, #1
 80023fa:	e7e0      	b.n	80023be <UI_GetReg+0x216>
 80023fc:	4630      	mov	r0, r6
 80023fe:	f7fe f999 	bl	8000734 <MCI_GetControlMode>
 8002402:	e7dc      	b.n	80023be <UI_GetReg+0x216>
 8002404:	6aa8      	ldr	r0, [r5, #40]	; 0x28
 8002406:	f003 fa4b 	bl	80058a0 <STM_GetState>
 800240a:	e7d8      	b.n	80023be <UI_GetReg+0x216>
 800240c:	6aa8      	ldr	r0, [r5, #40]	; 0x28
 800240e:	b01a      	add	sp, #104	; 0x68
 8002410:	e8bd 4070 	ldmia.w	sp!, {r4, r5, r6, lr}
 8002414:	f003 ba52 	b.w	80058bc <STM_GetFaultState>
 8002418:	f7ff fdda 	bl	8001fd0 <UI_GetSelectedMC>
 800241c:	e7cf      	b.n	80023be <UI_GetReg+0x216>
 800241e:	6828      	ldr	r0, [r5, #0]
 8002420:	f002 fade 	bl	80049e0 <PID_GetKPDivisor>
 8002424:	e7cb      	b.n	80023be <UI_GetReg+0x216>
 8002426:	4630      	mov	r0, r6
 8002428:	f7fe f984 	bl	8000734 <MCI_GetControlMode>
 800242c:	2801      	cmp	r0, #1
 800242e:	4630      	mov	r0, r6
 8002430:	f000 80da 	beq.w	80025e8 <UI_GetReg+0x440>
 8002434:	f7fe f994 	bl	8000760 <MCI_GetMecSpeedRefUnit>
 8002438:	eb00 0040 	add.w	r0, r0, r0, lsl #1
 800243c:	0040      	lsls	r0, r0, #1
 800243e:	e7be      	b.n	80023be <UI_GetReg+0x216>
 8002440:	6c68      	ldr	r0, [r5, #68]	; 0x44
 8002442:	f003 fc67 	bl	8005d14 <FF_GetVqdAvPIout>
 8002446:	1400      	asrs	r0, r0, #16
 8002448:	e7b9      	b.n	80023be <UI_GetReg+0x216>
 800244a:	6c68      	ldr	r0, [r5, #68]	; 0x44
 800244c:	f003 fc62 	bl	8005d14 <FF_GetVqdAvPIout>
 8002450:	b200      	sxth	r0, r0
 8002452:	e7b4      	b.n	80023be <UI_GetReg+0x216>
 8002454:	6c68      	ldr	r0, [r5, #68]	; 0x44
 8002456:	f003 fc51 	bl	8005cfc <FF_GetVqdff>
 800245a:	1400      	asrs	r0, r0, #16
 800245c:	e7af      	b.n	80023be <UI_GetReg+0x216>
 800245e:	6c68      	ldr	r0, [r5, #68]	; 0x44
 8002460:	f003 fc4c 	bl	8005cfc <FF_GetVqdff>
 8002464:	b200      	sxth	r0, r0
 8002466:	e7aa      	b.n	80023be <UI_GetReg+0x216>
 8002468:	4630      	mov	r0, r6
 800246a:	f7fe f97d 	bl	8000768 <MCI_GetIab>
 800246e:	1400      	asrs	r0, r0, #16
 8002470:	e7a5      	b.n	80023be <UI_GetReg+0x216>
 8002472:	4630      	mov	r0, r6
 8002474:	f7fe f978 	bl	8000768 <MCI_GetIab>
 8002478:	b200      	sxth	r0, r0
 800247a:	e7a0      	b.n	80023be <UI_GetReg+0x216>
 800247c:	a817      	add	r0, sp, #92	; 0x5c
 800247e:	6c69      	ldr	r1, [r5, #68]	; 0x44
 8002480:	f003 fc32 	bl	8005ce8 <FF_GetFFConstants>
 8002484:	9819      	ldr	r0, [sp, #100]	; 0x64
 8002486:	e79a      	b.n	80023be <UI_GetReg+0x216>
 8002488:	a814      	add	r0, sp, #80	; 0x50
 800248a:	6c69      	ldr	r1, [r5, #68]	; 0x44
 800248c:	f003 fc2c 	bl	8005ce8 <FF_GetFFConstants>
 8002490:	9814      	ldr	r0, [sp, #80]	; 0x50
 8002492:	e794      	b.n	80023be <UI_GetReg+0x216>
 8002494:	a811      	add	r0, sp, #68	; 0x44
 8002496:	6c69      	ldr	r1, [r5, #68]	; 0x44
 8002498:	f003 fc26 	bl	8005ce8 <FF_GetFFConstants>
 800249c:	9812      	ldr	r0, [sp, #72]	; 0x48
 800249e:	e78e      	b.n	80023be <UI_GetReg+0x216>
 80024a0:	6828      	ldr	r0, [r5, #0]
 80024a2:	f002 fa9f 	bl	80049e4 <PID_GetKIDivisor>
 80024a6:	e78a      	b.n	80023be <UI_GetReg+0x216>
 80024a8:	6a68      	ldr	r0, [r5, #36]	; 0x24
 80024aa:	f003 f949 	bl	8005740 <STC_GetMinAppNegativeMecSpeedUnit>
 80024ae:	eb00 0040 	add.w	r0, r0, r0, lsl #1
 80024b2:	0040      	lsls	r0, r0, #1
 80024b4:	e783      	b.n	80023be <UI_GetReg+0x216>
 80024b6:	6a68      	ldr	r0, [r5, #36]	; 0x24
 80024b8:	f003 f940 	bl	800573c <STC_GetMaxAppPositiveMecSpeedUnit>
 80024bc:	eb00 0040 	add.w	r0, r0, r0, lsl #1
 80024c0:	0040      	lsls	r0, r0, #1
 80024c2:	e77c      	b.n	80023be <UI_GetReg+0x216>
 80024c4:	6902      	ldr	r2, [r0, #16]
 80024c6:	f852 3023 	ldr.w	r3, [r2, r3, lsl #2]
 80024ca:	0f1a      	lsrs	r2, r3, #28
 80024cc:	3a01      	subs	r2, #1
 80024ce:	f3c3 6303 	ubfx	r3, r3, #24, #4
 80024d2:	2a01      	cmp	r2, #1
 80024d4:	f103 33ff 	add.w	r3, r3, #4294967295
 80024d8:	d97e      	bls.n	80025d8 <UI_GetReg+0x430>
 80024da:	2b01      	cmp	r3, #1
 80024dc:	f63f af6e 	bhi.w	80023bc <UI_GetReg+0x214>
 80024e0:	69e8      	ldr	r0, [r5, #28]
 80024e2:	2800      	cmp	r0, #0
 80024e4:	f43f af6a 	beq.w	80023bc <UI_GetReg+0x214>
 80024e8:	f003 f86a 	bl	80055c0 <SPD_GetS16Speed>
 80024ec:	e767      	b.n	80023be <UI_GetReg+0x216>
 80024ee:	6902      	ldr	r2, [r0, #16]
 80024f0:	f852 3023 	ldr.w	r3, [r2, r3, lsl #2]
 80024f4:	0f1a      	lsrs	r2, r3, #28
 80024f6:	3a01      	subs	r2, #1
 80024f8:	f3c3 6303 	ubfx	r3, r3, #24, #4
 80024fc:	2a01      	cmp	r2, #1
 80024fe:	f103 33ff 	add.w	r3, r3, #4294967295
 8002502:	d96d      	bls.n	80025e0 <UI_GetReg+0x438>
 8002504:	2b01      	cmp	r3, #1
 8002506:	f63f af59 	bhi.w	80023bc <UI_GetReg+0x214>
 800250a:	69e8      	ldr	r0, [r5, #28]
 800250c:	2800      	cmp	r0, #0
 800250e:	f43f af55 	beq.w	80023bc <UI_GetReg+0x214>
 8002512:	f003 f815 	bl	8005540 <SPD_GetElAngle>
 8002516:	e752      	b.n	80023be <UI_GetReg+0x216>
 8002518:	4630      	mov	r0, r6
 800251a:	f7fe f94f 	bl	80007bc <MCI_GetValphabeta>
 800251e:	1400      	asrs	r0, r0, #16
 8002520:	e74d      	b.n	80023be <UI_GetReg+0x216>
 8002522:	4630      	mov	r0, r6
 8002524:	f7fe f94a 	bl	80007bc <MCI_GetValphabeta>
 8002528:	b200      	sxth	r0, r0
 800252a:	e748      	b.n	80023be <UI_GetReg+0x216>
 800252c:	4630      	mov	r0, r6
 800252e:	f7fe f93b 	bl	80007a8 <MCI_GetVqd>
 8002532:	1400      	asrs	r0, r0, #16
 8002534:	e743      	b.n	80023be <UI_GetReg+0x216>
 8002536:	4630      	mov	r0, r6
 8002538:	f7fe f936 	bl	80007a8 <MCI_GetVqd>
 800253c:	b200      	sxth	r0, r0
 800253e:	e73e      	b.n	80023be <UI_GetReg+0x216>
 8002540:	4630      	mov	r0, r6
 8002542:	f7fe f919 	bl	8000778 <MCI_GetIalphabeta>
 8002546:	1400      	asrs	r0, r0, #16
 8002548:	e739      	b.n	80023be <UI_GetReg+0x216>
 800254a:	4630      	mov	r0, r6
 800254c:	f7fe f914 	bl	8000778 <MCI_GetIalphabeta>
 8002550:	b200      	sxth	r0, r0
 8002552:	e734      	b.n	80023be <UI_GetReg+0x216>
 8002554:	6868      	ldr	r0, [r5, #4]
 8002556:	f002 fa39 	bl	80049cc <PID_GetKP>
 800255a:	e730      	b.n	80023be <UI_GetReg+0x216>
 800255c:	6968      	ldr	r0, [r5, #20]
 800255e:	2800      	cmp	r0, #0
 8002560:	f43f af2c 	beq.w	80023bc <UI_GetReg+0x214>
 8002564:	f003 fc0a 	bl	8005d7c <RUC_GetNumberOfPhases>
 8002568:	e729      	b.n	80023be <UI_GetReg+0x216>
 800256a:	4630      	mov	r0, r6
 800256c:	f7fe f90c 	bl	8000788 <MCI_GetIqd>
 8002570:	1400      	asrs	r0, r0, #16
 8002572:	e724      	b.n	80023be <UI_GetReg+0x216>
 8002574:	4630      	mov	r0, r6
 8002576:	f7fe f907 	bl	8000788 <MCI_GetIqd>
 800257a:	b200      	sxth	r0, r0
 800257c:	e71f      	b.n	80023be <UI_GetReg+0x216>
 800257e:	4630      	mov	r0, r6
 8002580:	f7fe f8e6 	bl	8000750 <MCI_GetAvrgMecSpeedUnit>
 8002584:	eb00 0040 	add.w	r0, r0, r0, lsl #1
 8002588:	0040      	lsls	r0, r0, #1
 800258a:	e718      	b.n	80023be <UI_GetReg+0x216>
 800258c:	6be8      	ldr	r0, [r5, #60]	; 0x3c
 800258e:	f002 f9b3 	bl	80048f8 <MPM_GetAvrgElMotorPowerW>
 8002592:	e714      	b.n	80023be <UI_GetReg+0x216>
 8002594:	6ae8      	ldr	r0, [r5, #44]	; 0x2c
 8002596:	f002 f9f5 	bl	8004984 <NTC_GetAvTemp_C>
 800259a:	e710      	b.n	80023be <UI_GetReg+0x216>
 800259c:	6b28      	ldr	r0, [r5, #48]	; 0x30
 800259e:	f001 fd1b 	bl	8003fd8 <VBS_GetAvBusVoltage_V>
 80025a2:	e70c      	b.n	80023be <UI_GetReg+0x216>
 80025a4:	68a8      	ldr	r0, [r5, #8]
 80025a6:	f002 fa21 	bl	80049ec <PID_GetKD>
 80025aa:	e708      	b.n	80023be <UI_GetReg+0x216>
 80025ac:	68a8      	ldr	r0, [r5, #8]
 80025ae:	f002 fa11 	bl	80049d4 <PID_GetKI>
 80025b2:	e704      	b.n	80023be <UI_GetReg+0x216>
 80025b4:	68a8      	ldr	r0, [r5, #8]
 80025b6:	f002 fa09 	bl	80049cc <PID_GetKP>
 80025ba:	e700      	b.n	80023be <UI_GetReg+0x216>
 80025bc:	6868      	ldr	r0, [r5, #4]
 80025be:	f002 fa15 	bl	80049ec <PID_GetKD>
 80025c2:	e6fc      	b.n	80023be <UI_GetReg+0x216>
 80025c4:	6868      	ldr	r0, [r5, #4]
 80025c6:	f002 fa05 	bl	80049d4 <PID_GetKI>
 80025ca:	e6f8      	b.n	80023be <UI_GetReg+0x216>
 80025cc:	4809      	ldr	r0, [pc, #36]	; (80025f4 <UI_GetReg+0x44c>)
 80025ce:	e6f6      	b.n	80023be <UI_GetReg+0x216>
 80025d0:	2300      	movs	r3, #0
 80025d2:	4618      	mov	r0, r3
 80025d4:	7013      	strb	r3, [r2, #0]
 80025d6:	e6f2      	b.n	80023be <UI_GetReg+0x216>
 80025d8:	2b01      	cmp	r3, #1
 80025da:	69a8      	ldr	r0, [r5, #24]
 80025dc:	d881      	bhi.n	80024e2 <UI_GetReg+0x33a>
 80025de:	e77f      	b.n	80024e0 <UI_GetReg+0x338>
 80025e0:	2b01      	cmp	r3, #1
 80025e2:	69a8      	ldr	r0, [r5, #24]
 80025e4:	d892      	bhi.n	800250c <UI_GetReg+0x364>
 80025e6:	e790      	b.n	800250a <UI_GetReg+0x362>
 80025e8:	f7fe f8a6 	bl	8000738 <MCI_GetLastRampFinalSpeed>
 80025ec:	eb00 0040 	add.w	r0, r0, r0, lsl #1
 80025f0:	0040      	lsls	r0, r0, #1
 80025f2:	e6e4      	b.n	80023be <UI_GetReg+0x216>
 80025f4:	34a6847a 	.word	0x34a6847a

080025f8 <UI_ExecCmd>:
 80025f8:	b510      	push	{r4, lr}
 80025fa:	6883      	ldr	r3, [r0, #8]
 80025fc:	7d02      	ldrb	r2, [r0, #20]
 80025fe:	3901      	subs	r1, #1
 8002600:	f853 4022 	ldr.w	r4, [r3, r2, lsl #2]
 8002604:	290d      	cmp	r1, #13
 8002606:	d82c      	bhi.n	8002662 <UI_ExecCmd+0x6a>
 8002608:	e8df f001 	tbb	[pc, r1]
 800260c:	0c071217 	.word	0x0c071217
 8002610:	261c0e0c 	.word	0x261c0e0c
 8002614:	2b2b2b21 	.word	0x2b2b2b21
 8002618:	122b      	.short	0x122b
 800261a:	4620      	mov	r0, r4
 800261c:	f7fe f886 	bl	800072c <MCI_GetSTMState>
 8002620:	2806      	cmp	r0, #6
 8002622:	d020      	beq.n	8002666 <UI_ExecCmd+0x6e>
 8002624:	2001      	movs	r0, #1
 8002626:	bd10      	pop	{r4, pc}
 8002628:	4620      	mov	r0, r4
 800262a:	f7fe f87f 	bl	800072c <MCI_GetSTMState>
 800262e:	b120      	cbz	r0, 800263a <UI_ExecCmd+0x42>
 8002630:	4620      	mov	r0, r4
 8002632:	f7fe f833 	bl	800069c <MCI_StopMotor>
 8002636:	2001      	movs	r0, #1
 8002638:	bd10      	pop	{r4, pc}
 800263a:	4620      	mov	r0, r4
 800263c:	f7fe f824 	bl	8000688 <MCI_StartMotor>
 8002640:	2001      	movs	r0, #1
 8002642:	bd10      	pop	{r4, pc}
 8002644:	4620      	mov	r0, r4
 8002646:	f7fe f82d 	bl	80006a4 <MCI_FaultAcknowledged>
 800264a:	2001      	movs	r0, #1
 800264c:	bd10      	pop	{r4, pc}
 800264e:	4620      	mov	r0, r4
 8002650:	f7fe f8c6 	bl	80007e0 <MCI_Clear_Iqdref>
 8002654:	2001      	movs	r0, #1
 8002656:	bd10      	pop	{r4, pc}
 8002658:	4620      	mov	r0, r4
 800265a:	f7fe f827 	bl	80006ac <MCI_EncoderAlign>
 800265e:	2001      	movs	r0, #1
 8002660:	bd10      	pop	{r4, pc}
 8002662:	2000      	movs	r0, #0
 8002664:	bd10      	pop	{r4, pc}
 8002666:	4620      	mov	r0, r4
 8002668:	f7fe f86e 	bl	8000748 <MCI_StopRamp>
 800266c:	2001      	movs	r0, #1
 800266e:	bd10      	pop	{r4, pc}

08002670 <UI_ExecSpeedRamp>:
 8002670:	b510      	push	{r4, lr}
 8002672:	4b07      	ldr	r3, [pc, #28]	; (8002690 <UI_ExecSpeedRamp+0x20>)
 8002674:	7d04      	ldrb	r4, [r0, #20]
 8002676:	fb83 c301 	smull	ip, r3, r3, r1
 800267a:	6880      	ldr	r0, [r0, #8]
 800267c:	eba3 71e1 	sub.w	r1, r3, r1, asr #31
 8002680:	f850 0024 	ldr.w	r0, [r0, r4, lsl #2]
 8002684:	b209      	sxth	r1, r1
 8002686:	f7fd ffdd 	bl	8000644 <MCI_ExecSpeedRamp>
 800268a:	2001      	movs	r0, #1
 800268c:	bd10      	pop	{r4, pc}
 800268e:	bf00      	nop
 8002690:	2aaaaaab 	.word	0x2aaaaaab

08002694 <UI_ExecTorqueRamp>:
 8002694:	b510      	push	{r4, lr}
 8002696:	6883      	ldr	r3, [r0, #8]
 8002698:	7d04      	ldrb	r4, [r0, #20]
 800269a:	f853 0024 	ldr.w	r0, [r3, r4, lsl #2]
 800269e:	f7fd ffd9 	bl	8000654 <MCI_ExecTorqueRamp>
 80026a2:	2001      	movs	r0, #1
 80026a4:	bd10      	pop	{r4, pc}
 80026a6:	bf00      	nop

080026a8 <UI_GetRevupData>:
 80026a8:	b5f8      	push	{r3, r4, r5, r6, r7, lr}
 80026aa:	7d04      	ldrb	r4, [r0, #20]
 80026ac:	68c0      	ldr	r0, [r0, #12]
 80026ae:	f850 0024 	ldr.w	r0, [r0, r4, lsl #2]
 80026b2:	6944      	ldr	r4, [r0, #20]
 80026b4:	b194      	cbz	r4, 80026dc <UI_GetRevupData+0x34>
 80026b6:	4620      	mov	r0, r4
 80026b8:	461e      	mov	r6, r3
 80026ba:	4617      	mov	r7, r2
 80026bc:	460d      	mov	r5, r1
 80026be:	f003 fb47 	bl	8005d50 <RUC_GetPhaseDurationms>
 80026c2:	4629      	mov	r1, r5
 80026c4:	8038      	strh	r0, [r7, #0]
 80026c6:	4620      	mov	r0, r4
 80026c8:	f003 fb48 	bl	8005d5c <RUC_GetPhaseFinalMecSpeedUnit>
 80026cc:	4629      	mov	r1, r5
 80026ce:	8030      	strh	r0, [r6, #0]
 80026d0:	4620      	mov	r0, r4
 80026d2:	f003 fb4b 	bl	8005d6c <RUC_GetPhaseFinalTorque>
 80026d6:	2401      	movs	r4, #1
 80026d8:	9b06      	ldr	r3, [sp, #24]
 80026da:	8018      	strh	r0, [r3, #0]
 80026dc:	4620      	mov	r0, r4
 80026de:	bdf8      	pop	{r3, r4, r5, r6, r7, pc}

080026e0 <UI_SetRevupData>:
 80026e0:	b5f8      	push	{r3, r4, r5, r6, r7, lr}
 80026e2:	460d      	mov	r5, r1
 80026e4:	461f      	mov	r7, r3
 80026e6:	7d04      	ldrb	r4, [r0, #20]
 80026e8:	68c0      	ldr	r0, [r0, #12]
 80026ea:	f9bd 6018 	ldrsh.w	r6, [sp, #24]
 80026ee:	f850 3024 	ldr.w	r3, [r0, r4, lsl #2]
 80026f2:	695c      	ldr	r4, [r3, #20]
 80026f4:	4620      	mov	r0, r4
 80026f6:	f003 fb19 	bl	8005d2c <RUC_SetPhaseDurationms>
 80026fa:	463a      	mov	r2, r7
 80026fc:	4629      	mov	r1, r5
 80026fe:	4620      	mov	r0, r4
 8002700:	f003 fb1a 	bl	8005d38 <RUC_SetPhaseFinalMecSpeedUnit>
 8002704:	4620      	mov	r0, r4
 8002706:	4632      	mov	r2, r6
 8002708:	4629      	mov	r1, r5
 800270a:	f003 fb1b 	bl	8005d44 <RUC_SetPhaseFinalTorque>
 800270e:	2001      	movs	r0, #1
 8002710:	bdf8      	pop	{r3, r4, r5, r6, r7, pc}
 8002712:	bf00      	nop

08002714 <UI_SetCurrentReferences>:
 8002714:	b410      	push	{r4}
 8002716:	6883      	ldr	r3, [r0, #8]
 8002718:	b083      	sub	sp, #12
 800271a:	7d04      	ldrb	r4, [r0, #20]
 800271c:	f8ad 1004 	strh.w	r1, [sp, #4]
 8002720:	f8ad 2006 	strh.w	r2, [sp, #6]
 8002724:	f853 0024 	ldr.w	r0, [r3, r4, lsl #2]
 8002728:	9901      	ldr	r1, [sp, #4]
 800272a:	b003      	add	sp, #12
 800272c:	bc10      	pop	{r4}
 800272e:	f7fd bf9d 	b.w	800066c <MCI_SetCurrentReferences>
 8002732:	bf00      	nop

08002734 <UI_GetMPInfo>:
 8002734:	2000      	movs	r0, #0
 8002736:	4770      	bx	lr

08002738 <SystemInit>:
 8002738:	4770      	bx	lr
 800273a:	bf00      	nop

0800273c <HAL_InitTick>:
 800273c:	b538      	push	{r3, r4, r5, lr}
 800273e:	f44f 737a 	mov.w	r3, #1000	; 0x3e8
 8002742:	490d      	ldr	r1, [pc, #52]	; (8002778 <HAL_InitTick+0x3c>)
 8002744:	4a0d      	ldr	r2, [pc, #52]	; (800277c <HAL_InitTick+0x40>)
 8002746:	7809      	ldrb	r1, [r1, #0]
 8002748:	6812      	ldr	r2, [r2, #0]
 800274a:	fbb3 f3f1 	udiv	r3, r3, r1
 800274e:	4605      	mov	r5, r0
 8002750:	fbb2 f0f3 	udiv	r0, r2, r3
 8002754:	f000 fad6 	bl	8002d04 <HAL_SYSTICK_Config>
 8002758:	b908      	cbnz	r0, 800275e <HAL_InitTick+0x22>
 800275a:	2d0f      	cmp	r5, #15
 800275c:	d901      	bls.n	8002762 <HAL_InitTick+0x26>
 800275e:	2001      	movs	r0, #1
 8002760:	bd38      	pop	{r3, r4, r5, pc}
 8002762:	4604      	mov	r4, r0
 8002764:	4602      	mov	r2, r0
 8002766:	4629      	mov	r1, r5
 8002768:	f04f 30ff 	mov.w	r0, #4294967295
 800276c:	f000 fa86 	bl	8002c7c <HAL_NVIC_SetPriority>
 8002770:	4b03      	ldr	r3, [pc, #12]	; (8002780 <HAL_InitTick+0x44>)
 8002772:	4620      	mov	r0, r4
 8002774:	601d      	str	r5, [r3, #0]
 8002776:	bd38      	pop	{r3, r4, r5, pc}
 8002778:	200005a8 	.word	0x200005a8
 800277c:	200005a4 	.word	0x200005a4
 8002780:	200005ac 	.word	0x200005ac

08002784 <HAL_Init>:
 8002784:	4a07      	ldr	r2, [pc, #28]	; (80027a4 <HAL_Init+0x20>)
 8002786:	b508      	push	{r3, lr}
 8002788:	6813      	ldr	r3, [r2, #0]
 800278a:	2003      	movs	r0, #3
 800278c:	f043 0310 	orr.w	r3, r3, #16
 8002790:	6013      	str	r3, [r2, #0]
 8002792:	f000 fa61 	bl	8002c58 <HAL_NVIC_SetPriorityGrouping>
 8002796:	2004      	movs	r0, #4
 8002798:	f7ff ffd0 	bl	800273c <HAL_InitTick>
 800279c:	f7ff fa44 	bl	8001c28 <HAL_MspInit>
 80027a0:	2000      	movs	r0, #0
 80027a2:	bd08      	pop	{r3, pc}
 80027a4:	40022000 	.word	0x40022000

080027a8 <HAL_IncTick>:
 80027a8:	4a03      	ldr	r2, [pc, #12]	; (80027b8 <HAL_IncTick+0x10>)
 80027aa:	4b04      	ldr	r3, [pc, #16]	; (80027bc <HAL_IncTick+0x14>)
 80027ac:	6811      	ldr	r1, [r2, #0]
 80027ae:	781b      	ldrb	r3, [r3, #0]
 80027b0:	440b      	add	r3, r1
 80027b2:	6013      	str	r3, [r2, #0]
 80027b4:	4770      	bx	lr
 80027b6:	bf00      	nop
 80027b8:	20000950 	.word	0x20000950
 80027bc:	200005a8 	.word	0x200005a8

080027c0 <HAL_GetTick>:
 80027c0:	4b01      	ldr	r3, [pc, #4]	; (80027c8 <HAL_GetTick+0x8>)
 80027c2:	6818      	ldr	r0, [r3, #0]
 80027c4:	4770      	bx	lr
 80027c6:	bf00      	nop
 80027c8:	20000950 	.word	0x20000950

080027cc <HAL_ADC_Init>:
 80027cc:	2800      	cmp	r0, #0
 80027ce:	d071      	beq.n	80028b4 <HAL_ADC_Init+0xe8>
 80027d0:	6a83      	ldr	r3, [r0, #40]	; 0x28
 80027d2:	b570      	push	{r4, r5, r6, lr}
 80027d4:	4604      	mov	r4, r0
 80027d6:	2b00      	cmp	r3, #0
 80027d8:	d062      	beq.n	80028a0 <HAL_ADC_Init+0xd4>
 80027da:	6823      	ldr	r3, [r4, #0]
 80027dc:	689a      	ldr	r2, [r3, #8]
 80027de:	07d0      	lsls	r0, r2, #31
 80027e0:	d449      	bmi.n	8002876 <HAL_ADC_Init+0xaa>
 80027e2:	6aa2      	ldr	r2, [r4, #40]	; 0x28
 80027e4:	06d2      	lsls	r2, r2, #27
 80027e6:	d440      	bmi.n	800286a <HAL_ADC_Init+0x9e>
 80027e8:	6aa2      	ldr	r2, [r4, #40]	; 0x28
 80027ea:	6861      	ldr	r1, [r4, #4]
 80027ec:	f422 5288 	bic.w	r2, r2, #4352	; 0x1100
 80027f0:	69e6      	ldr	r6, [r4, #28]
 80027f2:	68a0      	ldr	r0, [r4, #8]
 80027f4:	f022 0202 	bic.w	r2, r2, #2
 80027f8:	7b25      	ldrb	r5, [r4, #12]
 80027fa:	f042 0202 	orr.w	r2, r2, #2
 80027fe:	4331      	orrs	r1, r6
 8002800:	f5b0 7f80 	cmp.w	r0, #256	; 0x100
 8002804:	62a2      	str	r2, [r4, #40]	; 0x28
 8002806:	ea41 0245 	orr.w	r2, r1, r5, lsl #1
 800280a:	7d21      	ldrb	r1, [r4, #20]
 800280c:	d05d      	beq.n	80028ca <HAL_ADC_Init+0xfe>
 800280e:	2801      	cmp	r0, #1
 8002810:	f000 8087 	beq.w	8002922 <HAL_ADC_Init+0x156>
 8002814:	2901      	cmp	r1, #1
 8002816:	f000 8093 	beq.w	8002940 <HAL_ADC_Init+0x174>
 800281a:	6858      	ldr	r0, [r3, #4]
 800281c:	4949      	ldr	r1, [pc, #292]	; (8002944 <HAL_ADC_Init+0x178>)
 800281e:	f420 4069 	bic.w	r0, r0, #59648	; 0xe900
 8002822:	6058      	str	r0, [r3, #4]
 8002824:	2000      	movs	r0, #0
 8002826:	689d      	ldr	r5, [r3, #8]
 8002828:	4029      	ands	r1, r5
 800282a:	4311      	orrs	r1, r2
 800282c:	6099      	str	r1, [r3, #8]
 800282e:	6ad9      	ldr	r1, [r3, #44]	; 0x2c
 8002830:	4d45      	ldr	r5, [pc, #276]	; (8002948 <HAL_ADC_Init+0x17c>)
 8002832:	f421 0170 	bic.w	r1, r1, #15728640	; 0xf00000
 8002836:	4301      	orrs	r1, r0
 8002838:	62d9      	str	r1, [r3, #44]	; 0x2c
 800283a:	689b      	ldr	r3, [r3, #8]
 800283c:	401d      	ands	r5, r3
 800283e:	42aa      	cmp	r2, r5
 8002840:	d03a      	beq.n	80028b8 <HAL_ADC_Init+0xec>
 8002842:	2001      	movs	r0, #1
 8002844:	6aa3      	ldr	r3, [r4, #40]	; 0x28
 8002846:	f023 0312 	bic.w	r3, r3, #18
 800284a:	f043 0310 	orr.w	r3, r3, #16
 800284e:	62a3      	str	r3, [r4, #40]	; 0x28
 8002850:	6ae3      	ldr	r3, [r4, #44]	; 0x2c
 8002852:	4303      	orrs	r3, r0
 8002854:	62e3      	str	r3, [r4, #44]	; 0x2c
 8002856:	bd70      	pop	{r4, r5, r6, pc}
 8002858:	6aa3      	ldr	r3, [r4, #40]	; 0x28
 800285a:	f043 0310 	orr.w	r3, r3, #16
 800285e:	62a3      	str	r3, [r4, #40]	; 0x28
 8002860:	6ae3      	ldr	r3, [r4, #44]	; 0x2c
 8002862:	f043 0301 	orr.w	r3, r3, #1
 8002866:	62e3      	str	r3, [r4, #44]	; 0x2c
 8002868:	6aa3      	ldr	r3, [r4, #40]	; 0x28
 800286a:	6aa3      	ldr	r3, [r4, #40]	; 0x28
 800286c:	2001      	movs	r0, #1
 800286e:	f043 0310 	orr.w	r3, r3, #16
 8002872:	62a3      	str	r3, [r4, #40]	; 0x28
 8002874:	bd70      	pop	{r4, r5, r6, pc}
 8002876:	689a      	ldr	r2, [r3, #8]
 8002878:	f022 0201 	bic.w	r2, r2, #1
 800287c:	609a      	str	r2, [r3, #8]
 800287e:	f7ff ff9f 	bl	80027c0 <HAL_GetTick>
 8002882:	4605      	mov	r5, r0
 8002884:	e004      	b.n	8002890 <HAL_ADC_Init+0xc4>
 8002886:	f7ff ff9b 	bl	80027c0 <HAL_GetTick>
 800288a:	1b40      	subs	r0, r0, r5
 800288c:	2802      	cmp	r0, #2
 800288e:	d8e3      	bhi.n	8002858 <HAL_ADC_Init+0x8c>
 8002890:	6823      	ldr	r3, [r4, #0]
 8002892:	689a      	ldr	r2, [r3, #8]
 8002894:	07d1      	lsls	r1, r2, #31
 8002896:	d4f6      	bmi.n	8002886 <HAL_ADC_Init+0xba>
 8002898:	6aa2      	ldr	r2, [r4, #40]	; 0x28
 800289a:	06d2      	lsls	r2, r2, #27
 800289c:	d4e5      	bmi.n	800286a <HAL_ADC_Init+0x9e>
 800289e:	e7a3      	b.n	80027e8 <HAL_ADC_Init+0x1c>
 80028a0:	62c3      	str	r3, [r0, #44]	; 0x2c
 80028a2:	f880 3024 	strb.w	r3, [r0, #36]	; 0x24
 80028a6:	f7ff f9e5 	bl	8001c74 <HAL_ADC_MspInit>
 80028aa:	6823      	ldr	r3, [r4, #0]
 80028ac:	689a      	ldr	r2, [r3, #8]
 80028ae:	07d0      	lsls	r0, r2, #31
 80028b0:	d4e1      	bmi.n	8002876 <HAL_ADC_Init+0xaa>
 80028b2:	e796      	b.n	80027e2 <HAL_ADC_Init+0x16>
 80028b4:	2001      	movs	r0, #1
 80028b6:	4770      	bx	lr
 80028b8:	2000      	movs	r0, #0
 80028ba:	62e0      	str	r0, [r4, #44]	; 0x2c
 80028bc:	6aa3      	ldr	r3, [r4, #40]	; 0x28
 80028be:	f023 0303 	bic.w	r3, r3, #3
 80028c2:	f043 0301 	orr.w	r3, r3, #1
 80028c6:	62a3      	str	r3, [r4, #40]	; 0x28
 80028c8:	bd70      	pop	{r4, r5, r6, pc}
 80028ca:	2901      	cmp	r1, #1
 80028cc:	d00e      	beq.n	80028ec <HAL_ADC_Init+0x120>
 80028ce:	6858      	ldr	r0, [r3, #4]
 80028d0:	491c      	ldr	r1, [pc, #112]	; (8002944 <HAL_ADC_Init+0x178>)
 80028d2:	f420 4069 	bic.w	r0, r0, #59648	; 0xe900
 80028d6:	f440 7080 	orr.w	r0, r0, #256	; 0x100
 80028da:	6058      	str	r0, [r3, #4]
 80028dc:	6898      	ldr	r0, [r3, #8]
 80028de:	4001      	ands	r1, r0
 80028e0:	4311      	orrs	r1, r2
 80028e2:	6099      	str	r1, [r3, #8]
 80028e4:	6921      	ldr	r1, [r4, #16]
 80028e6:	3901      	subs	r1, #1
 80028e8:	0508      	lsls	r0, r1, #20
 80028ea:	e7a0      	b.n	800282e <HAL_ADC_Init+0x62>
 80028ec:	4606      	mov	r6, r0
 80028ee:	b9f5      	cbnz	r5, 800292e <HAL_ADC_Init+0x162>
 80028f0:	69a1      	ldr	r1, [r4, #24]
 80028f2:	1e4d      	subs	r5, r1, #1
 80028f4:	ea46 3545 	orr.w	r5, r6, r5, lsl #13
 80028f8:	f445 6600 	orr.w	r6, r5, #2048	; 0x800
 80028fc:	685d      	ldr	r5, [r3, #4]
 80028fe:	4911      	ldr	r1, [pc, #68]	; (8002944 <HAL_ADC_Init+0x178>)
 8002900:	f425 4569 	bic.w	r5, r5, #59648	; 0xe900
 8002904:	4335      	orrs	r5, r6
 8002906:	605d      	str	r5, [r3, #4]
 8002908:	689d      	ldr	r5, [r3, #8]
 800290a:	f5b0 7f80 	cmp.w	r0, #256	; 0x100
 800290e:	ea01 0105 	and.w	r1, r1, r5
 8002912:	ea41 0102 	orr.w	r1, r1, r2
 8002916:	6099      	str	r1, [r3, #8]
 8002918:	d0e4      	beq.n	80028e4 <HAL_ADC_Init+0x118>
 800291a:	2801      	cmp	r0, #1
 800291c:	d0e2      	beq.n	80028e4 <HAL_ADC_Init+0x118>
 800291e:	2000      	movs	r0, #0
 8002920:	e785      	b.n	800282e <HAL_ADC_Init+0x62>
 8002922:	2901      	cmp	r1, #1
 8002924:	bf08      	it	eq
 8002926:	f44f 7680 	moveq.w	r6, #256	; 0x100
 800292a:	d0e0      	beq.n	80028ee <HAL_ADC_Init+0x122>
 800292c:	e7cf      	b.n	80028ce <HAL_ADC_Init+0x102>
 800292e:	6aa1      	ldr	r1, [r4, #40]	; 0x28
 8002930:	f041 0120 	orr.w	r1, r1, #32
 8002934:	62a1      	str	r1, [r4, #40]	; 0x28
 8002936:	6ae1      	ldr	r1, [r4, #44]	; 0x2c
 8002938:	f041 0101 	orr.w	r1, r1, #1
 800293c:	62e1      	str	r1, [r4, #44]	; 0x2c
 800293e:	e7dd      	b.n	80028fc <HAL_ADC_Init+0x130>
 8002940:	2600      	movs	r6, #0
 8002942:	e7d4      	b.n	80028ee <HAL_ADC_Init+0x122>
 8002944:	ffe1f7fd 	.word	0xffe1f7fd
 8002948:	ff1f0efe 	.word	0xff1f0efe

0800294c <HAL_ADC_ConfigChannel>:
 800294c:	2200      	movs	r2, #0
 800294e:	b470      	push	{r4, r5, r6}
 8002950:	f890 3024 	ldrb.w	r3, [r0, #36]	; 0x24
 8002954:	b083      	sub	sp, #12
 8002956:	2b01      	cmp	r3, #1
 8002958:	9201      	str	r2, [sp, #4]
 800295a:	d05f      	beq.n	8002a1c <HAL_ADC_ConfigChannel+0xd0>
 800295c:	2301      	movs	r3, #1
 800295e:	684d      	ldr	r5, [r1, #4]
 8002960:	6804      	ldr	r4, [r0, #0]
 8002962:	2d06      	cmp	r5, #6
 8002964:	f880 3024 	strb.w	r3, [r0, #36]	; 0x24
 8002968:	680a      	ldr	r2, [r1, #0]
 800296a:	eb05 0385 	add.w	r3, r5, r5, lsl #2
 800296e:	f04f 061f 	mov.w	r6, #31
 8002972:	d925      	bls.n	80029c0 <HAL_ADC_ConfigChannel+0x74>
 8002974:	2d0c      	cmp	r5, #12
 8002976:	d847      	bhi.n	8002a08 <HAL_ADC_ConfigChannel+0xbc>
 8002978:	3b23      	subs	r3, #35	; 0x23
 800297a:	6b25      	ldr	r5, [r4, #48]	; 0x30
 800297c:	409e      	lsls	r6, r3
 800297e:	ea25 0506 	bic.w	r5, r5, r6
 8002982:	fa02 f303 	lsl.w	r3, r2, r3
 8002986:	432b      	orrs	r3, r5
 8002988:	6323      	str	r3, [r4, #48]	; 0x30
 800298a:	2a09      	cmp	r2, #9
 800298c:	688b      	ldr	r3, [r1, #8]
 800298e:	f04f 0607 	mov.w	r6, #7
 8002992:	eb02 0142 	add.w	r1, r2, r2, lsl #1
 8002996:	d923      	bls.n	80029e0 <HAL_ADC_ConfigChannel+0x94>
 8002998:	391e      	subs	r1, #30
 800299a:	68e5      	ldr	r5, [r4, #12]
 800299c:	408e      	lsls	r6, r1
 800299e:	408b      	lsls	r3, r1
 80029a0:	ea25 0106 	bic.w	r1, r5, r6
 80029a4:	430b      	orrs	r3, r1
 80029a6:	60e3      	str	r3, [r4, #12]
 80029a8:	f1a2 0310 	sub.w	r3, r2, #16
 80029ac:	2b01      	cmp	r3, #1
 80029ae:	d922      	bls.n	80029f6 <HAL_ADC_ConfigChannel+0xaa>
 80029b0:	2300      	movs	r3, #0
 80029b2:	2200      	movs	r2, #0
 80029b4:	f880 2024 	strb.w	r2, [r0, #36]	; 0x24
 80029b8:	4618      	mov	r0, r3
 80029ba:	b003      	add	sp, #12
 80029bc:	bc70      	pop	{r4, r5, r6}
 80029be:	4770      	bx	lr
 80029c0:	3b05      	subs	r3, #5
 80029c2:	6b65      	ldr	r5, [r4, #52]	; 0x34
 80029c4:	409e      	lsls	r6, r3
 80029c6:	ea25 0506 	bic.w	r5, r5, r6
 80029ca:	fa02 f303 	lsl.w	r3, r2, r3
 80029ce:	432b      	orrs	r3, r5
 80029d0:	2a09      	cmp	r2, #9
 80029d2:	6363      	str	r3, [r4, #52]	; 0x34
 80029d4:	f04f 0607 	mov.w	r6, #7
 80029d8:	688b      	ldr	r3, [r1, #8]
 80029da:	eb02 0142 	add.w	r1, r2, r2, lsl #1
 80029de:	d8db      	bhi.n	8002998 <HAL_ADC_ConfigChannel+0x4c>
 80029e0:	6925      	ldr	r5, [r4, #16]
 80029e2:	408e      	lsls	r6, r1
 80029e4:	408b      	lsls	r3, r1
 80029e6:	ea25 0106 	bic.w	r1, r5, r6
 80029ea:	430b      	orrs	r3, r1
 80029ec:	6123      	str	r3, [r4, #16]
 80029ee:	f1a2 0310 	sub.w	r3, r2, #16
 80029f2:	2b01      	cmp	r3, #1
 80029f4:	d8dc      	bhi.n	80029b0 <HAL_ADC_ConfigChannel+0x64>
 80029f6:	4b1a      	ldr	r3, [pc, #104]	; (8002a60 <HAL_ADC_ConfigChannel+0x114>)
 80029f8:	429c      	cmp	r4, r3
 80029fa:	d014      	beq.n	8002a26 <HAL_ADC_ConfigChannel+0xda>
 80029fc:	6a82      	ldr	r2, [r0, #40]	; 0x28
 80029fe:	2301      	movs	r3, #1
 8002a00:	f042 0220 	orr.w	r2, r2, #32
 8002a04:	6282      	str	r2, [r0, #40]	; 0x28
 8002a06:	e7d4      	b.n	80029b2 <HAL_ADC_ConfigChannel+0x66>
 8002a08:	3b41      	subs	r3, #65	; 0x41
 8002a0a:	6ae5      	ldr	r5, [r4, #44]	; 0x2c
 8002a0c:	409e      	lsls	r6, r3
 8002a0e:	ea25 0506 	bic.w	r5, r5, r6
 8002a12:	fa02 f303 	lsl.w	r3, r2, r3
 8002a16:	432b      	orrs	r3, r5
 8002a18:	62e3      	str	r3, [r4, #44]	; 0x2c
 8002a1a:	e7b6      	b.n	800298a <HAL_ADC_ConfigChannel+0x3e>
 8002a1c:	2302      	movs	r3, #2
 8002a1e:	4618      	mov	r0, r3
 8002a20:	b003      	add	sp, #12
 8002a22:	bc70      	pop	{r4, r5, r6}
 8002a24:	4770      	bx	lr
 8002a26:	68a3      	ldr	r3, [r4, #8]
 8002a28:	021b      	lsls	r3, r3, #8
 8002a2a:	d4c1      	bmi.n	80029b0 <HAL_ADC_ConfigChannel+0x64>
 8002a2c:	68a3      	ldr	r3, [r4, #8]
 8002a2e:	2a10      	cmp	r2, #16
 8002a30:	f443 0300 	orr.w	r3, r3, #8388608	; 0x800000
 8002a34:	60a3      	str	r3, [r4, #8]
 8002a36:	d1bb      	bne.n	80029b0 <HAL_ADC_ConfigChannel+0x64>
 8002a38:	4b0a      	ldr	r3, [pc, #40]	; (8002a64 <HAL_ADC_ConfigChannel+0x118>)
 8002a3a:	4a0b      	ldr	r2, [pc, #44]	; (8002a68 <HAL_ADC_ConfigChannel+0x11c>)
 8002a3c:	681b      	ldr	r3, [r3, #0]
 8002a3e:	fba2 2303 	umull	r2, r3, r2, r3
 8002a42:	0c9b      	lsrs	r3, r3, #18
 8002a44:	eb03 0383 	add.w	r3, r3, r3, lsl #2
 8002a48:	005b      	lsls	r3, r3, #1
 8002a4a:	9301      	str	r3, [sp, #4]
 8002a4c:	9b01      	ldr	r3, [sp, #4]
 8002a4e:	2b00      	cmp	r3, #0
 8002a50:	d0ae      	beq.n	80029b0 <HAL_ADC_ConfigChannel+0x64>
 8002a52:	9b01      	ldr	r3, [sp, #4]
 8002a54:	3b01      	subs	r3, #1
 8002a56:	9301      	str	r3, [sp, #4]
 8002a58:	9b01      	ldr	r3, [sp, #4]
 8002a5a:	2b00      	cmp	r3, #0
 8002a5c:	d1f9      	bne.n	8002a52 <HAL_ADC_ConfigChannel+0x106>
 8002a5e:	e7a7      	b.n	80029b0 <HAL_ADC_ConfigChannel+0x64>
 8002a60:	40012400 	.word	0x40012400
 8002a64:	200005a4 	.word	0x200005a4
 8002a68:	431bde83 	.word	0x431bde83

08002a6c <HAL_ADCEx_InjectedConfigChannel>:
 8002a6c:	4602      	mov	r2, r0
 8002a6e:	2000      	movs	r0, #0
 8002a70:	b5f0      	push	{r4, r5, r6, r7, lr}
 8002a72:	f892 3024 	ldrb.w	r3, [r2, #36]	; 0x24
 8002a76:	b083      	sub	sp, #12
 8002a78:	2b01      	cmp	r3, #1
 8002a7a:	9001      	str	r0, [sp, #4]
 8002a7c:	f000 80b6 	beq.w	8002bec <HAL_ADCEx_InjectedConfigChannel+0x180>
 8002a80:	e9d1 4600 	ldrd	r4, r6, [r1]
 8002a84:	2501      	movs	r5, #1
 8002a86:	6897      	ldr	r7, [r2, #8]
 8002a88:	f882 5024 	strb.w	r5, [r2, #36]	; 0x24
 8002a8c:	6813      	ldr	r3, [r2, #0]
 8002a8e:	2f00      	cmp	r7, #0
 8002a90:	d05d      	beq.n	8002b4e <HAL_ADCEx_InjectedConfigChannel+0xe2>
 8002a92:	271f      	movs	r7, #31
 8002a94:	f8d1 c010 	ldr.w	ip, [r1, #16]
 8002a98:	eba6 050c 	sub.w	r5, r6, ip
 8002a9c:	eb05 0585 	add.w	r5, r5, r5, lsl #2
 8002aa0:	350f      	adds	r5, #15
 8002aa2:	40af      	lsls	r7, r5
 8002aa4:	f447 1740 	orr.w	r7, r7, #3145728	; 0x300000
 8002aa8:	45b4      	cmp	ip, r6
 8002aaa:	ea6f 0707 	mvn.w	r7, r7
 8002aae:	d37c      	bcc.n	8002baa <HAL_ADCEx_InjectedConfigChannel+0x13e>
 8002ab0:	f8d3 e038 	ldr.w	lr, [r3, #56]	; 0x38
 8002ab4:	f10c 3cff 	add.w	ip, ip, #4294967295
 8002ab8:	fa04 f505 	lsl.w	r5, r4, r5
 8002abc:	ea45 550c 	orr.w	r5, r5, ip, lsl #20
 8002ac0:	ea0e 0707 	and.w	r7, lr, r7
 8002ac4:	433d      	orrs	r5, r7
 8002ac6:	639d      	str	r5, [r3, #56]	; 0x38
 8002ac8:	689d      	ldr	r5, [r3, #8]
 8002aca:	07ed      	lsls	r5, r5, #31
 8002acc:	d407      	bmi.n	8002ade <HAL_ADCEx_InjectedConfigChannel+0x72>
 8002ace:	689d      	ldr	r5, [r3, #8]
 8002ad0:	698f      	ldr	r7, [r1, #24]
 8002ad2:	f425 45e0 	bic.w	r5, r5, #28672	; 0x7000
 8002ad6:	f025 0501 	bic.w	r5, r5, #1
 8002ada:	433d      	orrs	r5, r7
 8002adc:	609d      	str	r5, [r3, #8]
 8002ade:	7d4d      	ldrb	r5, [r1, #21]
 8002ae0:	f891 c014 	ldrb.w	ip, [r1, #20]
 8002ae4:	2d01      	cmp	r5, #1
 8002ae6:	d04e      	beq.n	8002b86 <HAL_ADCEx_InjectedConfigChannel+0x11a>
 8002ae8:	f1bc 0f01 	cmp.w	ip, #1
 8002aec:	f000 8081 	beq.w	8002bf2 <HAL_ADCEx_InjectedConfigChannel+0x186>
 8002af0:	2c09      	cmp	r4, #9
 8002af2:	eb04 0544 	add.w	r5, r4, r4, lsl #1
 8002af6:	f8d1 c008 	ldr.w	ip, [r1, #8]
 8002afa:	f04f 0e07 	mov.w	lr, #7
 8002afe:	d92e      	bls.n	8002b5e <HAL_ADCEx_InjectedConfigChannel+0xf2>
 8002b00:	3d1e      	subs	r5, #30
 8002b02:	68df      	ldr	r7, [r3, #12]
 8002b04:	fa0e fe05 	lsl.w	lr, lr, r5
 8002b08:	ea27 070e 	bic.w	r7, r7, lr
 8002b0c:	fa0c f505 	lsl.w	r5, ip, r5
 8002b10:	433d      	orrs	r5, r7
 8002b12:	60dd      	str	r5, [r3, #12]
 8002b14:	f1a4 0510 	sub.w	r5, r4, #16
 8002b18:	2d01      	cmp	r5, #1
 8002b1a:	d803      	bhi.n	8002b24 <HAL_ADCEx_InjectedConfigChannel+0xb8>
 8002b1c:	689f      	ldr	r7, [r3, #8]
 8002b1e:	f447 0700 	orr.w	r7, r7, #8388608	; 0x800000
 8002b22:	609f      	str	r7, [r3, #8]
 8002b24:	2e02      	cmp	r6, #2
 8002b26:	68cf      	ldr	r7, [r1, #12]
 8002b28:	d053      	beq.n	8002bd2 <HAL_ADCEx_InjectedConfigChannel+0x166>
 8002b2a:	2e03      	cmp	r6, #3
 8002b2c:	d049      	beq.n	8002bc2 <HAL_ADCEx_InjectedConfigChannel+0x156>
 8002b2e:	2e01      	cmp	r6, #1
 8002b30:	d03f      	beq.n	8002bb2 <HAL_ADCEx_InjectedConfigChannel+0x146>
 8002b32:	6a19      	ldr	r1, [r3, #32]
 8002b34:	f421 617f 	bic.w	r1, r1, #4080	; 0xff0
 8002b38:	f021 010f 	bic.w	r1, r1, #15
 8002b3c:	4339      	orrs	r1, r7
 8002b3e:	6219      	str	r1, [r3, #32]
 8002b40:	2d01      	cmp	r5, #1
 8002b42:	d917      	bls.n	8002b74 <HAL_ADCEx_InjectedConfigChannel+0x108>
 8002b44:	2300      	movs	r3, #0
 8002b46:	f882 3024 	strb.w	r3, [r2, #36]	; 0x24
 8002b4a:	b003      	add	sp, #12
 8002b4c:	bdf0      	pop	{r4, r5, r6, r7, pc}
 8002b4e:	42ae      	cmp	r6, r5
 8002b50:	d056      	beq.n	8002c00 <HAL_ADCEx_InjectedConfigChannel+0x194>
 8002b52:	6a97      	ldr	r7, [r2, #40]	; 0x28
 8002b54:	4628      	mov	r0, r5
 8002b56:	f047 0720 	orr.w	r7, r7, #32
 8002b5a:	6297      	str	r7, [r2, #40]	; 0x28
 8002b5c:	e7b4      	b.n	8002ac8 <HAL_ADCEx_InjectedConfigChannel+0x5c>
 8002b5e:	691f      	ldr	r7, [r3, #16]
 8002b60:	fa0e fe05 	lsl.w	lr, lr, r5
 8002b64:	fa0c fc05 	lsl.w	ip, ip, r5
 8002b68:	ea27 050e 	bic.w	r5, r7, lr
 8002b6c:	ea45 050c 	orr.w	r5, r5, ip
 8002b70:	611d      	str	r5, [r3, #16]
 8002b72:	e7cf      	b.n	8002b14 <HAL_ADCEx_InjectedConfigChannel+0xa8>
 8002b74:	4935      	ldr	r1, [pc, #212]	; (8002c4c <HAL_ADCEx_InjectedConfigChannel+0x1e0>)
 8002b76:	428b      	cmp	r3, r1
 8002b78:	d04a      	beq.n	8002c10 <HAL_ADCEx_InjectedConfigChannel+0x1a4>
 8002b7a:	6a93      	ldr	r3, [r2, #40]	; 0x28
 8002b7c:	2001      	movs	r0, #1
 8002b7e:	f043 0320 	orr.w	r3, r3, #32
 8002b82:	6293      	str	r3, [r2, #40]	; 0x28
 8002b84:	e7de      	b.n	8002b44 <HAL_ADCEx_InjectedConfigChannel+0xd8>
 8002b86:	698f      	ldr	r7, [r1, #24]
 8002b88:	f5b7 4fe0 	cmp.w	r7, #28672	; 0x7000
 8002b8c:	d029      	beq.n	8002be2 <HAL_ADCEx_InjectedConfigChannel+0x176>
 8002b8e:	4628      	mov	r0, r5
 8002b90:	6a97      	ldr	r7, [r2, #40]	; 0x28
 8002b92:	f047 0720 	orr.w	r7, r7, #32
 8002b96:	6297      	str	r7, [r2, #40]	; 0x28
 8002b98:	f1bc 0f01 	cmp.w	ip, #1
 8002b9c:	d1a8      	bne.n	8002af0 <HAL_ADCEx_InjectedConfigChannel+0x84>
 8002b9e:	6a95      	ldr	r5, [r2, #40]	; 0x28
 8002ba0:	2001      	movs	r0, #1
 8002ba2:	f045 0520 	orr.w	r5, r5, #32
 8002ba6:	6295      	str	r5, [r2, #40]	; 0x28
 8002ba8:	e7a2      	b.n	8002af0 <HAL_ADCEx_InjectedConfigChannel+0x84>
 8002baa:	6b9d      	ldr	r5, [r3, #56]	; 0x38
 8002bac:	402f      	ands	r7, r5
 8002bae:	639f      	str	r7, [r3, #56]	; 0x38
 8002bb0:	e78a      	b.n	8002ac8 <HAL_ADCEx_InjectedConfigChannel+0x5c>
 8002bb2:	6959      	ldr	r1, [r3, #20]
 8002bb4:	f421 617f 	bic.w	r1, r1, #4080	; 0xff0
 8002bb8:	f021 010f 	bic.w	r1, r1, #15
 8002bbc:	4339      	orrs	r1, r7
 8002bbe:	6159      	str	r1, [r3, #20]
 8002bc0:	e7be      	b.n	8002b40 <HAL_ADCEx_InjectedConfigChannel+0xd4>
 8002bc2:	69d9      	ldr	r1, [r3, #28]
 8002bc4:	f421 617f 	bic.w	r1, r1, #4080	; 0xff0
 8002bc8:	f021 010f 	bic.w	r1, r1, #15
 8002bcc:	4339      	orrs	r1, r7
 8002bce:	61d9      	str	r1, [r3, #28]
 8002bd0:	e7b6      	b.n	8002b40 <HAL_ADCEx_InjectedConfigChannel+0xd4>
 8002bd2:	6999      	ldr	r1, [r3, #24]
 8002bd4:	f421 617f 	bic.w	r1, r1, #4080	; 0xff0
 8002bd8:	f021 010f 	bic.w	r1, r1, #15
 8002bdc:	4339      	orrs	r1, r7
 8002bde:	6199      	str	r1, [r3, #24]
 8002be0:	e7ae      	b.n	8002b40 <HAL_ADCEx_InjectedConfigChannel+0xd4>
 8002be2:	685d      	ldr	r5, [r3, #4]
 8002be4:	f445 6580 	orr.w	r5, r5, #1024	; 0x400
 8002be8:	605d      	str	r5, [r3, #4]
 8002bea:	e7d5      	b.n	8002b98 <HAL_ADCEx_InjectedConfigChannel+0x12c>
 8002bec:	2002      	movs	r0, #2
 8002bee:	b003      	add	sp, #12
 8002bf0:	bdf0      	pop	{r4, r5, r6, r7, pc}
 8002bf2:	2d00      	cmp	r5, #0
 8002bf4:	d1d3      	bne.n	8002b9e <HAL_ADCEx_InjectedConfigChannel+0x132>
 8002bf6:	685d      	ldr	r5, [r3, #4]
 8002bf8:	f445 5580 	orr.w	r5, r5, #4096	; 0x1000
 8002bfc:	605d      	str	r5, [r3, #4]
 8002bfe:	e777      	b.n	8002af0 <HAL_ADCEx_InjectedConfigChannel+0x84>
 8002c00:	6b9d      	ldr	r5, [r3, #56]	; 0x38
 8002c02:	4638      	mov	r0, r7
 8002c04:	0dad      	lsrs	r5, r5, #22
 8002c06:	05ad      	lsls	r5, r5, #22
 8002c08:	ea45 35c4 	orr.w	r5, r5, r4, lsl #15
 8002c0c:	639d      	str	r5, [r3, #56]	; 0x38
 8002c0e:	e75b      	b.n	8002ac8 <HAL_ADCEx_InjectedConfigChannel+0x5c>
 8002c10:	6899      	ldr	r1, [r3, #8]
 8002c12:	0209      	lsls	r1, r1, #8
 8002c14:	d496      	bmi.n	8002b44 <HAL_ADCEx_InjectedConfigChannel+0xd8>
 8002c16:	6899      	ldr	r1, [r3, #8]
 8002c18:	2c10      	cmp	r4, #16
 8002c1a:	f441 0100 	orr.w	r1, r1, #8388608	; 0x800000
 8002c1e:	6099      	str	r1, [r3, #8]
 8002c20:	d190      	bne.n	8002b44 <HAL_ADCEx_InjectedConfigChannel+0xd8>
 8002c22:	4b0b      	ldr	r3, [pc, #44]	; (8002c50 <HAL_ADCEx_InjectedConfigChannel+0x1e4>)
 8002c24:	490b      	ldr	r1, [pc, #44]	; (8002c54 <HAL_ADCEx_InjectedConfigChannel+0x1e8>)
 8002c26:	681b      	ldr	r3, [r3, #0]
 8002c28:	fba1 1303 	umull	r1, r3, r1, r3
 8002c2c:	0c9b      	lsrs	r3, r3, #18
 8002c2e:	eb03 0383 	add.w	r3, r3, r3, lsl #2
 8002c32:	005b      	lsls	r3, r3, #1
 8002c34:	9301      	str	r3, [sp, #4]
 8002c36:	9b01      	ldr	r3, [sp, #4]
 8002c38:	2b00      	cmp	r3, #0
 8002c3a:	d083      	beq.n	8002b44 <HAL_ADCEx_InjectedConfigChannel+0xd8>
 8002c3c:	9b01      	ldr	r3, [sp, #4]
 8002c3e:	3b01      	subs	r3, #1
 8002c40:	9301      	str	r3, [sp, #4]
 8002c42:	9b01      	ldr	r3, [sp, #4]
 8002c44:	2b00      	cmp	r3, #0
 8002c46:	d1f9      	bne.n	8002c3c <HAL_ADCEx_InjectedConfigChannel+0x1d0>
 8002c48:	e77c      	b.n	8002b44 <HAL_ADCEx_InjectedConfigChannel+0xd8>
 8002c4a:	bf00      	nop
 8002c4c:	40012400 	.word	0x40012400
 8002c50:	200005a4 	.word	0x200005a4
 8002c54:	431bde83 	.word	0x431bde83

08002c58 <HAL_NVIC_SetPriorityGrouping>:
 8002c58:	f64f 01ff 	movw	r1, #63743	; 0xf8ff
 8002c5c:	4a06      	ldr	r2, [pc, #24]	; (8002c78 <HAL_NVIC_SetPriorityGrouping+0x20>)
 8002c5e:	0200      	lsls	r0, r0, #8
 8002c60:	68d3      	ldr	r3, [r2, #12]
 8002c62:	f400 60e0 	and.w	r0, r0, #1792	; 0x700
 8002c66:	400b      	ands	r3, r1
 8002c68:	f043 63bf 	orr.w	r3, r3, #100139008	; 0x5f80000
 8002c6c:	f443 3300 	orr.w	r3, r3, #131072	; 0x20000
 8002c70:	4303      	orrs	r3, r0
 8002c72:	60d3      	str	r3, [r2, #12]
 8002c74:	4770      	bx	lr
 8002c76:	bf00      	nop
 8002c78:	e000ed00 	.word	0xe000ed00

08002c7c <HAL_NVIC_SetPriority>:
 8002c7c:	4b18      	ldr	r3, [pc, #96]	; (8002ce0 <HAL_NVIC_SetPriority+0x64>)
 8002c7e:	b430      	push	{r4, r5}
 8002c80:	68db      	ldr	r3, [r3, #12]
 8002c82:	f3c3 2302 	ubfx	r3, r3, #8, #3
 8002c86:	f1c3 0507 	rsb	r5, r3, #7
 8002c8a:	2d04      	cmp	r5, #4
 8002c8c:	f103 0404 	add.w	r4, r3, #4
 8002c90:	bf28      	it	cs
 8002c92:	2504      	movcs	r5, #4
 8002c94:	2c06      	cmp	r4, #6
 8002c96:	d919      	bls.n	8002ccc <HAL_NVIC_SetPriority+0x50>
 8002c98:	f04f 34ff 	mov.w	r4, #4294967295
 8002c9c:	3b03      	subs	r3, #3
 8002c9e:	409c      	lsls	r4, r3
 8002ca0:	ea22 0404 	bic.w	r4, r2, r4
 8002ca4:	f04f 32ff 	mov.w	r2, #4294967295
 8002ca8:	40aa      	lsls	r2, r5
 8002caa:	ea21 0102 	bic.w	r1, r1, r2
 8002cae:	fa01 f203 	lsl.w	r2, r1, r3
 8002cb2:	4322      	orrs	r2, r4
 8002cb4:	0112      	lsls	r2, r2, #4
 8002cb6:	2800      	cmp	r0, #0
 8002cb8:	b2d2      	uxtb	r2, r2
 8002cba:	db0a      	blt.n	8002cd2 <HAL_NVIC_SetPriority+0x56>
 8002cbc:	f100 4060 	add.w	r0, r0, #3758096384	; 0xe0000000
 8002cc0:	f500 4061 	add.w	r0, r0, #57600	; 0xe100
 8002cc4:	f880 2300 	strb.w	r2, [r0, #768]	; 0x300
 8002cc8:	bc30      	pop	{r4, r5}
 8002cca:	4770      	bx	lr
 8002ccc:	2400      	movs	r4, #0
 8002cce:	4623      	mov	r3, r4
 8002cd0:	e7e8      	b.n	8002ca4 <HAL_NVIC_SetPriority+0x28>
 8002cd2:	4b04      	ldr	r3, [pc, #16]	; (8002ce4 <HAL_NVIC_SetPriority+0x68>)
 8002cd4:	f000 000f 	and.w	r0, r0, #15
 8002cd8:	4403      	add	r3, r0
 8002cda:	761a      	strb	r2, [r3, #24]
 8002cdc:	bc30      	pop	{r4, r5}
 8002cde:	4770      	bx	lr
 8002ce0:	e000ed00 	.word	0xe000ed00
 8002ce4:	e000ecfc 	.word	0xe000ecfc

08002ce8 <HAL_NVIC_EnableIRQ>:
 8002ce8:	2800      	cmp	r0, #0
 8002cea:	db07      	blt.n	8002cfc <HAL_NVIC_EnableIRQ+0x14>
 8002cec:	2301      	movs	r3, #1
 8002cee:	f000 011f 	and.w	r1, r0, #31
 8002cf2:	4a03      	ldr	r2, [pc, #12]	; (8002d00 <HAL_NVIC_EnableIRQ+0x18>)
 8002cf4:	408b      	lsls	r3, r1
 8002cf6:	0940      	lsrs	r0, r0, #5
 8002cf8:	f842 3020 	str.w	r3, [r2, r0, lsl #2]
 8002cfc:	4770      	bx	lr
 8002cfe:	bf00      	nop
 8002d00:	e000e100 	.word	0xe000e100

08002d04 <HAL_SYSTICK_Config>:
 8002d04:	3801      	subs	r0, #1
 8002d06:	f1b0 7f80 	cmp.w	r0, #16777216	; 0x1000000
 8002d0a:	d20d      	bcs.n	8002d28 <HAL_SYSTICK_Config+0x24>
 8002d0c:	b430      	push	{r4, r5}
 8002d0e:	25f0      	movs	r5, #240	; 0xf0
 8002d10:	2200      	movs	r2, #0
 8002d12:	2107      	movs	r1, #7
 8002d14:	4b05      	ldr	r3, [pc, #20]	; (8002d2c <HAL_SYSTICK_Config+0x28>)
 8002d16:	4c06      	ldr	r4, [pc, #24]	; (8002d30 <HAL_SYSTICK_Config+0x2c>)
 8002d18:	6058      	str	r0, [r3, #4]
 8002d1a:	f884 5023 	strb.w	r5, [r4, #35]	; 0x23
 8002d1e:	4610      	mov	r0, r2
 8002d20:	bc30      	pop	{r4, r5}
 8002d22:	609a      	str	r2, [r3, #8]
 8002d24:	6019      	str	r1, [r3, #0]
 8002d26:	4770      	bx	lr
 8002d28:	2001      	movs	r0, #1
 8002d2a:	4770      	bx	lr
 8002d2c:	e000e010 	.word	0xe000e010
 8002d30:	e000ed00 	.word	0xe000ed00

08002d34 <HAL_SYSTICK_Callback>:
 8002d34:	4770      	bx	lr
 8002d36:	bf00      	nop

08002d38 <HAL_SYSTICK_IRQHandler>:
 8002d38:	b508      	push	{r3, lr}
 8002d3a:	f7ff fffb 	bl	8002d34 <HAL_SYSTICK_Callback>
 8002d3e:	bd08      	pop	{r3, pc}

08002d40 <HAL_DMA_Init>:
 8002d40:	b350      	cbz	r0, 8002d98 <HAL_DMA_Init+0x58>
 8002d42:	4602      	mov	r2, r0
 8002d44:	b4f0      	push	{r4, r5, r6, r7}
 8002d46:	e9d0 3601 	ldrd	r3, r6, [r0, #4]
 8002d4a:	2400      	movs	r4, #0
 8002d4c:	2501      	movs	r5, #1
 8002d4e:	4333      	orrs	r3, r6
 8002d50:	68d6      	ldr	r6, [r2, #12]
 8002d52:	6800      	ldr	r0, [r0, #0]
 8002d54:	4333      	orrs	r3, r6
 8002d56:	4911      	ldr	r1, [pc, #68]	; (8002d9c <HAL_DMA_Init+0x5c>)
 8002d58:	6916      	ldr	r6, [r2, #16]
 8002d5a:	4f11      	ldr	r7, [pc, #68]	; (8002da0 <HAL_DMA_Init+0x60>)
 8002d5c:	4401      	add	r1, r0
 8002d5e:	4333      	orrs	r3, r6
 8002d60:	6956      	ldr	r6, [r2, #20]
 8002d62:	fba7 7101 	umull	r7, r1, r7, r1
 8002d66:	4333      	orrs	r3, r6
 8002d68:	6996      	ldr	r6, [r2, #24]
 8002d6a:	69d7      	ldr	r7, [r2, #28]
 8002d6c:	4333      	orrs	r3, r6
 8002d6e:	6806      	ldr	r6, [r0, #0]
 8002d70:	0909      	lsrs	r1, r1, #4
 8002d72:	0089      	lsls	r1, r1, #2
 8002d74:	f426 567f 	bic.w	r6, r6, #16320	; 0x3fc0
 8002d78:	433b      	orrs	r3, r7
 8002d7a:	f026 0630 	bic.w	r6, r6, #48	; 0x30
 8002d7e:	6411      	str	r1, [r2, #64]	; 0x40
 8002d80:	4908      	ldr	r1, [pc, #32]	; (8002da4 <HAL_DMA_Init+0x64>)
 8002d82:	4333      	orrs	r3, r6
 8002d84:	63d1      	str	r1, [r2, #60]	; 0x3c
 8002d86:	6003      	str	r3, [r0, #0]
 8002d88:	4620      	mov	r0, r4
 8002d8a:	6394      	str	r4, [r2, #56]	; 0x38
 8002d8c:	f882 4020 	strb.w	r4, [r2, #32]
 8002d90:	f882 5021 	strb.w	r5, [r2, #33]	; 0x21
 8002d94:	bcf0      	pop	{r4, r5, r6, r7}
 8002d96:	4770      	bx	lr
 8002d98:	2001      	movs	r0, #1
 8002d9a:	4770      	bx	lr
 8002d9c:	bffdfff8 	.word	0xbffdfff8
 8002da0:	cccccccd 	.word	0xcccccccd
 8002da4:	40020000 	.word	0x40020000

08002da8 <HAL_GPIO_Init>:
 8002da8:	680a      	ldr	r2, [r1, #0]
 8002daa:	2a00      	cmp	r2, #0
 8002dac:	f000 80db 	beq.w	8002f66 <HAL_GPIO_Init+0x1be>
 8002db0:	e92d 4ff0 	stmdb	sp!, {r4, r5, r6, r7, r8, r9, sl, fp, lr}
 8002db4:	f04f 0a00 	mov.w	sl, #0
 8002db8:	b085      	sub	sp, #20
 8002dba:	4655      	mov	r5, sl
 8002dbc:	f8df c1d0 	ldr.w	ip, [pc, #464]	; 8002f90 <HAL_GPIO_Init+0x1e8>
 8002dc0:	f8df e1d0 	ldr.w	lr, [pc, #464]	; 8002f94 <HAL_GPIO_Init+0x1ec>
 8002dc4:	4f6d      	ldr	r7, [pc, #436]	; (8002f7c <HAL_GPIO_Init+0x1d4>)
 8002dc6:	f8df 81d0 	ldr.w	r8, [pc, #464]	; 8002f98 <HAL_GPIO_Init+0x1f0>
 8002dca:	e003      	b.n	8002dd4 <HAL_GPIO_Init+0x2c>
 8002dcc:	3501      	adds	r5, #1
 8002dce:	fa32 f305 	lsrs.w	r3, r2, r5
 8002dd2:	d078      	beq.n	8002ec6 <HAL_GPIO_Init+0x11e>
 8002dd4:	2301      	movs	r3, #1
 8002dd6:	40ab      	lsls	r3, r5
 8002dd8:	ea02 0403 	and.w	r4, r2, r3
 8002ddc:	42a3      	cmp	r3, r4
 8002dde:	d1f5      	bne.n	8002dcc <HAL_GPIO_Init+0x24>
 8002de0:	684a      	ldr	r2, [r1, #4]
 8002de2:	2a12      	cmp	r2, #18
 8002de4:	f000 809e 	beq.w	8002f24 <HAL_GPIO_Init+0x17c>
 8002de8:	f200 8087 	bhi.w	8002efa <HAL_GPIO_Init+0x152>
 8002dec:	2a02      	cmp	r2, #2
 8002dee:	f000 809d 	beq.w	8002f2c <HAL_GPIO_Init+0x184>
 8002df2:	d97c      	bls.n	8002eee <HAL_GPIO_Init+0x146>
 8002df4:	2a03      	cmp	r2, #3
 8002df6:	d069      	beq.n	8002ecc <HAL_GPIO_Init+0x124>
 8002df8:	2a11      	cmp	r2, #17
 8002dfa:	d102      	bne.n	8002e02 <HAL_GPIO_Init+0x5a>
 8002dfc:	68cb      	ldr	r3, [r1, #12]
 8002dfe:	f103 0a04 	add.w	sl, r3, #4
 8002e02:	2cff      	cmp	r4, #255	; 0xff
 8002e04:	d866      	bhi.n	8002ed4 <HAL_GPIO_Init+0x12c>
 8002e06:	4681      	mov	r9, r0
 8002e08:	6803      	ldr	r3, [r0, #0]
 8002e0a:	00aa      	lsls	r2, r5, #2
 8002e0c:	260f      	movs	r6, #15
 8002e0e:	fa06 fb02 	lsl.w	fp, r6, r2
 8002e12:	ea23 030b 	bic.w	r3, r3, fp
 8002e16:	fa0a f202 	lsl.w	r2, sl, r2
 8002e1a:	4313      	orrs	r3, r2
 8002e1c:	f8c9 3000 	str.w	r3, [r9]
 8002e20:	684a      	ldr	r2, [r1, #4]
 8002e22:	00d3      	lsls	r3, r2, #3
 8002e24:	d561      	bpl.n	8002eea <HAL_GPIO_Init+0x142>
 8002e26:	f8dc 9018 	ldr.w	r9, [ip, #24]
 8002e2a:	f025 0303 	bic.w	r3, r5, #3
 8002e2e:	f049 0901 	orr.w	r9, r9, #1
 8002e32:	f8cc 9018 	str.w	r9, [ip, #24]
 8002e36:	f8dc 9018 	ldr.w	r9, [ip, #24]
 8002e3a:	f103 4380 	add.w	r3, r3, #1073741824	; 0x40000000
 8002e3e:	f009 0901 	and.w	r9, r9, #1
 8002e42:	f8cd 900c 	str.w	r9, [sp, #12]
 8002e46:	f503 3380 	add.w	r3, r3, #65536	; 0x10000
 8002e4a:	f005 0903 	and.w	r9, r5, #3
 8002e4e:	f8dd b00c 	ldr.w	fp, [sp, #12]
 8002e52:	ea4f 0989 	mov.w	r9, r9, lsl #2
 8002e56:	f8d3 b008 	ldr.w	fp, [r3, #8]
 8002e5a:	fa06 f609 	lsl.w	r6, r6, r9
 8002e5e:	ea2b 0606 	bic.w	r6, fp, r6
 8002e62:	4570      	cmp	r0, lr
 8002e64:	9601      	str	r6, [sp, #4]
 8002e66:	d011      	beq.n	8002e8c <HAL_GPIO_Init+0xe4>
 8002e68:	4540      	cmp	r0, r8
 8002e6a:	d063      	beq.n	8002f34 <HAL_GPIO_Init+0x18c>
 8002e6c:	4e44      	ldr	r6, [pc, #272]	; (8002f80 <HAL_GPIO_Init+0x1d8>)
 8002e6e:	42b0      	cmp	r0, r6
 8002e70:	d07a      	beq.n	8002f68 <HAL_GPIO_Init+0x1c0>
 8002e72:	4e44      	ldr	r6, [pc, #272]	; (8002f84 <HAL_GPIO_Init+0x1dc>)
 8002e74:	42b0      	cmp	r0, r6
 8002e76:	bf0c      	ite	eq
 8002e78:	f04f 0b03 	moveq.w	fp, #3
 8002e7c:	f04f 0b04 	movne.w	fp, #4
 8002e80:	9e01      	ldr	r6, [sp, #4]
 8002e82:	fa0b f909 	lsl.w	r9, fp, r9
 8002e86:	ea46 0609 	orr.w	r6, r6, r9
 8002e8a:	9601      	str	r6, [sp, #4]
 8002e8c:	609e      	str	r6, [r3, #8]
 8002e8e:	683b      	ldr	r3, [r7, #0]
 8002e90:	03d6      	lsls	r6, r2, #15
 8002e92:	bf4c      	ite	mi
 8002e94:	4323      	orrmi	r3, r4
 8002e96:	43a3      	bicpl	r3, r4
 8002e98:	603b      	str	r3, [r7, #0]
 8002e9a:	687b      	ldr	r3, [r7, #4]
 8002e9c:	0396      	lsls	r6, r2, #14
 8002e9e:	bf4c      	ite	mi
 8002ea0:	4323      	orrmi	r3, r4
 8002ea2:	43a3      	bicpl	r3, r4
 8002ea4:	607b      	str	r3, [r7, #4]
 8002ea6:	68bb      	ldr	r3, [r7, #8]
 8002ea8:	02d6      	lsls	r6, r2, #11
 8002eaa:	bf4c      	ite	mi
 8002eac:	4323      	orrmi	r3, r4
 8002eae:	43a3      	bicpl	r3, r4
 8002eb0:	60bb      	str	r3, [r7, #8]
 8002eb2:	0292      	lsls	r2, r2, #10
 8002eb4:	68fb      	ldr	r3, [r7, #12]
 8002eb6:	d515      	bpl.n	8002ee4 <HAL_GPIO_Init+0x13c>
 8002eb8:	431c      	orrs	r4, r3
 8002eba:	60fc      	str	r4, [r7, #12]
 8002ebc:	680a      	ldr	r2, [r1, #0]
 8002ebe:	3501      	adds	r5, #1
 8002ec0:	fa32 f305 	lsrs.w	r3, r2, r5
 8002ec4:	d186      	bne.n	8002dd4 <HAL_GPIO_Init+0x2c>
 8002ec6:	b005      	add	sp, #20
 8002ec8:	e8bd 8ff0 	ldmia.w	sp!, {r4, r5, r6, r7, r8, r9, sl, fp, pc}
 8002ecc:	2cff      	cmp	r4, #255	; 0xff
 8002ece:	f04f 0a00 	mov.w	sl, #0
 8002ed2:	d998      	bls.n	8002e06 <HAL_GPIO_Init+0x5e>
 8002ed4:	f105 4280 	add.w	r2, r5, #1073741824	; 0x40000000
 8002ed8:	3a08      	subs	r2, #8
 8002eda:	6843      	ldr	r3, [r0, #4]
 8002edc:	0092      	lsls	r2, r2, #2
 8002ede:	f100 0904 	add.w	r9, r0, #4
 8002ee2:	e793      	b.n	8002e0c <HAL_GPIO_Init+0x64>
 8002ee4:	ea23 0404 	bic.w	r4, r3, r4
 8002ee8:	60fc      	str	r4, [r7, #12]
 8002eea:	680a      	ldr	r2, [r1, #0]
 8002eec:	e76e      	b.n	8002dcc <HAL_GPIO_Init+0x24>
 8002eee:	b1a2      	cbz	r2, 8002f1a <HAL_GPIO_Init+0x172>
 8002ef0:	2a01      	cmp	r2, #1
 8002ef2:	d186      	bne.n	8002e02 <HAL_GPIO_Init+0x5a>
 8002ef4:	f8d1 a00c 	ldr.w	sl, [r1, #12]
 8002ef8:	e783      	b.n	8002e02 <HAL_GPIO_Init+0x5a>
 8002efa:	4e23      	ldr	r6, [pc, #140]	; (8002f88 <HAL_GPIO_Init+0x1e0>)
 8002efc:	42b2      	cmp	r2, r6
 8002efe:	d00c      	beq.n	8002f1a <HAL_GPIO_Init+0x172>
 8002f00:	d920      	bls.n	8002f44 <HAL_GPIO_Init+0x19c>
 8002f02:	4e22      	ldr	r6, [pc, #136]	; (8002f8c <HAL_GPIO_Init+0x1e4>)
 8002f04:	42b2      	cmp	r2, r6
 8002f06:	d008      	beq.n	8002f1a <HAL_GPIO_Init+0x172>
 8002f08:	f506 3680 	add.w	r6, r6, #65536	; 0x10000
 8002f0c:	42b2      	cmp	r2, r6
 8002f0e:	d004      	beq.n	8002f1a <HAL_GPIO_Init+0x172>
 8002f10:	f5a6 1680 	sub.w	r6, r6, #1048576	; 0x100000
 8002f14:	42b2      	cmp	r2, r6
 8002f16:	f47f af74 	bne.w	8002e02 <HAL_GPIO_Init+0x5a>
 8002f1a:	688a      	ldr	r2, [r1, #8]
 8002f1c:	b9e2      	cbnz	r2, 8002f58 <HAL_GPIO_Init+0x1b0>
 8002f1e:	f04f 0a04 	mov.w	sl, #4
 8002f22:	e76e      	b.n	8002e02 <HAL_GPIO_Init+0x5a>
 8002f24:	68cb      	ldr	r3, [r1, #12]
 8002f26:	f103 0a0c 	add.w	sl, r3, #12
 8002f2a:	e76a      	b.n	8002e02 <HAL_GPIO_Init+0x5a>
 8002f2c:	68cb      	ldr	r3, [r1, #12]
 8002f2e:	f103 0a08 	add.w	sl, r3, #8
 8002f32:	e766      	b.n	8002e02 <HAL_GPIO_Init+0x5a>
 8002f34:	f04f 0b01 	mov.w	fp, #1
 8002f38:	fa0b f909 	lsl.w	r9, fp, r9
 8002f3c:	ea46 0609 	orr.w	r6, r6, r9
 8002f40:	9601      	str	r6, [sp, #4]
 8002f42:	e7a3      	b.n	8002e8c <HAL_GPIO_Init+0xe4>
 8002f44:	f5a6 1680 	sub.w	r6, r6, #1048576	; 0x100000
 8002f48:	42b2      	cmp	r2, r6
 8002f4a:	d0e6      	beq.n	8002f1a <HAL_GPIO_Init+0x172>
 8002f4c:	f506 3680 	add.w	r6, r6, #65536	; 0x10000
 8002f50:	42b2      	cmp	r2, r6
 8002f52:	f47f af56 	bne.w	8002e02 <HAL_GPIO_Init+0x5a>
 8002f56:	e7e0      	b.n	8002f1a <HAL_GPIO_Init+0x172>
 8002f58:	2a01      	cmp	r2, #1
 8002f5a:	bf0c      	ite	eq
 8002f5c:	6103      	streq	r3, [r0, #16]
 8002f5e:	6143      	strne	r3, [r0, #20]
 8002f60:	f04f 0a08 	mov.w	sl, #8
 8002f64:	e74d      	b.n	8002e02 <HAL_GPIO_Init+0x5a>
 8002f66:	4770      	bx	lr
 8002f68:	f04f 0b02 	mov.w	fp, #2
 8002f6c:	9e01      	ldr	r6, [sp, #4]
 8002f6e:	fa0b f909 	lsl.w	r9, fp, r9
 8002f72:	ea46 0609 	orr.w	r6, r6, r9
 8002f76:	9601      	str	r6, [sp, #4]
 8002f78:	e788      	b.n	8002e8c <HAL_GPIO_Init+0xe4>
 8002f7a:	bf00      	nop
 8002f7c:	40010400 	.word	0x40010400
 8002f80:	40011000 	.word	0x40011000
 8002f84:	40011400 	.word	0x40011400
 8002f88:	10210000 	.word	0x10210000
 8002f8c:	10310000 	.word	0x10310000
 8002f90:	40021000 	.word	0x40021000
 8002f94:	40010800 	.word	0x40010800
 8002f98:	40010c00 	.word	0x40010c00

08002f9c <HAL_RCC_OscConfig>:
 8002f9c:	2800      	cmp	r0, #0
 8002f9e:	f000 8155 	beq.w	800324c <HAL_RCC_OscConfig+0x2b0>
 8002fa2:	e92d 41f0 	stmdb	sp!, {r4, r5, r6, r7, r8, lr}
 8002fa6:	6803      	ldr	r3, [r0, #0]
 8002fa8:	b082      	sub	sp, #8
 8002faa:	07dd      	lsls	r5, r3, #31
 8002fac:	4604      	mov	r4, r0
 8002fae:	d535      	bpl.n	800301c <HAL_RCC_OscConfig+0x80>
 8002fb0:	49a8      	ldr	r1, [pc, #672]	; (8003254 <HAL_RCC_OscConfig+0x2b8>)
 8002fb2:	684a      	ldr	r2, [r1, #4]
 8002fb4:	f002 020c 	and.w	r2, r2, #12
 8002fb8:	2a04      	cmp	r2, #4
 8002fba:	f000 8105 	beq.w	80031c8 <HAL_RCC_OscConfig+0x22c>
 8002fbe:	684a      	ldr	r2, [r1, #4]
 8002fc0:	f002 020c 	and.w	r2, r2, #12
 8002fc4:	2a08      	cmp	r2, #8
 8002fc6:	f000 80fb 	beq.w	80031c0 <HAL_RCC_OscConfig+0x224>
 8002fca:	6863      	ldr	r3, [r4, #4]
 8002fcc:	f5b3 3f80 	cmp.w	r3, #65536	; 0x10000
 8002fd0:	d010      	beq.n	8002ff4 <HAL_RCC_OscConfig+0x58>
 8002fd2:	2b00      	cmp	r3, #0
 8002fd4:	f000 8120 	beq.w	8003218 <HAL_RCC_OscConfig+0x27c>
 8002fd8:	f5b3 2fa0 	cmp.w	r3, #327680	; 0x50000
 8002fdc:	f000 8178 	beq.w	80032d0 <HAL_RCC_OscConfig+0x334>
 8002fe0:	4b9c      	ldr	r3, [pc, #624]	; (8003254 <HAL_RCC_OscConfig+0x2b8>)
 8002fe2:	681a      	ldr	r2, [r3, #0]
 8002fe4:	f422 3280 	bic.w	r2, r2, #65536	; 0x10000
 8002fe8:	601a      	str	r2, [r3, #0]
 8002fea:	681a      	ldr	r2, [r3, #0]
 8002fec:	f422 2280 	bic.w	r2, r2, #262144	; 0x40000
 8002ff0:	601a      	str	r2, [r3, #0]
 8002ff2:	e004      	b.n	8002ffe <HAL_RCC_OscConfig+0x62>
 8002ff4:	4a97      	ldr	r2, [pc, #604]	; (8003254 <HAL_RCC_OscConfig+0x2b8>)
 8002ff6:	6813      	ldr	r3, [r2, #0]
 8002ff8:	f443 3380 	orr.w	r3, r3, #65536	; 0x10000
 8002ffc:	6013      	str	r3, [r2, #0]
 8002ffe:	f7ff fbdf 	bl	80027c0 <HAL_GetTick>
 8003002:	4d94      	ldr	r5, [pc, #592]	; (8003254 <HAL_RCC_OscConfig+0x2b8>)
 8003004:	4606      	mov	r6, r0
 8003006:	e005      	b.n	8003014 <HAL_RCC_OscConfig+0x78>
 8003008:	f7ff fbda 	bl	80027c0 <HAL_GetTick>
 800300c:	1b80      	subs	r0, r0, r6
 800300e:	2864      	cmp	r0, #100	; 0x64
 8003010:	f200 80f5 	bhi.w	80031fe <HAL_RCC_OscConfig+0x262>
 8003014:	682b      	ldr	r3, [r5, #0]
 8003016:	039a      	lsls	r2, r3, #14
 8003018:	d5f6      	bpl.n	8003008 <HAL_RCC_OscConfig+0x6c>
 800301a:	6823      	ldr	r3, [r4, #0]
 800301c:	079f      	lsls	r7, r3, #30
 800301e:	d44d      	bmi.n	80030bc <HAL_RCC_OscConfig+0x120>
 8003020:	071a      	lsls	r2, r3, #28
 8003022:	d522      	bpl.n	800306a <HAL_RCC_OscConfig+0xce>
 8003024:	69a3      	ldr	r3, [r4, #24]
 8003026:	2b00      	cmp	r3, #0
 8003028:	f000 80ba 	beq.w	80031a0 <HAL_RCC_OscConfig+0x204>
 800302c:	2201      	movs	r2, #1
 800302e:	4b8a      	ldr	r3, [pc, #552]	; (8003258 <HAL_RCC_OscConfig+0x2bc>)
 8003030:	4d88      	ldr	r5, [pc, #544]	; (8003254 <HAL_RCC_OscConfig+0x2b8>)
 8003032:	601a      	str	r2, [r3, #0]
 8003034:	f7ff fbc4 	bl	80027c0 <HAL_GetTick>
 8003038:	4606      	mov	r6, r0
 800303a:	e005      	b.n	8003048 <HAL_RCC_OscConfig+0xac>
 800303c:	f7ff fbc0 	bl	80027c0 <HAL_GetTick>
 8003040:	1b80      	subs	r0, r0, r6
 8003042:	2802      	cmp	r0, #2
 8003044:	f200 80db 	bhi.w	80031fe <HAL_RCC_OscConfig+0x262>
 8003048:	6a6b      	ldr	r3, [r5, #36]	; 0x24
 800304a:	079b      	lsls	r3, r3, #30
 800304c:	d5f6      	bpl.n	800303c <HAL_RCC_OscConfig+0xa0>
 800304e:	4b83      	ldr	r3, [pc, #524]	; (800325c <HAL_RCC_OscConfig+0x2c0>)
 8003050:	4a83      	ldr	r2, [pc, #524]	; (8003260 <HAL_RCC_OscConfig+0x2c4>)
 8003052:	681b      	ldr	r3, [r3, #0]
 8003054:	fba2 2303 	umull	r2, r3, r2, r3
 8003058:	0a5b      	lsrs	r3, r3, #9
 800305a:	9301      	str	r3, [sp, #4]
 800305c:	bf00      	nop
 800305e:	9b01      	ldr	r3, [sp, #4]
 8003060:	1e5a      	subs	r2, r3, #1
 8003062:	9201      	str	r2, [sp, #4]
 8003064:	2b00      	cmp	r3, #0
 8003066:	d1f9      	bne.n	800305c <HAL_RCC_OscConfig+0xc0>
 8003068:	6823      	ldr	r3, [r4, #0]
 800306a:	075d      	lsls	r5, r3, #29
 800306c:	d569      	bpl.n	8003142 <HAL_RCC_OscConfig+0x1a6>
 800306e:	4b79      	ldr	r3, [pc, #484]	; (8003254 <HAL_RCC_OscConfig+0x2b8>)
 8003070:	69da      	ldr	r2, [r3, #28]
 8003072:	00d0      	lsls	r0, r2, #3
 8003074:	f100 80ec 	bmi.w	8003250 <HAL_RCC_OscConfig+0x2b4>
 8003078:	2501      	movs	r5, #1
 800307a:	69da      	ldr	r2, [r3, #28]
 800307c:	f042 5280 	orr.w	r2, r2, #268435456	; 0x10000000
 8003080:	61da      	str	r2, [r3, #28]
 8003082:	69db      	ldr	r3, [r3, #28]
 8003084:	f003 5380 	and.w	r3, r3, #268435456	; 0x10000000
 8003088:	9300      	str	r3, [sp, #0]
 800308a:	9b00      	ldr	r3, [sp, #0]
 800308c:	4b75      	ldr	r3, [pc, #468]	; (8003264 <HAL_RCC_OscConfig+0x2c8>)
 800308e:	681a      	ldr	r2, [r3, #0]
 8003090:	05d1      	lsls	r1, r2, #23
 8003092:	f140 80a3 	bpl.w	80031dc <HAL_RCC_OscConfig+0x240>
 8003096:	68e3      	ldr	r3, [r4, #12]
 8003098:	2b01      	cmp	r3, #1
 800309a:	d037      	beq.n	800310c <HAL_RCC_OscConfig+0x170>
 800309c:	2b00      	cmp	r3, #0
 800309e:	f000 80e7 	beq.w	8003270 <HAL_RCC_OscConfig+0x2d4>
 80030a2:	2b05      	cmp	r3, #5
 80030a4:	4b6b      	ldr	r3, [pc, #428]	; (8003254 <HAL_RCC_OscConfig+0x2b8>)
 80030a6:	6a1a      	ldr	r2, [r3, #32]
 80030a8:	f000 811f 	beq.w	80032ea <HAL_RCC_OscConfig+0x34e>
 80030ac:	f022 0201 	bic.w	r2, r2, #1
 80030b0:	621a      	str	r2, [r3, #32]
 80030b2:	6a1a      	ldr	r2, [r3, #32]
 80030b4:	f022 0204 	bic.w	r2, r2, #4
 80030b8:	621a      	str	r2, [r3, #32]
 80030ba:	e02c      	b.n	8003116 <HAL_RCC_OscConfig+0x17a>
 80030bc:	4a65      	ldr	r2, [pc, #404]	; (8003254 <HAL_RCC_OscConfig+0x2b8>)
 80030be:	6851      	ldr	r1, [r2, #4]
 80030c0:	f011 0f0c 	tst.w	r1, #12
 80030c4:	d061      	beq.n	800318a <HAL_RCC_OscConfig+0x1ee>
 80030c6:	6851      	ldr	r1, [r2, #4]
 80030c8:	f001 010c 	and.w	r1, r1, #12
 80030cc:	2908      	cmp	r1, #8
 80030ce:	d059      	beq.n	8003184 <HAL_RCC_OscConfig+0x1e8>
 80030d0:	6923      	ldr	r3, [r4, #16]
 80030d2:	2b00      	cmp	r3, #0
 80030d4:	f000 80eb 	beq.w	80032ae <HAL_RCC_OscConfig+0x312>
 80030d8:	2201      	movs	r2, #1
 80030da:	4b63      	ldr	r3, [pc, #396]	; (8003268 <HAL_RCC_OscConfig+0x2cc>)
 80030dc:	4d5d      	ldr	r5, [pc, #372]	; (8003254 <HAL_RCC_OscConfig+0x2b8>)
 80030de:	601a      	str	r2, [r3, #0]
 80030e0:	f7ff fb6e 	bl	80027c0 <HAL_GetTick>
 80030e4:	4606      	mov	r6, r0
 80030e6:	e005      	b.n	80030f4 <HAL_RCC_OscConfig+0x158>
 80030e8:	f7ff fb6a 	bl	80027c0 <HAL_GetTick>
 80030ec:	1b80      	subs	r0, r0, r6
 80030ee:	2802      	cmp	r0, #2
 80030f0:	f200 8085 	bhi.w	80031fe <HAL_RCC_OscConfig+0x262>
 80030f4:	682b      	ldr	r3, [r5, #0]
 80030f6:	0798      	lsls	r0, r3, #30
 80030f8:	d5f6      	bpl.n	80030e8 <HAL_RCC_OscConfig+0x14c>
 80030fa:	682b      	ldr	r3, [r5, #0]
 80030fc:	6962      	ldr	r2, [r4, #20]
 80030fe:	f023 03f8 	bic.w	r3, r3, #248	; 0xf8
 8003102:	ea43 03c2 	orr.w	r3, r3, r2, lsl #3
 8003106:	602b      	str	r3, [r5, #0]
 8003108:	6823      	ldr	r3, [r4, #0]
 800310a:	e789      	b.n	8003020 <HAL_RCC_OscConfig+0x84>
 800310c:	4a51      	ldr	r2, [pc, #324]	; (8003254 <HAL_RCC_OscConfig+0x2b8>)
 800310e:	6a13      	ldr	r3, [r2, #32]
 8003110:	f043 0301 	orr.w	r3, r3, #1
 8003114:	6213      	str	r3, [r2, #32]
 8003116:	f7ff fb53 	bl	80027c0 <HAL_GetTick>
 800311a:	4e4e      	ldr	r6, [pc, #312]	; (8003254 <HAL_RCC_OscConfig+0x2b8>)
 800311c:	4680      	mov	r8, r0
 800311e:	f241 3788 	movw	r7, #5000	; 0x1388
 8003122:	e005      	b.n	8003130 <HAL_RCC_OscConfig+0x194>
 8003124:	f7ff fb4c 	bl	80027c0 <HAL_GetTick>
 8003128:	eba0 0008 	sub.w	r0, r0, r8
 800312c:	42b8      	cmp	r0, r7
 800312e:	d866      	bhi.n	80031fe <HAL_RCC_OscConfig+0x262>
 8003130:	6a33      	ldr	r3, [r6, #32]
 8003132:	079b      	lsls	r3, r3, #30
 8003134:	d5f6      	bpl.n	8003124 <HAL_RCC_OscConfig+0x188>
 8003136:	b125      	cbz	r5, 8003142 <HAL_RCC_OscConfig+0x1a6>
 8003138:	4a46      	ldr	r2, [pc, #280]	; (8003254 <HAL_RCC_OscConfig+0x2b8>)
 800313a:	69d3      	ldr	r3, [r2, #28]
 800313c:	f023 5380 	bic.w	r3, r3, #268435456	; 0x10000000
 8003140:	61d3      	str	r3, [r2, #28]
 8003142:	69e0      	ldr	r0, [r4, #28]
 8003144:	b1d0      	cbz	r0, 800317c <HAL_RCC_OscConfig+0x1e0>
 8003146:	4d43      	ldr	r5, [pc, #268]	; (8003254 <HAL_RCC_OscConfig+0x2b8>)
 8003148:	686a      	ldr	r2, [r5, #4]
 800314a:	f002 020c 	and.w	r2, r2, #12
 800314e:	2a08      	cmp	r2, #8
 8003150:	f000 80d3 	beq.w	80032fa <HAL_RCC_OscConfig+0x35e>
 8003154:	2802      	cmp	r0, #2
 8003156:	f04f 0100 	mov.w	r1, #0
 800315a:	4a44      	ldr	r2, [pc, #272]	; (800326c <HAL_RCC_OscConfig+0x2d0>)
 800315c:	f000 80de 	beq.w	800331c <HAL_RCC_OscConfig+0x380>
 8003160:	6011      	str	r1, [r2, #0]
 8003162:	f7ff fb2d 	bl	80027c0 <HAL_GetTick>
 8003166:	462c      	mov	r4, r5
 8003168:	4605      	mov	r5, r0
 800316a:	e004      	b.n	8003176 <HAL_RCC_OscConfig+0x1da>
 800316c:	f7ff fb28 	bl	80027c0 <HAL_GetTick>
 8003170:	1b40      	subs	r0, r0, r5
 8003172:	2802      	cmp	r0, #2
 8003174:	d843      	bhi.n	80031fe <HAL_RCC_OscConfig+0x262>
 8003176:	6823      	ldr	r3, [r4, #0]
 8003178:	019b      	lsls	r3, r3, #6
 800317a:	d4f7      	bmi.n	800316c <HAL_RCC_OscConfig+0x1d0>
 800317c:	2000      	movs	r0, #0
 800317e:	b002      	add	sp, #8
 8003180:	e8bd 81f0 	ldmia.w	sp!, {r4, r5, r6, r7, r8, pc}
 8003184:	6852      	ldr	r2, [r2, #4]
 8003186:	03d6      	lsls	r6, r2, #15
 8003188:	d4a2      	bmi.n	80030d0 <HAL_RCC_OscConfig+0x134>
 800318a:	4a32      	ldr	r2, [pc, #200]	; (8003254 <HAL_RCC_OscConfig+0x2b8>)
 800318c:	6812      	ldr	r2, [r2, #0]
 800318e:	0795      	lsls	r5, r2, #30
 8003190:	d539      	bpl.n	8003206 <HAL_RCC_OscConfig+0x26a>
 8003192:	6922      	ldr	r2, [r4, #16]
 8003194:	2a01      	cmp	r2, #1
 8003196:	d036      	beq.n	8003206 <HAL_RCC_OscConfig+0x26a>
 8003198:	2001      	movs	r0, #1
 800319a:	b002      	add	sp, #8
 800319c:	e8bd 81f0 	ldmia.w	sp!, {r4, r5, r6, r7, r8, pc}
 80031a0:	4a2d      	ldr	r2, [pc, #180]	; (8003258 <HAL_RCC_OscConfig+0x2bc>)
 80031a2:	4d2c      	ldr	r5, [pc, #176]	; (8003254 <HAL_RCC_OscConfig+0x2b8>)
 80031a4:	6013      	str	r3, [r2, #0]
 80031a6:	f7ff fb0b 	bl	80027c0 <HAL_GetTick>
 80031aa:	4606      	mov	r6, r0
 80031ac:	e004      	b.n	80031b8 <HAL_RCC_OscConfig+0x21c>
 80031ae:	f7ff fb07 	bl	80027c0 <HAL_GetTick>
 80031b2:	1b80      	subs	r0, r0, r6
 80031b4:	2802      	cmp	r0, #2
 80031b6:	d822      	bhi.n	80031fe <HAL_RCC_OscConfig+0x262>
 80031b8:	6a6b      	ldr	r3, [r5, #36]	; 0x24
 80031ba:	079f      	lsls	r7, r3, #30
 80031bc:	d4f7      	bmi.n	80031ae <HAL_RCC_OscConfig+0x212>
 80031be:	e753      	b.n	8003068 <HAL_RCC_OscConfig+0xcc>
 80031c0:	684a      	ldr	r2, [r1, #4]
 80031c2:	03d0      	lsls	r0, r2, #15
 80031c4:	f57f af01 	bpl.w	8002fca <HAL_RCC_OscConfig+0x2e>
 80031c8:	4a22      	ldr	r2, [pc, #136]	; (8003254 <HAL_RCC_OscConfig+0x2b8>)
 80031ca:	6812      	ldr	r2, [r2, #0]
 80031cc:	0391      	lsls	r1, r2, #14
 80031ce:	f57f af25 	bpl.w	800301c <HAL_RCC_OscConfig+0x80>
 80031d2:	6862      	ldr	r2, [r4, #4]
 80031d4:	2a00      	cmp	r2, #0
 80031d6:	f47f af21 	bne.w	800301c <HAL_RCC_OscConfig+0x80>
 80031da:	e7dd      	b.n	8003198 <HAL_RCC_OscConfig+0x1fc>
 80031dc:	681a      	ldr	r2, [r3, #0]
 80031de:	461e      	mov	r6, r3
 80031e0:	f442 7280 	orr.w	r2, r2, #256	; 0x100
 80031e4:	601a      	str	r2, [r3, #0]
 80031e6:	f7ff faeb 	bl	80027c0 <HAL_GetTick>
 80031ea:	4607      	mov	r7, r0
 80031ec:	6833      	ldr	r3, [r6, #0]
 80031ee:	05da      	lsls	r2, r3, #23
 80031f0:	f53f af51 	bmi.w	8003096 <HAL_RCC_OscConfig+0xfa>
 80031f4:	f7ff fae4 	bl	80027c0 <HAL_GetTick>
 80031f8:	1bc0      	subs	r0, r0, r7
 80031fa:	2864      	cmp	r0, #100	; 0x64
 80031fc:	d9f6      	bls.n	80031ec <HAL_RCC_OscConfig+0x250>
 80031fe:	2003      	movs	r0, #3
 8003200:	b002      	add	sp, #8
 8003202:	e8bd 81f0 	ldmia.w	sp!, {r4, r5, r6, r7, r8, pc}
 8003206:	4913      	ldr	r1, [pc, #76]	; (8003254 <HAL_RCC_OscConfig+0x2b8>)
 8003208:	6960      	ldr	r0, [r4, #20]
 800320a:	680a      	ldr	r2, [r1, #0]
 800320c:	f022 02f8 	bic.w	r2, r2, #248	; 0xf8
 8003210:	ea42 02c0 	orr.w	r2, r2, r0, lsl #3
 8003214:	600a      	str	r2, [r1, #0]
 8003216:	e703      	b.n	8003020 <HAL_RCC_OscConfig+0x84>
 8003218:	f103 4380 	add.w	r3, r3, #1073741824	; 0x40000000
 800321c:	f503 3304 	add.w	r3, r3, #135168	; 0x21000
 8003220:	681a      	ldr	r2, [r3, #0]
 8003222:	461d      	mov	r5, r3
 8003224:	f422 3280 	bic.w	r2, r2, #65536	; 0x10000
 8003228:	601a      	str	r2, [r3, #0]
 800322a:	681a      	ldr	r2, [r3, #0]
 800322c:	f422 2280 	bic.w	r2, r2, #262144	; 0x40000
 8003230:	601a      	str	r2, [r3, #0]
 8003232:	f7ff fac5 	bl	80027c0 <HAL_GetTick>
 8003236:	4606      	mov	r6, r0
 8003238:	e004      	b.n	8003244 <HAL_RCC_OscConfig+0x2a8>
 800323a:	f7ff fac1 	bl	80027c0 <HAL_GetTick>
 800323e:	1b80      	subs	r0, r0, r6
 8003240:	2864      	cmp	r0, #100	; 0x64
 8003242:	d8dc      	bhi.n	80031fe <HAL_RCC_OscConfig+0x262>
 8003244:	682b      	ldr	r3, [r5, #0]
 8003246:	039b      	lsls	r3, r3, #14
 8003248:	d4f7      	bmi.n	800323a <HAL_RCC_OscConfig+0x29e>
 800324a:	e6e6      	b.n	800301a <HAL_RCC_OscConfig+0x7e>
 800324c:	2001      	movs	r0, #1
 800324e:	4770      	bx	lr
 8003250:	2500      	movs	r5, #0
 8003252:	e71b      	b.n	800308c <HAL_RCC_OscConfig+0xf0>
 8003254:	40021000 	.word	0x40021000
 8003258:	42420480 	.word	0x42420480
 800325c:	200005a4 	.word	0x200005a4
 8003260:	10624dd3 	.word	0x10624dd3
 8003264:	40007000 	.word	0x40007000
 8003268:	42420000 	.word	0x42420000
 800326c:	42420060 	.word	0x42420060
 8003270:	f103 4380 	add.w	r3, r3, #1073741824	; 0x40000000
 8003274:	f503 3304 	add.w	r3, r3, #135168	; 0x21000
 8003278:	6a1a      	ldr	r2, [r3, #32]
 800327a:	461e      	mov	r6, r3
 800327c:	f022 0201 	bic.w	r2, r2, #1
 8003280:	621a      	str	r2, [r3, #32]
 8003282:	6a1a      	ldr	r2, [r3, #32]
 8003284:	f241 3888 	movw	r8, #5000	; 0x1388
 8003288:	f022 0204 	bic.w	r2, r2, #4
 800328c:	621a      	str	r2, [r3, #32]
 800328e:	f7ff fa97 	bl	80027c0 <HAL_GetTick>
 8003292:	4607      	mov	r7, r0
 8003294:	e004      	b.n	80032a0 <HAL_RCC_OscConfig+0x304>
 8003296:	f7ff fa93 	bl	80027c0 <HAL_GetTick>
 800329a:	1bc0      	subs	r0, r0, r7
 800329c:	4540      	cmp	r0, r8
 800329e:	d8ae      	bhi.n	80031fe <HAL_RCC_OscConfig+0x262>
 80032a0:	6a33      	ldr	r3, [r6, #32]
 80032a2:	0798      	lsls	r0, r3, #30
 80032a4:	d4f7      	bmi.n	8003296 <HAL_RCC_OscConfig+0x2fa>
 80032a6:	2d00      	cmp	r5, #0
 80032a8:	f43f af4b 	beq.w	8003142 <HAL_RCC_OscConfig+0x1a6>
 80032ac:	e744      	b.n	8003138 <HAL_RCC_OscConfig+0x19c>
 80032ae:	4a34      	ldr	r2, [pc, #208]	; (8003380 <HAL_RCC_OscConfig+0x3e4>)
 80032b0:	4d34      	ldr	r5, [pc, #208]	; (8003384 <HAL_RCC_OscConfig+0x3e8>)
 80032b2:	6013      	str	r3, [r2, #0]
 80032b4:	f7ff fa84 	bl	80027c0 <HAL_GetTick>
 80032b8:	4606      	mov	r6, r0
 80032ba:	e004      	b.n	80032c6 <HAL_RCC_OscConfig+0x32a>
 80032bc:	f7ff fa80 	bl	80027c0 <HAL_GetTick>
 80032c0:	1b80      	subs	r0, r0, r6
 80032c2:	2802      	cmp	r0, #2
 80032c4:	d89b      	bhi.n	80031fe <HAL_RCC_OscConfig+0x262>
 80032c6:	682b      	ldr	r3, [r5, #0]
 80032c8:	0799      	lsls	r1, r3, #30
 80032ca:	d4f7      	bmi.n	80032bc <HAL_RCC_OscConfig+0x320>
 80032cc:	6823      	ldr	r3, [r4, #0]
 80032ce:	e6a7      	b.n	8003020 <HAL_RCC_OscConfig+0x84>
 80032d0:	f103 4380 	add.w	r3, r3, #1073741824	; 0x40000000
 80032d4:	f5a3 333c 	sub.w	r3, r3, #192512	; 0x2f000
 80032d8:	681a      	ldr	r2, [r3, #0]
 80032da:	f442 2280 	orr.w	r2, r2, #262144	; 0x40000
 80032de:	601a      	str	r2, [r3, #0]
 80032e0:	681a      	ldr	r2, [r3, #0]
 80032e2:	f442 3280 	orr.w	r2, r2, #65536	; 0x10000
 80032e6:	601a      	str	r2, [r3, #0]
 80032e8:	e689      	b.n	8002ffe <HAL_RCC_OscConfig+0x62>
 80032ea:	f042 0204 	orr.w	r2, r2, #4
 80032ee:	621a      	str	r2, [r3, #32]
 80032f0:	6a1a      	ldr	r2, [r3, #32]
 80032f2:	f042 0201 	orr.w	r2, r2, #1
 80032f6:	621a      	str	r2, [r3, #32]
 80032f8:	e70d      	b.n	8003116 <HAL_RCC_OscConfig+0x17a>
 80032fa:	2801      	cmp	r0, #1
 80032fc:	f43f af4d 	beq.w	800319a <HAL_RCC_OscConfig+0x1fe>
 8003300:	686b      	ldr	r3, [r5, #4]
 8003302:	6a22      	ldr	r2, [r4, #32]
 8003304:	f403 3180 	and.w	r1, r3, #65536	; 0x10000
 8003308:	4291      	cmp	r1, r2
 800330a:	f47f af45 	bne.w	8003198 <HAL_RCC_OscConfig+0x1fc>
 800330e:	6a60      	ldr	r0, [r4, #36]	; 0x24
 8003310:	f403 1370 	and.w	r3, r3, #3932160	; 0x3c0000
 8003314:	1a18      	subs	r0, r3, r0
 8003316:	bf18      	it	ne
 8003318:	2001      	movne	r0, #1
 800331a:	e73e      	b.n	800319a <HAL_RCC_OscConfig+0x1fe>
 800331c:	6011      	str	r1, [r2, #0]
 800331e:	f7ff fa4f 	bl	80027c0 <HAL_GetTick>
 8003322:	4606      	mov	r6, r0
 8003324:	e005      	b.n	8003332 <HAL_RCC_OscConfig+0x396>
 8003326:	f7ff fa4b 	bl	80027c0 <HAL_GetTick>
 800332a:	1b80      	subs	r0, r0, r6
 800332c:	2802      	cmp	r0, #2
 800332e:	f63f af66 	bhi.w	80031fe <HAL_RCC_OscConfig+0x262>
 8003332:	682b      	ldr	r3, [r5, #0]
 8003334:	0199      	lsls	r1, r3, #6
 8003336:	d4f6      	bmi.n	8003326 <HAL_RCC_OscConfig+0x38a>
 8003338:	6a22      	ldr	r2, [r4, #32]
 800333a:	f5b2 3f80 	cmp.w	r2, #65536	; 0x10000
 800333e:	d105      	bne.n	800334c <HAL_RCC_OscConfig+0x3b0>
 8003340:	686b      	ldr	r3, [r5, #4]
 8003342:	68a1      	ldr	r1, [r4, #8]
 8003344:	f423 3300 	bic.w	r3, r3, #131072	; 0x20000
 8003348:	430b      	orrs	r3, r1
 800334a:	606b      	str	r3, [r5, #4]
 800334c:	2501      	movs	r5, #1
 800334e:	4b0d      	ldr	r3, [pc, #52]	; (8003384 <HAL_RCC_OscConfig+0x3e8>)
 8003350:	6a60      	ldr	r0, [r4, #36]	; 0x24
 8003352:	6859      	ldr	r1, [r3, #4]
 8003354:	4302      	orrs	r2, r0
 8003356:	f421 1174 	bic.w	r1, r1, #3997696	; 0x3d0000
 800335a:	480b      	ldr	r0, [pc, #44]	; (8003388 <HAL_RCC_OscConfig+0x3ec>)
 800335c:	430a      	orrs	r2, r1
 800335e:	605a      	str	r2, [r3, #4]
 8003360:	6005      	str	r5, [r0, #0]
 8003362:	461c      	mov	r4, r3
 8003364:	f7ff fa2c 	bl	80027c0 <HAL_GetTick>
 8003368:	4605      	mov	r5, r0
 800336a:	e005      	b.n	8003378 <HAL_RCC_OscConfig+0x3dc>
 800336c:	f7ff fa28 	bl	80027c0 <HAL_GetTick>
 8003370:	1b40      	subs	r0, r0, r5
 8003372:	2802      	cmp	r0, #2
 8003374:	f63f af43 	bhi.w	80031fe <HAL_RCC_OscConfig+0x262>
 8003378:	6823      	ldr	r3, [r4, #0]
 800337a:	019a      	lsls	r2, r3, #6
 800337c:	d5f6      	bpl.n	800336c <HAL_RCC_OscConfig+0x3d0>
 800337e:	e6fd      	b.n	800317c <HAL_RCC_OscConfig+0x1e0>
 8003380:	42420000 	.word	0x42420000
 8003384:	40021000 	.word	0x40021000
 8003388:	42420060 	.word	0x42420060

0800338c <HAL_RCC_ClockConfig>:
 800338c:	b178      	cbz	r0, 80033ae <HAL_RCC_ClockConfig+0x22>
 800338e:	4a5d      	ldr	r2, [pc, #372]	; (8003504 <HAL_RCC_ClockConfig+0x178>)
 8003390:	6813      	ldr	r3, [r2, #0]
 8003392:	f003 0307 	and.w	r3, r3, #7
 8003396:	428b      	cmp	r3, r1
 8003398:	d20b      	bcs.n	80033b2 <HAL_RCC_ClockConfig+0x26>
 800339a:	6813      	ldr	r3, [r2, #0]
 800339c:	f023 0307 	bic.w	r3, r3, #7
 80033a0:	430b      	orrs	r3, r1
 80033a2:	6013      	str	r3, [r2, #0]
 80033a4:	6813      	ldr	r3, [r2, #0]
 80033a6:	f003 0307 	and.w	r3, r3, #7
 80033aa:	428b      	cmp	r3, r1
 80033ac:	d001      	beq.n	80033b2 <HAL_RCC_ClockConfig+0x26>
 80033ae:	2001      	movs	r0, #1
 80033b0:	4770      	bx	lr
 80033b2:	e92d 41f0 	stmdb	sp!, {r4, r5, r6, r7, r8, lr}
 80033b6:	6803      	ldr	r3, [r0, #0]
 80033b8:	b086      	sub	sp, #24
 80033ba:	079d      	lsls	r5, r3, #30
 80033bc:	d514      	bpl.n	80033e8 <HAL_RCC_ClockConfig+0x5c>
 80033be:	075c      	lsls	r4, r3, #29
 80033c0:	d504      	bpl.n	80033cc <HAL_RCC_ClockConfig+0x40>
 80033c2:	4c51      	ldr	r4, [pc, #324]	; (8003508 <HAL_RCC_ClockConfig+0x17c>)
 80033c4:	6862      	ldr	r2, [r4, #4]
 80033c6:	f442 62e0 	orr.w	r2, r2, #1792	; 0x700
 80033ca:	6062      	str	r2, [r4, #4]
 80033cc:	071a      	lsls	r2, r3, #28
 80033ce:	d504      	bpl.n	80033da <HAL_RCC_ClockConfig+0x4e>
 80033d0:	4c4d      	ldr	r4, [pc, #308]	; (8003508 <HAL_RCC_ClockConfig+0x17c>)
 80033d2:	6862      	ldr	r2, [r4, #4]
 80033d4:	f442 5260 	orr.w	r2, r2, #14336	; 0x3800
 80033d8:	6062      	str	r2, [r4, #4]
 80033da:	4c4b      	ldr	r4, [pc, #300]	; (8003508 <HAL_RCC_ClockConfig+0x17c>)
 80033dc:	6885      	ldr	r5, [r0, #8]
 80033de:	6862      	ldr	r2, [r4, #4]
 80033e0:	f022 02f0 	bic.w	r2, r2, #240	; 0xf0
 80033e4:	432a      	orrs	r2, r5
 80033e6:	6062      	str	r2, [r4, #4]
 80033e8:	07db      	lsls	r3, r3, #31
 80033ea:	4604      	mov	r4, r0
 80033ec:	460d      	mov	r5, r1
 80033ee:	d520      	bpl.n	8003432 <HAL_RCC_ClockConfig+0xa6>
 80033f0:	6842      	ldr	r2, [r0, #4]
 80033f2:	4b45      	ldr	r3, [pc, #276]	; (8003508 <HAL_RCC_ClockConfig+0x17c>)
 80033f4:	2a01      	cmp	r2, #1
 80033f6:	681b      	ldr	r3, [r3, #0]
 80033f8:	d06f      	beq.n	80034da <HAL_RCC_ClockConfig+0x14e>
 80033fa:	2a02      	cmp	r2, #2
 80033fc:	d07e      	beq.n	80034fc <HAL_RCC_ClockConfig+0x170>
 80033fe:	0798      	lsls	r0, r3, #30
 8003400:	d527      	bpl.n	8003452 <HAL_RCC_ClockConfig+0xc6>
 8003402:	4e41      	ldr	r6, [pc, #260]	; (8003508 <HAL_RCC_ClockConfig+0x17c>)
 8003404:	f241 3888 	movw	r8, #5000	; 0x1388
 8003408:	6873      	ldr	r3, [r6, #4]
 800340a:	f023 0303 	bic.w	r3, r3, #3
 800340e:	4313      	orrs	r3, r2
 8003410:	6073      	str	r3, [r6, #4]
 8003412:	f7ff f9d5 	bl	80027c0 <HAL_GetTick>
 8003416:	4607      	mov	r7, r0
 8003418:	e004      	b.n	8003424 <HAL_RCC_ClockConfig+0x98>
 800341a:	f7ff f9d1 	bl	80027c0 <HAL_GetTick>
 800341e:	1bc0      	subs	r0, r0, r7
 8003420:	4540      	cmp	r0, r8
 8003422:	d869      	bhi.n	80034f8 <HAL_RCC_ClockConfig+0x16c>
 8003424:	6873      	ldr	r3, [r6, #4]
 8003426:	6862      	ldr	r2, [r4, #4]
 8003428:	f003 030c 	and.w	r3, r3, #12
 800342c:	ebb3 0f82 	cmp.w	r3, r2, lsl #2
 8003430:	d1f3      	bne.n	800341a <HAL_RCC_ClockConfig+0x8e>
 8003432:	4a34      	ldr	r2, [pc, #208]	; (8003504 <HAL_RCC_ClockConfig+0x178>)
 8003434:	6813      	ldr	r3, [r2, #0]
 8003436:	f003 0307 	and.w	r3, r3, #7
 800343a:	42ab      	cmp	r3, r5
 800343c:	d90d      	bls.n	800345a <HAL_RCC_ClockConfig+0xce>
 800343e:	6813      	ldr	r3, [r2, #0]
 8003440:	f023 0307 	bic.w	r3, r3, #7
 8003444:	432b      	orrs	r3, r5
 8003446:	6013      	str	r3, [r2, #0]
 8003448:	6813      	ldr	r3, [r2, #0]
 800344a:	f003 0307 	and.w	r3, r3, #7
 800344e:	42ab      	cmp	r3, r5
 8003450:	d003      	beq.n	800345a <HAL_RCC_ClockConfig+0xce>
 8003452:	2001      	movs	r0, #1
 8003454:	b006      	add	sp, #24
 8003456:	e8bd 81f0 	ldmia.w	sp!, {r4, r5, r6, r7, r8, pc}
 800345a:	6823      	ldr	r3, [r4, #0]
 800345c:	0759      	lsls	r1, r3, #29
 800345e:	d506      	bpl.n	800346e <HAL_RCC_ClockConfig+0xe2>
 8003460:	4929      	ldr	r1, [pc, #164]	; (8003508 <HAL_RCC_ClockConfig+0x17c>)
 8003462:	68e0      	ldr	r0, [r4, #12]
 8003464:	684a      	ldr	r2, [r1, #4]
 8003466:	f422 62e0 	bic.w	r2, r2, #1792	; 0x700
 800346a:	4302      	orrs	r2, r0
 800346c:	604a      	str	r2, [r1, #4]
 800346e:	071a      	lsls	r2, r3, #28
 8003470:	d507      	bpl.n	8003482 <HAL_RCC_ClockConfig+0xf6>
 8003472:	4a25      	ldr	r2, [pc, #148]	; (8003508 <HAL_RCC_ClockConfig+0x17c>)
 8003474:	6921      	ldr	r1, [r4, #16]
 8003476:	6853      	ldr	r3, [r2, #4]
 8003478:	f423 5360 	bic.w	r3, r3, #14336	; 0x3800
 800347c:	ea43 03c1 	orr.w	r3, r3, r1, lsl #3
 8003480:	6053      	str	r3, [r2, #4]
 8003482:	f240 2201 	movw	r2, #513	; 0x201
 8003486:	4b21      	ldr	r3, [pc, #132]	; (800350c <HAL_RCC_ClockConfig+0x180>)
 8003488:	ac06      	add	r4, sp, #24
 800348a:	f8ad 2004 	strh.w	r2, [sp, #4]
 800348e:	cb0f      	ldmia	r3, {r0, r1, r2, r3}
 8003490:	e904 000f 	stmdb	r4, {r0, r1, r2, r3}
 8003494:	491c      	ldr	r1, [pc, #112]	; (8003508 <HAL_RCC_ClockConfig+0x17c>)
 8003496:	684a      	ldr	r2, [r1, #4]
 8003498:	f002 030c 	and.w	r3, r2, #12
 800349c:	2b08      	cmp	r3, #8
 800349e:	d11a      	bne.n	80034d6 <HAL_RCC_ClockConfig+0x14a>
 80034a0:	f3c2 4383 	ubfx	r3, r2, #18, #4
 80034a4:	4423      	add	r3, r4
 80034a6:	f813 0c10 	ldrb.w	r0, [r3, #-16]
 80034aa:	03d3      	lsls	r3, r2, #15
 80034ac:	d418      	bmi.n	80034e0 <HAL_RCC_ClockConfig+0x154>
 80034ae:	4b18      	ldr	r3, [pc, #96]	; (8003510 <HAL_RCC_ClockConfig+0x184>)
 80034b0:	fb03 f300 	mul.w	r3, r3, r0
 80034b4:	4a14      	ldr	r2, [pc, #80]	; (8003508 <HAL_RCC_ClockConfig+0x17c>)
 80034b6:	4817      	ldr	r0, [pc, #92]	; (8003514 <HAL_RCC_ClockConfig+0x188>)
 80034b8:	6852      	ldr	r2, [r2, #4]
 80034ba:	4917      	ldr	r1, [pc, #92]	; (8003518 <HAL_RCC_ClockConfig+0x18c>)
 80034bc:	f3c2 1203 	ubfx	r2, r2, #4, #4
 80034c0:	5c80      	ldrb	r0, [r0, r2]
 80034c2:	4a16      	ldr	r2, [pc, #88]	; (800351c <HAL_RCC_ClockConfig+0x190>)
 80034c4:	40c3      	lsrs	r3, r0
 80034c6:	6808      	ldr	r0, [r1, #0]
 80034c8:	6013      	str	r3, [r2, #0]
 80034ca:	f7ff f937 	bl	800273c <HAL_InitTick>
 80034ce:	2000      	movs	r0, #0
 80034d0:	b006      	add	sp, #24
 80034d2:	e8bd 81f0 	ldmia.w	sp!, {r4, r5, r6, r7, r8, pc}
 80034d6:	4b12      	ldr	r3, [pc, #72]	; (8003520 <HAL_RCC_ClockConfig+0x194>)
 80034d8:	e7ec      	b.n	80034b4 <HAL_RCC_ClockConfig+0x128>
 80034da:	039f      	lsls	r7, r3, #14
 80034dc:	d491      	bmi.n	8003402 <HAL_RCC_ClockConfig+0x76>
 80034de:	e7b8      	b.n	8003452 <HAL_RCC_ClockConfig+0xc6>
 80034e0:	684a      	ldr	r2, [r1, #4]
 80034e2:	4b0f      	ldr	r3, [pc, #60]	; (8003520 <HAL_RCC_ClockConfig+0x194>)
 80034e4:	f3c2 4240 	ubfx	r2, r2, #17, #1
 80034e8:	fb03 f300 	mul.w	r3, r3, r0
 80034ec:	4422      	add	r2, r4
 80034ee:	f812 2c14 	ldrb.w	r2, [r2, #-20]
 80034f2:	fbb3 f3f2 	udiv	r3, r3, r2
 80034f6:	e7dd      	b.n	80034b4 <HAL_RCC_ClockConfig+0x128>
 80034f8:	2003      	movs	r0, #3
 80034fa:	e7ab      	b.n	8003454 <HAL_RCC_ClockConfig+0xc8>
 80034fc:	019e      	lsls	r6, r3, #6
 80034fe:	d480      	bmi.n	8003402 <HAL_RCC_ClockConfig+0x76>
 8003500:	e7a7      	b.n	8003452 <HAL_RCC_ClockConfig+0xc6>
 8003502:	bf00      	nop
 8003504:	40022000 	.word	0x40022000
 8003508:	40021000 	.word	0x40021000
 800350c:	08005df4 	.word	0x08005df4
 8003510:	003d0900 	.word	0x003d0900
 8003514:	080060b4 	.word	0x080060b4
 8003518:	200005ac 	.word	0x200005ac
 800351c:	200005a4 	.word	0x200005a4
 8003520:	007a1200 	.word	0x007a1200

08003524 <HAL_RCC_EnableCSS>:
 8003524:	2201      	movs	r2, #1
 8003526:	4b01      	ldr	r3, [pc, #4]	; (800352c <HAL_RCC_EnableCSS+0x8>)
 8003528:	601a      	str	r2, [r3, #0]
 800352a:	4770      	bx	lr
 800352c:	4242004c 	.word	0x4242004c

08003530 <HAL_RCC_GetHCLKFreq>:
 8003530:	4b01      	ldr	r3, [pc, #4]	; (8003538 <HAL_RCC_GetHCLKFreq+0x8>)
 8003532:	6818      	ldr	r0, [r3, #0]
 8003534:	4770      	bx	lr
 8003536:	bf00      	nop
 8003538:	200005a4 	.word	0x200005a4

0800353c <HAL_RCC_GetPCLK1Freq>:
 800353c:	4b04      	ldr	r3, [pc, #16]	; (8003550 <HAL_RCC_GetPCLK1Freq+0x14>)
 800353e:	4905      	ldr	r1, [pc, #20]	; (8003554 <HAL_RCC_GetPCLK1Freq+0x18>)
 8003540:	685b      	ldr	r3, [r3, #4]
 8003542:	4a05      	ldr	r2, [pc, #20]	; (8003558 <HAL_RCC_GetPCLK1Freq+0x1c>)
 8003544:	f3c3 2302 	ubfx	r3, r3, #8, #3
 8003548:	5ccb      	ldrb	r3, [r1, r3]
 800354a:	6810      	ldr	r0, [r2, #0]
 800354c:	40d8      	lsrs	r0, r3
 800354e:	4770      	bx	lr
 8003550:	40021000 	.word	0x40021000
 8003554:	080060c4 	.word	0x080060c4
 8003558:	200005a4 	.word	0x200005a4

0800355c <HAL_RCC_GetPCLK2Freq>:
 800355c:	4b04      	ldr	r3, [pc, #16]	; (8003570 <HAL_RCC_GetPCLK2Freq+0x14>)
 800355e:	4905      	ldr	r1, [pc, #20]	; (8003574 <HAL_RCC_GetPCLK2Freq+0x18>)
 8003560:	685b      	ldr	r3, [r3, #4]
 8003562:	4a05      	ldr	r2, [pc, #20]	; (8003578 <HAL_RCC_GetPCLK2Freq+0x1c>)
 8003564:	f3c3 23c2 	ubfx	r3, r3, #11, #3
 8003568:	5ccb      	ldrb	r3, [r1, r3]
 800356a:	6810      	ldr	r0, [r2, #0]
 800356c:	40d8      	lsrs	r0, r3
 800356e:	4770      	bx	lr
 8003570:	40021000 	.word	0x40021000
 8003574:	080060c4 	.word	0x080060c4
 8003578:	200005a4 	.word	0x200005a4

0800357c <HAL_RCCEx_PeriphCLKConfig>:
 800357c:	e92d 41f0 	stmdb	sp!, {r4, r5, r6, r7, r8, lr}
 8003580:	4604      	mov	r4, r0
 8003582:	6800      	ldr	r0, [r0, #0]
 8003584:	b082      	sub	sp, #8
 8003586:	07c5      	lsls	r5, r0, #31
 8003588:	d52a      	bpl.n	80035e0 <HAL_RCCEx_PeriphCLKConfig+0x64>
 800358a:	4b3a      	ldr	r3, [pc, #232]	; (8003674 <HAL_RCCEx_PeriphCLKConfig+0xf8>)
 800358c:	69da      	ldr	r2, [r3, #28]
 800358e:	00d1      	lsls	r1, r2, #3
 8003590:	d53d      	bpl.n	800360e <HAL_RCCEx_PeriphCLKConfig+0x92>
 8003592:	4b39      	ldr	r3, [pc, #228]	; (8003678 <HAL_RCCEx_PeriphCLKConfig+0xfc>)
 8003594:	2500      	movs	r5, #0
 8003596:	681a      	ldr	r2, [r3, #0]
 8003598:	05d2      	lsls	r2, r2, #23
 800359a:	d546      	bpl.n	800362a <HAL_RCCEx_PeriphCLKConfig+0xae>
 800359c:	4935      	ldr	r1, [pc, #212]	; (8003674 <HAL_RCCEx_PeriphCLKConfig+0xf8>)
 800359e:	6860      	ldr	r0, [r4, #4]
 80035a0:	6a0a      	ldr	r2, [r1, #32]
 80035a2:	f412 7240 	ands.w	r2, r2, #768	; 0x300
 80035a6:	d00f      	beq.n	80035c8 <HAL_RCCEx_PeriphCLKConfig+0x4c>
 80035a8:	f400 7340 	and.w	r3, r0, #768	; 0x300
 80035ac:	4293      	cmp	r3, r2
 80035ae:	d00b      	beq.n	80035c8 <HAL_RCCEx_PeriphCLKConfig+0x4c>
 80035b0:	2701      	movs	r7, #1
 80035b2:	2600      	movs	r6, #0
 80035b4:	6a0b      	ldr	r3, [r1, #32]
 80035b6:	4a31      	ldr	r2, [pc, #196]	; (800367c <HAL_RCCEx_PeriphCLKConfig+0x100>)
 80035b8:	f423 7040 	bic.w	r0, r3, #768	; 0x300
 80035bc:	6017      	str	r7, [r2, #0]
 80035be:	6016      	str	r6, [r2, #0]
 80035c0:	6208      	str	r0, [r1, #32]
 80035c2:	07d8      	lsls	r0, r3, #31
 80035c4:	d445      	bmi.n	8003652 <HAL_RCCEx_PeriphCLKConfig+0xd6>
 80035c6:	6860      	ldr	r0, [r4, #4]
 80035c8:	4a2a      	ldr	r2, [pc, #168]	; (8003674 <HAL_RCCEx_PeriphCLKConfig+0xf8>)
 80035ca:	6a13      	ldr	r3, [r2, #32]
 80035cc:	f423 7340 	bic.w	r3, r3, #768	; 0x300
 80035d0:	4303      	orrs	r3, r0
 80035d2:	6213      	str	r3, [r2, #32]
 80035d4:	b11d      	cbz	r5, 80035de <HAL_RCCEx_PeriphCLKConfig+0x62>
 80035d6:	69d3      	ldr	r3, [r2, #28]
 80035d8:	f023 5380 	bic.w	r3, r3, #268435456	; 0x10000000
 80035dc:	61d3      	str	r3, [r2, #28]
 80035de:	6820      	ldr	r0, [r4, #0]
 80035e0:	0783      	lsls	r3, r0, #30
 80035e2:	d506      	bpl.n	80035f2 <HAL_RCCEx_PeriphCLKConfig+0x76>
 80035e4:	4a23      	ldr	r2, [pc, #140]	; (8003674 <HAL_RCCEx_PeriphCLKConfig+0xf8>)
 80035e6:	68a1      	ldr	r1, [r4, #8]
 80035e8:	6853      	ldr	r3, [r2, #4]
 80035ea:	f423 4340 	bic.w	r3, r3, #49152	; 0xc000
 80035ee:	430b      	orrs	r3, r1
 80035f0:	6053      	str	r3, [r2, #4]
 80035f2:	f010 0010 	ands.w	r0, r0, #16
 80035f6:	d007      	beq.n	8003608 <HAL_RCCEx_PeriphCLKConfig+0x8c>
 80035f8:	2000      	movs	r0, #0
 80035fa:	4a1e      	ldr	r2, [pc, #120]	; (8003674 <HAL_RCCEx_PeriphCLKConfig+0xf8>)
 80035fc:	68e1      	ldr	r1, [r4, #12]
 80035fe:	6853      	ldr	r3, [r2, #4]
 8003600:	f423 0380 	bic.w	r3, r3, #4194304	; 0x400000
 8003604:	430b      	orrs	r3, r1
 8003606:	6053      	str	r3, [r2, #4]
 8003608:	b002      	add	sp, #8
 800360a:	e8bd 81f0 	ldmia.w	sp!, {r4, r5, r6, r7, r8, pc}
 800360e:	69da      	ldr	r2, [r3, #28]
 8003610:	2501      	movs	r5, #1
 8003612:	f042 5280 	orr.w	r2, r2, #268435456	; 0x10000000
 8003616:	61da      	str	r2, [r3, #28]
 8003618:	69db      	ldr	r3, [r3, #28]
 800361a:	f003 5380 	and.w	r3, r3, #268435456	; 0x10000000
 800361e:	9301      	str	r3, [sp, #4]
 8003620:	9b01      	ldr	r3, [sp, #4]
 8003622:	4b15      	ldr	r3, [pc, #84]	; (8003678 <HAL_RCCEx_PeriphCLKConfig+0xfc>)
 8003624:	681a      	ldr	r2, [r3, #0]
 8003626:	05d2      	lsls	r2, r2, #23
 8003628:	d4b8      	bmi.n	800359c <HAL_RCCEx_PeriphCLKConfig+0x20>
 800362a:	681a      	ldr	r2, [r3, #0]
 800362c:	461e      	mov	r6, r3
 800362e:	f442 7280 	orr.w	r2, r2, #256	; 0x100
 8003632:	601a      	str	r2, [r3, #0]
 8003634:	f7ff f8c4 	bl	80027c0 <HAL_GetTick>
 8003638:	4607      	mov	r7, r0
 800363a:	6833      	ldr	r3, [r6, #0]
 800363c:	05db      	lsls	r3, r3, #23
 800363e:	d4ad      	bmi.n	800359c <HAL_RCCEx_PeriphCLKConfig+0x20>
 8003640:	f7ff f8be 	bl	80027c0 <HAL_GetTick>
 8003644:	1bc0      	subs	r0, r0, r7
 8003646:	2864      	cmp	r0, #100	; 0x64
 8003648:	d9f7      	bls.n	800363a <HAL_RCCEx_PeriphCLKConfig+0xbe>
 800364a:	2003      	movs	r0, #3
 800364c:	b002      	add	sp, #8
 800364e:	e8bd 81f0 	ldmia.w	sp!, {r4, r5, r6, r7, r8, pc}
 8003652:	460e      	mov	r6, r1
 8003654:	f7ff f8b4 	bl	80027c0 <HAL_GetTick>
 8003658:	f241 3788 	movw	r7, #5000	; 0x1388
 800365c:	4680      	mov	r8, r0
 800365e:	6a33      	ldr	r3, [r6, #32]
 8003660:	079a      	lsls	r2, r3, #30
 8003662:	d4b0      	bmi.n	80035c6 <HAL_RCCEx_PeriphCLKConfig+0x4a>
 8003664:	f7ff f8ac 	bl	80027c0 <HAL_GetTick>
 8003668:	eba0 0008 	sub.w	r0, r0, r8
 800366c:	42b8      	cmp	r0, r7
 800366e:	d9f6      	bls.n	800365e <HAL_RCCEx_PeriphCLKConfig+0xe2>
 8003670:	e7eb      	b.n	800364a <HAL_RCCEx_PeriphCLKConfig+0xce>
 8003672:	bf00      	nop
 8003674:	40021000 	.word	0x40021000
 8003678:	40007000 	.word	0x40007000
 800367c:	42420440 	.word	0x42420440

08003680 <HAL_TIM_Base_Init>:
 8003680:	2800      	cmp	r0, #0
 8003682:	d048      	beq.n	8003716 <HAL_TIM_Base_Init+0x96>
 8003684:	f890 303d 	ldrb.w	r3, [r0, #61]	; 0x3d
 8003688:	b570      	push	{r4, r5, r6, lr}
 800368a:	f003 02ff 	and.w	r2, r3, #255	; 0xff
 800368e:	4604      	mov	r4, r0
 8003690:	b39b      	cbz	r3, 80036fa <HAL_TIM_Base_Init+0x7a>
 8003692:	2302      	movs	r3, #2
 8003694:	6822      	ldr	r2, [r4, #0]
 8003696:	4e29      	ldr	r6, [pc, #164]	; (800373c <HAL_TIM_Base_Init+0xbc>)
 8003698:	f884 303d 	strb.w	r3, [r4, #61]	; 0x3d
 800369c:	42b2      	cmp	r2, r6
 800369e:	6813      	ldr	r3, [r2, #0]
 80036a0:	69a5      	ldr	r5, [r4, #24]
 80036a2:	68e0      	ldr	r0, [r4, #12]
 80036a4:	6861      	ldr	r1, [r4, #4]
 80036a6:	d038      	beq.n	800371a <HAL_TIM_Base_Init+0x9a>
 80036a8:	f1b2 4f80 	cmp.w	r2, #1073741824	; 0x40000000
 80036ac:	d02a      	beq.n	8003704 <HAL_TIM_Base_Init+0x84>
 80036ae:	f5a6 3694 	sub.w	r6, r6, #75776	; 0x12800
 80036b2:	42b2      	cmp	r2, r6
 80036b4:	d026      	beq.n	8003704 <HAL_TIM_Base_Init+0x84>
 80036b6:	f506 6680 	add.w	r6, r6, #1024	; 0x400
 80036ba:	42b2      	cmp	r2, r6
 80036bc:	d022      	beq.n	8003704 <HAL_TIM_Base_Init+0x84>
 80036be:	f023 0380 	bic.w	r3, r3, #128	; 0x80
 80036c2:	432b      	orrs	r3, r5
 80036c4:	6013      	str	r3, [r2, #0]
 80036c6:	62d0      	str	r0, [r2, #44]	; 0x2c
 80036c8:	6291      	str	r1, [r2, #40]	; 0x28
 80036ca:	2301      	movs	r3, #1
 80036cc:	2000      	movs	r0, #0
 80036ce:	6153      	str	r3, [r2, #20]
 80036d0:	f884 3046 	strb.w	r3, [r4, #70]	; 0x46
 80036d4:	f884 303e 	strb.w	r3, [r4, #62]	; 0x3e
 80036d8:	f884 303f 	strb.w	r3, [r4, #63]	; 0x3f
 80036dc:	f884 3040 	strb.w	r3, [r4, #64]	; 0x40
 80036e0:	f884 3041 	strb.w	r3, [r4, #65]	; 0x41
 80036e4:	f884 3042 	strb.w	r3, [r4, #66]	; 0x42
 80036e8:	f884 3043 	strb.w	r3, [r4, #67]	; 0x43
 80036ec:	f884 3044 	strb.w	r3, [r4, #68]	; 0x44
 80036f0:	f884 3045 	strb.w	r3, [r4, #69]	; 0x45
 80036f4:	f884 303d 	strb.w	r3, [r4, #61]	; 0x3d
 80036f8:	bd70      	pop	{r4, r5, r6, pc}
 80036fa:	f880 203c 	strb.w	r2, [r0, #60]	; 0x3c
 80036fe:	f7fe fb27 	bl	8001d50 <HAL_TIM_Base_MspInit>
 8003702:	e7c6      	b.n	8003692 <HAL_TIM_Base_Init+0x12>
 8003704:	68a6      	ldr	r6, [r4, #8]
 8003706:	f023 0370 	bic.w	r3, r3, #112	; 0x70
 800370a:	4333      	orrs	r3, r6
 800370c:	6926      	ldr	r6, [r4, #16]
 800370e:	f423 7340 	bic.w	r3, r3, #768	; 0x300
 8003712:	4333      	orrs	r3, r6
 8003714:	e7d3      	b.n	80036be <HAL_TIM_Base_Init+0x3e>
 8003716:	2001      	movs	r0, #1
 8003718:	4770      	bx	lr
 800371a:	68a6      	ldr	r6, [r4, #8]
 800371c:	f023 0370 	bic.w	r3, r3, #112	; 0x70
 8003720:	4333      	orrs	r3, r6
 8003722:	6926      	ldr	r6, [r4, #16]
 8003724:	f423 7340 	bic.w	r3, r3, #768	; 0x300
 8003728:	4333      	orrs	r3, r6
 800372a:	f023 0380 	bic.w	r3, r3, #128	; 0x80
 800372e:	432b      	orrs	r3, r5
 8003730:	6013      	str	r3, [r2, #0]
 8003732:	62d0      	str	r0, [r2, #44]	; 0x2c
 8003734:	6291      	str	r1, [r2, #40]	; 0x28
 8003736:	6963      	ldr	r3, [r4, #20]
 8003738:	6313      	str	r3, [r2, #48]	; 0x30
 800373a:	e7c6      	b.n	80036ca <HAL_TIM_Base_Init+0x4a>
 800373c:	40012c00 	.word	0x40012c00

08003740 <HAL_TIM_PWM_MspInit>:
 8003740:	4770      	bx	lr
 8003742:	bf00      	nop

08003744 <HAL_TIM_PWM_Init>:
 8003744:	2800      	cmp	r0, #0
 8003746:	d048      	beq.n	80037da <HAL_TIM_PWM_Init+0x96>
 8003748:	f890 303d 	ldrb.w	r3, [r0, #61]	; 0x3d
 800374c:	b570      	push	{r4, r5, r6, lr}
 800374e:	f003 02ff 	and.w	r2, r3, #255	; 0xff
 8003752:	4604      	mov	r4, r0
 8003754:	b39b      	cbz	r3, 80037be <HAL_TIM_PWM_Init+0x7a>
 8003756:	2302      	movs	r3, #2
 8003758:	6822      	ldr	r2, [r4, #0]
 800375a:	4e29      	ldr	r6, [pc, #164]	; (8003800 <HAL_TIM_PWM_Init+0xbc>)
 800375c:	f884 303d 	strb.w	r3, [r4, #61]	; 0x3d
 8003760:	42b2      	cmp	r2, r6
 8003762:	6813      	ldr	r3, [r2, #0]
 8003764:	69a5      	ldr	r5, [r4, #24]
 8003766:	68e0      	ldr	r0, [r4, #12]
 8003768:	6861      	ldr	r1, [r4, #4]
 800376a:	d038      	beq.n	80037de <HAL_TIM_PWM_Init+0x9a>
 800376c:	f1b2 4f80 	cmp.w	r2, #1073741824	; 0x40000000
 8003770:	d02a      	beq.n	80037c8 <HAL_TIM_PWM_Init+0x84>
 8003772:	f5a6 3694 	sub.w	r6, r6, #75776	; 0x12800
 8003776:	42b2      	cmp	r2, r6
 8003778:	d026      	beq.n	80037c8 <HAL_TIM_PWM_Init+0x84>
 800377a:	f506 6680 	add.w	r6, r6, #1024	; 0x400
 800377e:	42b2      	cmp	r2, r6
 8003780:	d022      	beq.n	80037c8 <HAL_TIM_PWM_Init+0x84>
 8003782:	f023 0380 	bic.w	r3, r3, #128	; 0x80
 8003786:	432b      	orrs	r3, r5
 8003788:	6013      	str	r3, [r2, #0]
 800378a:	62d0      	str	r0, [r2, #44]	; 0x2c
 800378c:	6291      	str	r1, [r2, #40]	; 0x28
 800378e:	2301      	movs	r3, #1
 8003790:	2000      	movs	r0, #0
 8003792:	6153      	str	r3, [r2, #20]
 8003794:	f884 3046 	strb.w	r3, [r4, #70]	; 0x46
 8003798:	f884 303e 	strb.w	r3, [r4, #62]	; 0x3e
 800379c:	f884 303f 	strb.w	r3, [r4, #63]	; 0x3f
 80037a0:	f884 3040 	strb.w	r3, [r4, #64]	; 0x40
 80037a4:	f884 3041 	strb.w	r3, [r4, #65]	; 0x41
 80037a8:	f884 3042 	strb.w	r3, [r4, #66]	; 0x42
 80037ac:	f884 3043 	strb.w	r3, [r4, #67]	; 0x43
 80037b0:	f884 3044 	strb.w	r3, [r4, #68]	; 0x44
 80037b4:	f884 3045 	strb.w	r3, [r4, #69]	; 0x45
 80037b8:	f884 303d 	strb.w	r3, [r4, #61]	; 0x3d
 80037bc:	bd70      	pop	{r4, r5, r6, pc}
 80037be:	f880 203c 	strb.w	r2, [r0, #60]	; 0x3c
 80037c2:	f7ff ffbd 	bl	8003740 <HAL_TIM_PWM_MspInit>
 80037c6:	e7c6      	b.n	8003756 <HAL_TIM_PWM_Init+0x12>
 80037c8:	68a6      	ldr	r6, [r4, #8]
 80037ca:	f023 0370 	bic.w	r3, r3, #112	; 0x70
 80037ce:	4333      	orrs	r3, r6
 80037d0:	6926      	ldr	r6, [r4, #16]
 80037d2:	f423 7340 	bic.w	r3, r3, #768	; 0x300
 80037d6:	4333      	orrs	r3, r6
 80037d8:	e7d3      	b.n	8003782 <HAL_TIM_PWM_Init+0x3e>
 80037da:	2001      	movs	r0, #1
 80037dc:	4770      	bx	lr
 80037de:	68a6      	ldr	r6, [r4, #8]
 80037e0:	f023 0370 	bic.w	r3, r3, #112	; 0x70
 80037e4:	4333      	orrs	r3, r6
 80037e6:	6926      	ldr	r6, [r4, #16]
 80037e8:	f423 7340 	bic.w	r3, r3, #768	; 0x300
 80037ec:	4333      	orrs	r3, r6
 80037ee:	f023 0380 	bic.w	r3, r3, #128	; 0x80
 80037f2:	432b      	orrs	r3, r5
 80037f4:	6013      	str	r3, [r2, #0]
 80037f6:	62d0      	str	r0, [r2, #44]	; 0x2c
 80037f8:	6291      	str	r1, [r2, #40]	; 0x28
 80037fa:	6963      	ldr	r3, [r4, #20]
 80037fc:	6313      	str	r3, [r2, #48]	; 0x30
 80037fe:	e7c6      	b.n	800378e <HAL_TIM_PWM_Init+0x4a>
 8003800:	40012c00 	.word	0x40012c00

08003804 <HAL_TIM_PWM_ConfigChannel>:
 8003804:	f890 303c 	ldrb.w	r3, [r0, #60]	; 0x3c
 8003808:	2b01      	cmp	r3, #1
 800380a:	f000 80cf 	beq.w	80039ac <HAL_TIM_PWM_ConfigChannel+0x1a8>
 800380e:	2301      	movs	r3, #1
 8003810:	b4f0      	push	{r4, r5, r6, r7}
 8003812:	f880 303c 	strb.w	r3, [r0, #60]	; 0x3c
 8003816:	2a0c      	cmp	r2, #12
 8003818:	d836      	bhi.n	8003888 <HAL_TIM_PWM_ConfigChannel+0x84>
 800381a:	e8df f002 	tbb	[pc, r2]
 800381e:	353b      	.short	0x353b
 8003820:	356a3535 	.word	0x356a3535
 8003824:	35993535 	.word	0x35993535
 8003828:	3535      	.short	0x3535
 800382a:	07          	.byte	0x07
 800382b:	00          	.byte	0x00
 800382c:	6803      	ldr	r3, [r0, #0]
 800382e:	688f      	ldr	r7, [r1, #8]
 8003830:	6a1d      	ldr	r5, [r3, #32]
 8003832:	680e      	ldr	r6, [r1, #0]
 8003834:	f425 5580 	bic.w	r5, r5, #4096	; 0x1000
 8003838:	621d      	str	r5, [r3, #32]
 800383a:	6a1a      	ldr	r2, [r3, #32]
 800383c:	4d72      	ldr	r5, [pc, #456]	; (8003a08 <HAL_TIM_PWM_ConfigChannel+0x204>)
 800383e:	f8d3 c004 	ldr.w	ip, [r3, #4]
 8003842:	69dc      	ldr	r4, [r3, #28]
 8003844:	f422 5200 	bic.w	r2, r2, #8192	; 0x2000
 8003848:	f424 44e6 	bic.w	r4, r4, #29440	; 0x7300
 800384c:	42ab      	cmp	r3, r5
 800384e:	ea42 3207 	orr.w	r2, r2, r7, lsl #12
 8003852:	ea44 2406 	orr.w	r4, r4, r6, lsl #8
 8003856:	d104      	bne.n	8003862 <HAL_TIM_PWM_ConfigChannel+0x5e>
 8003858:	694d      	ldr	r5, [r1, #20]
 800385a:	f42c 4c80 	bic.w	ip, ip, #16384	; 0x4000
 800385e:	ea4c 1c85 	orr.w	ip, ip, r5, lsl #6
 8003862:	684d      	ldr	r5, [r1, #4]
 8003864:	f8c3 c004 	str.w	ip, [r3, #4]
 8003868:	61dc      	str	r4, [r3, #28]
 800386a:	641d      	str	r5, [r3, #64]	; 0x40
 800386c:	621a      	str	r2, [r3, #32]
 800386e:	69dc      	ldr	r4, [r3, #28]
 8003870:	690d      	ldr	r5, [r1, #16]
 8003872:	f444 6400 	orr.w	r4, r4, #2048	; 0x800
 8003876:	61dc      	str	r4, [r3, #28]
 8003878:	69d9      	ldr	r1, [r3, #28]
 800387a:	f421 6180 	bic.w	r1, r1, #1024	; 0x400
 800387e:	61d9      	str	r1, [r3, #28]
 8003880:	69da      	ldr	r2, [r3, #28]
 8003882:	ea42 2205 	orr.w	r2, r2, r5, lsl #8
 8003886:	61da      	str	r2, [r3, #28]
 8003888:	2300      	movs	r3, #0
 800388a:	bcf0      	pop	{r4, r5, r6, r7}
 800388c:	f880 303c 	strb.w	r3, [r0, #60]	; 0x3c
 8003890:	4618      	mov	r0, r3
 8003892:	4770      	bx	lr
 8003894:	6803      	ldr	r3, [r0, #0]
 8003896:	688f      	ldr	r7, [r1, #8]
 8003898:	6a1d      	ldr	r5, [r3, #32]
 800389a:	680e      	ldr	r6, [r1, #0]
 800389c:	f025 0501 	bic.w	r5, r5, #1
 80038a0:	621d      	str	r5, [r3, #32]
 80038a2:	6a1a      	ldr	r2, [r3, #32]
 80038a4:	4d58      	ldr	r5, [pc, #352]	; (8003a08 <HAL_TIM_PWM_ConfigChannel+0x204>)
 80038a6:	f8d3 c004 	ldr.w	ip, [r3, #4]
 80038aa:	699c      	ldr	r4, [r3, #24]
 80038ac:	f022 0202 	bic.w	r2, r2, #2
 80038b0:	f024 0473 	bic.w	r4, r4, #115	; 0x73
 80038b4:	42ab      	cmp	r3, r5
 80038b6:	ea42 0207 	orr.w	r2, r2, r7
 80038ba:	ea44 0406 	orr.w	r4, r4, r6
 80038be:	f000 8086 	beq.w	80039ce <HAL_TIM_PWM_ConfigChannel+0x1ca>
 80038c2:	684d      	ldr	r5, [r1, #4]
 80038c4:	f8c3 c004 	str.w	ip, [r3, #4]
 80038c8:	619c      	str	r4, [r3, #24]
 80038ca:	635d      	str	r5, [r3, #52]	; 0x34
 80038cc:	621a      	str	r2, [r3, #32]
 80038ce:	699c      	ldr	r4, [r3, #24]
 80038d0:	690d      	ldr	r5, [r1, #16]
 80038d2:	f044 0408 	orr.w	r4, r4, #8
 80038d6:	619c      	str	r4, [r3, #24]
 80038d8:	6999      	ldr	r1, [r3, #24]
 80038da:	f021 0104 	bic.w	r1, r1, #4
 80038de:	6199      	str	r1, [r3, #24]
 80038e0:	699a      	ldr	r2, [r3, #24]
 80038e2:	432a      	orrs	r2, r5
 80038e4:	619a      	str	r2, [r3, #24]
 80038e6:	2300      	movs	r3, #0
 80038e8:	bcf0      	pop	{r4, r5, r6, r7}
 80038ea:	f880 303c 	strb.w	r3, [r0, #60]	; 0x3c
 80038ee:	4618      	mov	r0, r3
 80038f0:	4770      	bx	lr
 80038f2:	6803      	ldr	r3, [r0, #0]
 80038f4:	688f      	ldr	r7, [r1, #8]
 80038f6:	6a1d      	ldr	r5, [r3, #32]
 80038f8:	680e      	ldr	r6, [r1, #0]
 80038fa:	f025 0510 	bic.w	r5, r5, #16
 80038fe:	621d      	str	r5, [r3, #32]
 8003900:	6a1a      	ldr	r2, [r3, #32]
 8003902:	4d41      	ldr	r5, [pc, #260]	; (8003a08 <HAL_TIM_PWM_ConfigChannel+0x204>)
 8003904:	f8d3 c004 	ldr.w	ip, [r3, #4]
 8003908:	699c      	ldr	r4, [r3, #24]
 800390a:	f022 0220 	bic.w	r2, r2, #32
 800390e:	f424 44e6 	bic.w	r4, r4, #29440	; 0x7300
 8003912:	42ab      	cmp	r3, r5
 8003914:	ea42 1207 	orr.w	r2, r2, r7, lsl #4
 8003918:	ea44 2406 	orr.w	r4, r4, r6, lsl #8
 800391c:	d065      	beq.n	80039ea <HAL_TIM_PWM_ConfigChannel+0x1e6>
 800391e:	684d      	ldr	r5, [r1, #4]
 8003920:	f8c3 c004 	str.w	ip, [r3, #4]
 8003924:	619c      	str	r4, [r3, #24]
 8003926:	639d      	str	r5, [r3, #56]	; 0x38
 8003928:	621a      	str	r2, [r3, #32]
 800392a:	699c      	ldr	r4, [r3, #24]
 800392c:	690d      	ldr	r5, [r1, #16]
 800392e:	f444 6400 	orr.w	r4, r4, #2048	; 0x800
 8003932:	619c      	str	r4, [r3, #24]
 8003934:	6999      	ldr	r1, [r3, #24]
 8003936:	f421 6180 	bic.w	r1, r1, #1024	; 0x400
 800393a:	6199      	str	r1, [r3, #24]
 800393c:	699a      	ldr	r2, [r3, #24]
 800393e:	ea42 2205 	orr.w	r2, r2, r5, lsl #8
 8003942:	619a      	str	r2, [r3, #24]
 8003944:	2300      	movs	r3, #0
 8003946:	bcf0      	pop	{r4, r5, r6, r7}
 8003948:	f880 303c 	strb.w	r3, [r0, #60]	; 0x3c
 800394c:	4618      	mov	r0, r3
 800394e:	4770      	bx	lr
 8003950:	6803      	ldr	r3, [r0, #0]
 8003952:	688f      	ldr	r7, [r1, #8]
 8003954:	6a1d      	ldr	r5, [r3, #32]
 8003956:	680e      	ldr	r6, [r1, #0]
 8003958:	f425 7580 	bic.w	r5, r5, #256	; 0x100
 800395c:	621d      	str	r5, [r3, #32]
 800395e:	6a1a      	ldr	r2, [r3, #32]
 8003960:	4d29      	ldr	r5, [pc, #164]	; (8003a08 <HAL_TIM_PWM_ConfigChannel+0x204>)
 8003962:	f8d3 c004 	ldr.w	ip, [r3, #4]
 8003966:	69dc      	ldr	r4, [r3, #28]
 8003968:	f422 7200 	bic.w	r2, r2, #512	; 0x200
 800396c:	f024 0473 	bic.w	r4, r4, #115	; 0x73
 8003970:	42ab      	cmp	r3, r5
 8003972:	ea42 2207 	orr.w	r2, r2, r7, lsl #8
 8003976:	ea44 0406 	orr.w	r4, r4, r6
 800397a:	d019      	beq.n	80039b0 <HAL_TIM_PWM_ConfigChannel+0x1ac>
 800397c:	684d      	ldr	r5, [r1, #4]
 800397e:	f8c3 c004 	str.w	ip, [r3, #4]
 8003982:	61dc      	str	r4, [r3, #28]
 8003984:	63dd      	str	r5, [r3, #60]	; 0x3c
 8003986:	621a      	str	r2, [r3, #32]
 8003988:	69dc      	ldr	r4, [r3, #28]
 800398a:	690d      	ldr	r5, [r1, #16]
 800398c:	f044 0408 	orr.w	r4, r4, #8
 8003990:	61dc      	str	r4, [r3, #28]
 8003992:	69d9      	ldr	r1, [r3, #28]
 8003994:	f021 0104 	bic.w	r1, r1, #4
 8003998:	61d9      	str	r1, [r3, #28]
 800399a:	69da      	ldr	r2, [r3, #28]
 800399c:	432a      	orrs	r2, r5
 800399e:	61da      	str	r2, [r3, #28]
 80039a0:	2300      	movs	r3, #0
 80039a2:	bcf0      	pop	{r4, r5, r6, r7}
 80039a4:	f880 303c 	strb.w	r3, [r0, #60]	; 0x3c
 80039a8:	4618      	mov	r0, r3
 80039aa:	4770      	bx	lr
 80039ac:	2002      	movs	r0, #2
 80039ae:	4770      	bx	lr
 80039b0:	68ce      	ldr	r6, [r1, #12]
 80039b2:	f422 6200 	bic.w	r2, r2, #2048	; 0x800
 80039b6:	e9d1 7505 	ldrd	r7, r5, [r1, #20]
 80039ba:	f42c 5c40 	bic.w	ip, ip, #12288	; 0x3000
 80039be:	ea42 2206 	orr.w	r2, r2, r6, lsl #8
 80039c2:	433d      	orrs	r5, r7
 80039c4:	f422 6280 	bic.w	r2, r2, #1024	; 0x400
 80039c8:	ea4c 1c05 	orr.w	ip, ip, r5, lsl #4
 80039cc:	e7d6      	b.n	800397c <HAL_TIM_PWM_ConfigChannel+0x178>
 80039ce:	68cf      	ldr	r7, [r1, #12]
 80039d0:	f022 0208 	bic.w	r2, r2, #8
 80039d4:	e9d1 5605 	ldrd	r5, r6, [r1, #20]
 80039d8:	f42c 7c40 	bic.w	ip, ip, #768	; 0x300
 80039dc:	433a      	orrs	r2, r7
 80039de:	4335      	orrs	r5, r6
 80039e0:	f022 0204 	bic.w	r2, r2, #4
 80039e4:	ea45 0c0c 	orr.w	ip, r5, ip
 80039e8:	e76b      	b.n	80038c2 <HAL_TIM_PWM_ConfigChannel+0xbe>
 80039ea:	68ce      	ldr	r6, [r1, #12]
 80039ec:	f022 0280 	bic.w	r2, r2, #128	; 0x80
 80039f0:	e9d1 7505 	ldrd	r7, r5, [r1, #20]
 80039f4:	f42c 6c40 	bic.w	ip, ip, #3072	; 0xc00
 80039f8:	ea42 1206 	orr.w	r2, r2, r6, lsl #4
 80039fc:	433d      	orrs	r5, r7
 80039fe:	f022 0240 	bic.w	r2, r2, #64	; 0x40
 8003a02:	ea4c 0c85 	orr.w	ip, ip, r5, lsl #2
 8003a06:	e78a      	b.n	800391e <HAL_TIM_PWM_ConfigChannel+0x11a>
 8003a08:	40012c00 	.word	0x40012c00

08003a0c <HAL_TIM_ConfigClockSource>:
 8003a0c:	f890 303c 	ldrb.w	r3, [r0, #60]	; 0x3c
 8003a10:	2b01      	cmp	r3, #1
 8003a12:	d05a      	beq.n	8003aca <HAL_TIM_ConfigClockSource+0xbe>
 8003a14:	2202      	movs	r2, #2
 8003a16:	b4f0      	push	{r4, r5, r6, r7}
 8003a18:	2501      	movs	r5, #1
 8003a1a:	6803      	ldr	r3, [r0, #0]
 8003a1c:	f880 203d 	strb.w	r2, [r0, #61]	; 0x3d
 8003a20:	689a      	ldr	r2, [r3, #8]
 8003a22:	680c      	ldr	r4, [r1, #0]
 8003a24:	f422 427f 	bic.w	r2, r2, #65280	; 0xff00
 8003a28:	f022 0277 	bic.w	r2, r2, #119	; 0x77
 8003a2c:	2c40      	cmp	r4, #64	; 0x40
 8003a2e:	f880 503c 	strb.w	r5, [r0, #60]	; 0x3c
 8003a32:	609a      	str	r2, [r3, #8]
 8003a34:	d074      	beq.n	8003b20 <HAL_TIM_ConfigClockSource+0x114>
 8003a36:	d94a      	bls.n	8003ace <HAL_TIM_ConfigClockSource+0xc2>
 8003a38:	2c60      	cmp	r4, #96	; 0x60
 8003a3a:	d02d      	beq.n	8003a98 <HAL_TIM_ConfigClockSource+0x8c>
 8003a3c:	d956      	bls.n	8003aec <HAL_TIM_ConfigClockSource+0xe0>
 8003a3e:	2c70      	cmp	r4, #112	; 0x70
 8003a40:	d01a      	beq.n	8003a78 <HAL_TIM_ConfigClockSource+0x6c>
 8003a42:	f5b4 5f00 	cmp.w	r4, #8192	; 0x2000
 8003a46:	d10e      	bne.n	8003a66 <HAL_TIM_ConfigClockSource+0x5a>
 8003a48:	e9d1 5201 	ldrd	r5, r2, [r1, #4]
 8003a4c:	68cc      	ldr	r4, [r1, #12]
 8003a4e:	6899      	ldr	r1, [r3, #8]
 8003a50:	432a      	orrs	r2, r5
 8003a52:	ea42 2204 	orr.w	r2, r2, r4, lsl #8
 8003a56:	f421 417f 	bic.w	r1, r1, #65280	; 0xff00
 8003a5a:	430a      	orrs	r2, r1
 8003a5c:	609a      	str	r2, [r3, #8]
 8003a5e:	689a      	ldr	r2, [r3, #8]
 8003a60:	f442 4280 	orr.w	r2, r2, #16384	; 0x4000
 8003a64:	609a      	str	r2, [r3, #8]
 8003a66:	2300      	movs	r3, #0
 8003a68:	bcf0      	pop	{r4, r5, r6, r7}
 8003a6a:	2201      	movs	r2, #1
 8003a6c:	f880 303c 	strb.w	r3, [r0, #60]	; 0x3c
 8003a70:	f880 203d 	strb.w	r2, [r0, #61]	; 0x3d
 8003a74:	4618      	mov	r0, r3
 8003a76:	4770      	bx	lr
 8003a78:	e9d1 5201 	ldrd	r5, r2, [r1, #4]
 8003a7c:	68cc      	ldr	r4, [r1, #12]
 8003a7e:	6899      	ldr	r1, [r3, #8]
 8003a80:	432a      	orrs	r2, r5
 8003a82:	ea42 2204 	orr.w	r2, r2, r4, lsl #8
 8003a86:	f421 417f 	bic.w	r1, r1, #65280	; 0xff00
 8003a8a:	430a      	orrs	r2, r1
 8003a8c:	609a      	str	r2, [r3, #8]
 8003a8e:	689a      	ldr	r2, [r3, #8]
 8003a90:	f042 0277 	orr.w	r2, r2, #119	; 0x77
 8003a94:	609a      	str	r2, [r3, #8]
 8003a96:	e7e6      	b.n	8003a66 <HAL_TIM_ConfigClockSource+0x5a>
 8003a98:	6a1c      	ldr	r4, [r3, #32]
 8003a9a:	684d      	ldr	r5, [r1, #4]
 8003a9c:	f024 0410 	bic.w	r4, r4, #16
 8003aa0:	68ce      	ldr	r6, [r1, #12]
 8003aa2:	621c      	str	r4, [r3, #32]
 8003aa4:	6999      	ldr	r1, [r3, #24]
 8003aa6:	6a1a      	ldr	r2, [r3, #32]
 8003aa8:	f421 4170 	bic.w	r1, r1, #61440	; 0xf000
 8003aac:	f022 02a0 	bic.w	r2, r2, #160	; 0xa0
 8003ab0:	ea42 1205 	orr.w	r2, r2, r5, lsl #4
 8003ab4:	ea41 3106 	orr.w	r1, r1, r6, lsl #12
 8003ab8:	6199      	str	r1, [r3, #24]
 8003aba:	621a      	str	r2, [r3, #32]
 8003abc:	689a      	ldr	r2, [r3, #8]
 8003abe:	f022 0270 	bic.w	r2, r2, #112	; 0x70
 8003ac2:	f042 0267 	orr.w	r2, r2, #103	; 0x67
 8003ac6:	609a      	str	r2, [r3, #8]
 8003ac8:	e7cd      	b.n	8003a66 <HAL_TIM_ConfigClockSource+0x5a>
 8003aca:	2002      	movs	r0, #2
 8003acc:	4770      	bx	lr
 8003ace:	2c10      	cmp	r4, #16
 8003ad0:	d004      	beq.n	8003adc <HAL_TIM_ConfigClockSource+0xd0>
 8003ad2:	d93d      	bls.n	8003b50 <HAL_TIM_ConfigClockSource+0x144>
 8003ad4:	2c20      	cmp	r4, #32
 8003ad6:	d001      	beq.n	8003adc <HAL_TIM_ConfigClockSource+0xd0>
 8003ad8:	2c30      	cmp	r4, #48	; 0x30
 8003ada:	d1c4      	bne.n	8003a66 <HAL_TIM_ConfigClockSource+0x5a>
 8003adc:	689a      	ldr	r2, [r3, #8]
 8003ade:	f044 0407 	orr.w	r4, r4, #7
 8003ae2:	f022 0270 	bic.w	r2, r2, #112	; 0x70
 8003ae6:	4314      	orrs	r4, r2
 8003ae8:	609c      	str	r4, [r3, #8]
 8003aea:	e7bc      	b.n	8003a66 <HAL_TIM_ConfigClockSource+0x5a>
 8003aec:	2c50      	cmp	r4, #80	; 0x50
 8003aee:	d1ba      	bne.n	8003a66 <HAL_TIM_ConfigClockSource+0x5a>
 8003af0:	6a1d      	ldr	r5, [r3, #32]
 8003af2:	6a1e      	ldr	r6, [r3, #32]
 8003af4:	684c      	ldr	r4, [r1, #4]
 8003af6:	f026 0601 	bic.w	r6, r6, #1
 8003afa:	68cf      	ldr	r7, [r1, #12]
 8003afc:	621e      	str	r6, [r3, #32]
 8003afe:	699a      	ldr	r2, [r3, #24]
 8003b00:	f025 010a 	bic.w	r1, r5, #10
 8003b04:	f022 02f0 	bic.w	r2, r2, #240	; 0xf0
 8003b08:	ea42 1207 	orr.w	r2, r2, r7, lsl #4
 8003b0c:	4321      	orrs	r1, r4
 8003b0e:	619a      	str	r2, [r3, #24]
 8003b10:	6219      	str	r1, [r3, #32]
 8003b12:	689a      	ldr	r2, [r3, #8]
 8003b14:	f022 0270 	bic.w	r2, r2, #112	; 0x70
 8003b18:	f042 0257 	orr.w	r2, r2, #87	; 0x57
 8003b1c:	609a      	str	r2, [r3, #8]
 8003b1e:	e7a2      	b.n	8003a66 <HAL_TIM_ConfigClockSource+0x5a>
 8003b20:	6a1d      	ldr	r5, [r3, #32]
 8003b22:	6a1e      	ldr	r6, [r3, #32]
 8003b24:	684c      	ldr	r4, [r1, #4]
 8003b26:	f026 0601 	bic.w	r6, r6, #1
 8003b2a:	68cf      	ldr	r7, [r1, #12]
 8003b2c:	621e      	str	r6, [r3, #32]
 8003b2e:	699a      	ldr	r2, [r3, #24]
 8003b30:	f025 010a 	bic.w	r1, r5, #10
 8003b34:	f022 02f0 	bic.w	r2, r2, #240	; 0xf0
 8003b38:	ea42 1207 	orr.w	r2, r2, r7, lsl #4
 8003b3c:	4321      	orrs	r1, r4
 8003b3e:	619a      	str	r2, [r3, #24]
 8003b40:	6219      	str	r1, [r3, #32]
 8003b42:	689a      	ldr	r2, [r3, #8]
 8003b44:	f022 0270 	bic.w	r2, r2, #112	; 0x70
 8003b48:	f042 0247 	orr.w	r2, r2, #71	; 0x47
 8003b4c:	609a      	str	r2, [r3, #8]
 8003b4e:	e78a      	b.n	8003a66 <HAL_TIM_ConfigClockSource+0x5a>
 8003b50:	2c00      	cmp	r4, #0
 8003b52:	d0c3      	beq.n	8003adc <HAL_TIM_ConfigClockSource+0xd0>
 8003b54:	e787      	b.n	8003a66 <HAL_TIM_ConfigClockSource+0x5a>
 8003b56:	bf00      	nop

08003b58 <HAL_TIM_SlaveConfigSynchro>:
 8003b58:	f890 303c 	ldrb.w	r3, [r0, #60]	; 0x3c
 8003b5c:	2b01      	cmp	r3, #1
 8003b5e:	d047      	beq.n	8003bf0 <HAL_TIM_SlaveConfigSynchro+0x98>
 8003b60:	b4f0      	push	{r4, r5, r6, r7}
 8003b62:	4604      	mov	r4, r0
 8003b64:	2302      	movs	r3, #2
 8003b66:	2001      	movs	r0, #1
 8003b68:	6822      	ldr	r2, [r4, #0]
 8003b6a:	f884 303d 	strb.w	r3, [r4, #61]	; 0x3d
 8003b6e:	6893      	ldr	r3, [r2, #8]
 8003b70:	684d      	ldr	r5, [r1, #4]
 8003b72:	f023 0370 	bic.w	r3, r3, #112	; 0x70
 8003b76:	680e      	ldr	r6, [r1, #0]
 8003b78:	432b      	orrs	r3, r5
 8003b7a:	f023 0307 	bic.w	r3, r3, #7
 8003b7e:	4333      	orrs	r3, r6
 8003b80:	2d50      	cmp	r5, #80	; 0x50
 8003b82:	f884 003c 	strb.w	r0, [r4, #60]	; 0x3c
 8003b86:	6093      	str	r3, [r2, #8]
 8003b88:	d04e      	beq.n	8003c28 <HAL_TIM_SlaveConfigSynchro+0xd0>
 8003b8a:	d91f      	bls.n	8003bcc <HAL_TIM_SlaveConfigSynchro+0x74>
 8003b8c:	2d60      	cmp	r5, #96	; 0x60
 8003b8e:	d038      	beq.n	8003c02 <HAL_TIM_SlaveConfigSynchro+0xaa>
 8003b90:	2d70      	cmp	r5, #112	; 0x70
 8003b92:	d10a      	bne.n	8003baa <HAL_TIM_SlaveConfigSynchro+0x52>
 8003b94:	e9d1 5302 	ldrd	r5, r3, [r1, #8]
 8003b98:	6908      	ldr	r0, [r1, #16]
 8003b9a:	6891      	ldr	r1, [r2, #8]
 8003b9c:	432b      	orrs	r3, r5
 8003b9e:	ea43 2300 	orr.w	r3, r3, r0, lsl #8
 8003ba2:	f421 417f 	bic.w	r1, r1, #65280	; 0xff00
 8003ba6:	430b      	orrs	r3, r1
 8003ba8:	6093      	str	r3, [r2, #8]
 8003baa:	2501      	movs	r5, #1
 8003bac:	2100      	movs	r1, #0
 8003bae:	68d3      	ldr	r3, [r2, #12]
 8003bb0:	4608      	mov	r0, r1
 8003bb2:	f023 0340 	bic.w	r3, r3, #64	; 0x40
 8003bb6:	60d3      	str	r3, [r2, #12]
 8003bb8:	68d3      	ldr	r3, [r2, #12]
 8003bba:	f423 4380 	bic.w	r3, r3, #16384	; 0x4000
 8003bbe:	60d3      	str	r3, [r2, #12]
 8003bc0:	f884 503d 	strb.w	r5, [r4, #61]	; 0x3d
 8003bc4:	f884 103c 	strb.w	r1, [r4, #60]	; 0x3c
 8003bc8:	bcf0      	pop	{r4, r5, r6, r7}
 8003bca:	4770      	bx	lr
 8003bcc:	2d40      	cmp	r5, #64	; 0x40
 8003bce:	d1ec      	bne.n	8003baa <HAL_TIM_SlaveConfigSynchro+0x52>
 8003bd0:	2e05      	cmp	r6, #5
 8003bd2:	d00f      	beq.n	8003bf4 <HAL_TIM_SlaveConfigSynchro+0x9c>
 8003bd4:	6a15      	ldr	r5, [r2, #32]
 8003bd6:	6a10      	ldr	r0, [r2, #32]
 8003bd8:	690e      	ldr	r6, [r1, #16]
 8003bda:	f020 0001 	bic.w	r0, r0, #1
 8003bde:	6210      	str	r0, [r2, #32]
 8003be0:	6993      	ldr	r3, [r2, #24]
 8003be2:	f023 03f0 	bic.w	r3, r3, #240	; 0xf0
 8003be6:	ea43 1306 	orr.w	r3, r3, r6, lsl #4
 8003bea:	6193      	str	r3, [r2, #24]
 8003bec:	6215      	str	r5, [r2, #32]
 8003bee:	e7dc      	b.n	8003baa <HAL_TIM_SlaveConfigSynchro+0x52>
 8003bf0:	2002      	movs	r0, #2
 8003bf2:	4770      	bx	lr
 8003bf4:	2300      	movs	r3, #0
 8003bf6:	f884 003d 	strb.w	r0, [r4, #61]	; 0x3d
 8003bfa:	f884 303c 	strb.w	r3, [r4, #60]	; 0x3c
 8003bfe:	bcf0      	pop	{r4, r5, r6, r7}
 8003c00:	4770      	bx	lr
 8003c02:	6a10      	ldr	r0, [r2, #32]
 8003c04:	688d      	ldr	r5, [r1, #8]
 8003c06:	f020 0010 	bic.w	r0, r0, #16
 8003c0a:	690e      	ldr	r6, [r1, #16]
 8003c0c:	6210      	str	r0, [r2, #32]
 8003c0e:	6991      	ldr	r1, [r2, #24]
 8003c10:	6a13      	ldr	r3, [r2, #32]
 8003c12:	f421 4170 	bic.w	r1, r1, #61440	; 0xf000
 8003c16:	f023 03a0 	bic.w	r3, r3, #160	; 0xa0
 8003c1a:	ea41 3106 	orr.w	r1, r1, r6, lsl #12
 8003c1e:	ea43 1305 	orr.w	r3, r3, r5, lsl #4
 8003c22:	6191      	str	r1, [r2, #24]
 8003c24:	6213      	str	r3, [r2, #32]
 8003c26:	e7c0      	b.n	8003baa <HAL_TIM_SlaveConfigSynchro+0x52>
 8003c28:	6a15      	ldr	r5, [r2, #32]
 8003c2a:	6a16      	ldr	r6, [r2, #32]
 8003c2c:	6888      	ldr	r0, [r1, #8]
 8003c2e:	f026 0601 	bic.w	r6, r6, #1
 8003c32:	690f      	ldr	r7, [r1, #16]
 8003c34:	6216      	str	r6, [r2, #32]
 8003c36:	6993      	ldr	r3, [r2, #24]
 8003c38:	f025 010a 	bic.w	r1, r5, #10
 8003c3c:	f023 03f0 	bic.w	r3, r3, #240	; 0xf0
 8003c40:	4301      	orrs	r1, r0
 8003c42:	ea43 1307 	orr.w	r3, r3, r7, lsl #4
 8003c46:	6193      	str	r3, [r2, #24]
 8003c48:	6211      	str	r1, [r2, #32]
 8003c4a:	e7ae      	b.n	8003baa <HAL_TIM_SlaveConfigSynchro+0x52>

08003c4c <TIM_Base_SetConfig>:
 8003c4c:	b470      	push	{r4, r5, r6}
 8003c4e:	4e1c      	ldr	r6, [pc, #112]	; (8003cc0 <TIM_Base_SetConfig+0x74>)
 8003c50:	6803      	ldr	r3, [r0, #0]
 8003c52:	42b0      	cmp	r0, r6
 8003c54:	694d      	ldr	r5, [r1, #20]
 8003c56:	688c      	ldr	r4, [r1, #8]
 8003c58:	680a      	ldr	r2, [r1, #0]
 8003c5a:	d01d      	beq.n	8003c98 <TIM_Base_SetConfig+0x4c>
 8003c5c:	f1b0 4f80 	cmp.w	r0, #1073741824	; 0x40000000
 8003c60:	d011      	beq.n	8003c86 <TIM_Base_SetConfig+0x3a>
 8003c62:	f5a6 3694 	sub.w	r6, r6, #75776	; 0x12800
 8003c66:	42b0      	cmp	r0, r6
 8003c68:	d00d      	beq.n	8003c86 <TIM_Base_SetConfig+0x3a>
 8003c6a:	f506 6680 	add.w	r6, r6, #1024	; 0x400
 8003c6e:	42b0      	cmp	r0, r6
 8003c70:	d009      	beq.n	8003c86 <TIM_Base_SetConfig+0x3a>
 8003c72:	f023 0380 	bic.w	r3, r3, #128	; 0x80
 8003c76:	432b      	orrs	r3, r5
 8003c78:	6003      	str	r3, [r0, #0]
 8003c7a:	2301      	movs	r3, #1
 8003c7c:	62c4      	str	r4, [r0, #44]	; 0x2c
 8003c7e:	6282      	str	r2, [r0, #40]	; 0x28
 8003c80:	bc70      	pop	{r4, r5, r6}
 8003c82:	6143      	str	r3, [r0, #20]
 8003c84:	4770      	bx	lr
 8003c86:	684e      	ldr	r6, [r1, #4]
 8003c88:	f023 0370 	bic.w	r3, r3, #112	; 0x70
 8003c8c:	4333      	orrs	r3, r6
 8003c8e:	68c9      	ldr	r1, [r1, #12]
 8003c90:	f423 7340 	bic.w	r3, r3, #768	; 0x300
 8003c94:	430b      	orrs	r3, r1
 8003c96:	e7ec      	b.n	8003c72 <TIM_Base_SetConfig+0x26>
 8003c98:	684e      	ldr	r6, [r1, #4]
 8003c9a:	f023 0370 	bic.w	r3, r3, #112	; 0x70
 8003c9e:	4333      	orrs	r3, r6
 8003ca0:	68ce      	ldr	r6, [r1, #12]
 8003ca2:	f423 7340 	bic.w	r3, r3, #768	; 0x300
 8003ca6:	4333      	orrs	r3, r6
 8003ca8:	f023 0380 	bic.w	r3, r3, #128	; 0x80
 8003cac:	432b      	orrs	r3, r5
 8003cae:	6003      	str	r3, [r0, #0]
 8003cb0:	62c4      	str	r4, [r0, #44]	; 0x2c
 8003cb2:	6282      	str	r2, [r0, #40]	; 0x28
 8003cb4:	690b      	ldr	r3, [r1, #16]
 8003cb6:	bc70      	pop	{r4, r5, r6}
 8003cb8:	6303      	str	r3, [r0, #48]	; 0x30
 8003cba:	2301      	movs	r3, #1
 8003cbc:	6143      	str	r3, [r0, #20]
 8003cbe:	4770      	bx	lr
 8003cc0:	40012c00 	.word	0x40012c00

08003cc4 <TIM_OC2_SetConfig>:
 8003cc4:	6a02      	ldr	r2, [r0, #32]
 8003cc6:	b4f0      	push	{r4, r5, r6, r7}
 8003cc8:	f022 0210 	bic.w	r2, r2, #16
 8003ccc:	688d      	ldr	r5, [r1, #8]
 8003cce:	6202      	str	r2, [r0, #32]
 8003cd0:	6a03      	ldr	r3, [r0, #32]
 8003cd2:	6847      	ldr	r7, [r0, #4]
 8003cd4:	f023 0320 	bic.w	r3, r3, #32
 8003cd8:	6982      	ldr	r2, [r0, #24]
 8003cda:	ea43 1305 	orr.w	r3, r3, r5, lsl #4
 8003cde:	4d0f      	ldr	r5, [pc, #60]	; (8003d1c <TIM_OC2_SetConfig+0x58>)
 8003ce0:	680c      	ldr	r4, [r1, #0]
 8003ce2:	f422 42e6 	bic.w	r2, r2, #29440	; 0x7300
 8003ce6:	42a8      	cmp	r0, r5
 8003ce8:	ea42 2204 	orr.w	r2, r2, r4, lsl #8
 8003cec:	d006      	beq.n	8003cfc <TIM_OC2_SetConfig+0x38>
 8003cee:	6849      	ldr	r1, [r1, #4]
 8003cf0:	6047      	str	r7, [r0, #4]
 8003cf2:	6182      	str	r2, [r0, #24]
 8003cf4:	bcf0      	pop	{r4, r5, r6, r7}
 8003cf6:	6381      	str	r1, [r0, #56]	; 0x38
 8003cf8:	6203      	str	r3, [r0, #32]
 8003cfa:	4770      	bx	lr
 8003cfc:	68ce      	ldr	r6, [r1, #12]
 8003cfe:	f023 0380 	bic.w	r3, r3, #128	; 0x80
 8003d02:	e9d1 4505 	ldrd	r4, r5, [r1, #20]
 8003d06:	f427 6740 	bic.w	r7, r7, #3072	; 0xc00
 8003d0a:	ea43 1306 	orr.w	r3, r3, r6, lsl #4
 8003d0e:	432c      	orrs	r4, r5
 8003d10:	f023 0340 	bic.w	r3, r3, #64	; 0x40
 8003d14:	ea47 0784 	orr.w	r7, r7, r4, lsl #2
 8003d18:	e7e9      	b.n	8003cee <TIM_OC2_SetConfig+0x2a>
 8003d1a:	bf00      	nop
 8003d1c:	40012c00 	.word	0x40012c00

08003d20 <TIM_TI1_SetConfig>:
 8003d20:	b470      	push	{r4, r5, r6}
 8003d22:	6a04      	ldr	r4, [r0, #32]
 8003d24:	4e13      	ldr	r6, [pc, #76]	; (8003d74 <TIM_TI1_SetConfig+0x54>)
 8003d26:	f024 0401 	bic.w	r4, r4, #1
 8003d2a:	6204      	str	r4, [r0, #32]
 8003d2c:	42b0      	cmp	r0, r6
 8003d2e:	6984      	ldr	r4, [r0, #24]
 8003d30:	6a05      	ldr	r5, [r0, #32]
 8003d32:	d00d      	beq.n	8003d50 <TIM_TI1_SetConfig+0x30>
 8003d34:	f1b0 4f80 	cmp.w	r0, #1073741824	; 0x40000000
 8003d38:	d00a      	beq.n	8003d50 <TIM_TI1_SetConfig+0x30>
 8003d3a:	f5a6 3694 	sub.w	r6, r6, #75776	; 0x12800
 8003d3e:	42b0      	cmp	r0, r6
 8003d40:	d006      	beq.n	8003d50 <TIM_TI1_SetConfig+0x30>
 8003d42:	f506 6680 	add.w	r6, r6, #1024	; 0x400
 8003d46:	42b0      	cmp	r0, r6
 8003d48:	d002      	beq.n	8003d50 <TIM_TI1_SetConfig+0x30>
 8003d4a:	f044 0201 	orr.w	r2, r4, #1
 8003d4e:	e002      	b.n	8003d56 <TIM_TI1_SetConfig+0x36>
 8003d50:	f024 0403 	bic.w	r4, r4, #3
 8003d54:	4322      	orrs	r2, r4
 8003d56:	011b      	lsls	r3, r3, #4
 8003d58:	f025 040a 	bic.w	r4, r5, #10
 8003d5c:	b2db      	uxtb	r3, r3
 8003d5e:	f022 02f0 	bic.w	r2, r2, #240	; 0xf0
 8003d62:	f001 010a 	and.w	r1, r1, #10
 8003d66:	4321      	orrs	r1, r4
 8003d68:	4313      	orrs	r3, r2
 8003d6a:	6183      	str	r3, [r0, #24]
 8003d6c:	bc70      	pop	{r4, r5, r6}
 8003d6e:	6201      	str	r1, [r0, #32]
 8003d70:	4770      	bx	lr
 8003d72:	bf00      	nop
 8003d74:	40012c00 	.word	0x40012c00

08003d78 <HAL_TIMEx_HallSensor_MspInit>:
 8003d78:	4770      	bx	lr
 8003d7a:	bf00      	nop

08003d7c <HAL_TIMEx_HallSensor_Init>:
 8003d7c:	2800      	cmp	r0, #0
 8003d7e:	d05f      	beq.n	8003e40 <HAL_TIMEx_HallSensor_Init+0xc4>
 8003d80:	b5f0      	push	{r4, r5, r6, r7, lr}
 8003d82:	f890 303d 	ldrb.w	r3, [r0, #61]	; 0x3d
 8003d86:	b089      	sub	sp, #36	; 0x24
 8003d88:	4604      	mov	r4, r0
 8003d8a:	460e      	mov	r6, r1
 8003d8c:	f003 02ff 	and.w	r2, r3, #255	; 0xff
 8003d90:	2b00      	cmp	r3, #0
 8003d92:	d050      	beq.n	8003e36 <HAL_TIMEx_HallSensor_Init+0xba>
 8003d94:	2302      	movs	r3, #2
 8003d96:	2500      	movs	r5, #0
 8003d98:	1d21      	adds	r1, r4, #4
 8003d9a:	f884 303d 	strb.w	r3, [r4, #61]	; 0x3d
 8003d9e:	6820      	ldr	r0, [r4, #0]
 8003da0:	2770      	movs	r7, #112	; 0x70
 8003da2:	f7ff ff53 	bl	8003c4c <TIM_Base_SetConfig>
 8003da6:	68b3      	ldr	r3, [r6, #8]
 8003da8:	6831      	ldr	r1, [r6, #0]
 8003daa:	6820      	ldr	r0, [r4, #0]
 8003dac:	2203      	movs	r2, #3
 8003dae:	f7ff ffb7 	bl	8003d20 <TIM_TI1_SetConfig>
 8003db2:	6823      	ldr	r3, [r4, #0]
 8003db4:	6870      	ldr	r0, [r6, #4]
 8003db6:	6999      	ldr	r1, [r3, #24]
 8003db8:	68f6      	ldr	r6, [r6, #12]
 8003dba:	f021 010c 	bic.w	r1, r1, #12
 8003dbe:	6199      	str	r1, [r3, #24]
 8003dc0:	699a      	ldr	r2, [r3, #24]
 8003dc2:	a901      	add	r1, sp, #4
 8003dc4:	4302      	orrs	r2, r0
 8003dc6:	619a      	str	r2, [r3, #24]
 8003dc8:	685a      	ldr	r2, [r3, #4]
 8003dca:	4618      	mov	r0, r3
 8003dcc:	f042 0280 	orr.w	r2, r2, #128	; 0x80
 8003dd0:	605a      	str	r2, [r3, #4]
 8003dd2:	689a      	ldr	r2, [r3, #8]
 8003dd4:	9701      	str	r7, [sp, #4]
 8003dd6:	f022 0270 	bic.w	r2, r2, #112	; 0x70
 8003dda:	609a      	str	r2, [r3, #8]
 8003ddc:	689a      	ldr	r2, [r3, #8]
 8003dde:	9602      	str	r6, [sp, #8]
 8003de0:	f042 0240 	orr.w	r2, r2, #64	; 0x40
 8003de4:	609a      	str	r2, [r3, #8]
 8003de6:	689a      	ldr	r2, [r3, #8]
 8003de8:	f022 0207 	bic.w	r2, r2, #7
 8003dec:	609a      	str	r2, [r3, #8]
 8003dee:	689a      	ldr	r2, [r3, #8]
 8003df0:	f042 0204 	orr.w	r2, r2, #4
 8003df4:	609a      	str	r2, [r3, #8]
 8003df6:	e9cd 5505 	strd	r5, r5, [sp, #20]
 8003dfa:	9507      	str	r5, [sp, #28]
 8003dfc:	e9cd 5503 	strd	r5, r5, [sp, #12]
 8003e00:	f7ff ff60 	bl	8003cc4 <TIM_OC2_SetConfig>
 8003e04:	2301      	movs	r3, #1
 8003e06:	4628      	mov	r0, r5
 8003e08:	6822      	ldr	r2, [r4, #0]
 8003e0a:	6851      	ldr	r1, [r2, #4]
 8003e0c:	f021 0170 	bic.w	r1, r1, #112	; 0x70
 8003e10:	6051      	str	r1, [r2, #4]
 8003e12:	6851      	ldr	r1, [r2, #4]
 8003e14:	f041 0150 	orr.w	r1, r1, #80	; 0x50
 8003e18:	6051      	str	r1, [r2, #4]
 8003e1a:	f884 3046 	strb.w	r3, [r4, #70]	; 0x46
 8003e1e:	f884 303e 	strb.w	r3, [r4, #62]	; 0x3e
 8003e22:	f884 303f 	strb.w	r3, [r4, #63]	; 0x3f
 8003e26:	f884 3042 	strb.w	r3, [r4, #66]	; 0x42
 8003e2a:	f884 3043 	strb.w	r3, [r4, #67]	; 0x43
 8003e2e:	f884 303d 	strb.w	r3, [r4, #61]	; 0x3d
 8003e32:	b009      	add	sp, #36	; 0x24
 8003e34:	bdf0      	pop	{r4, r5, r6, r7, pc}
 8003e36:	f880 203c 	strb.w	r2, [r0, #60]	; 0x3c
 8003e3a:	f7ff ff9d 	bl	8003d78 <HAL_TIMEx_HallSensor_MspInit>
 8003e3e:	e7a9      	b.n	8003d94 <HAL_TIMEx_HallSensor_Init+0x18>
 8003e40:	2001      	movs	r0, #1
 8003e42:	4770      	bx	lr

08003e44 <HAL_TIMEx_MasterConfigSynchronization>:
 8003e44:	f890 303c 	ldrb.w	r3, [r0, #60]	; 0x3c
 8003e48:	2b01      	cmp	r3, #1
 8003e4a:	d029      	beq.n	8003ea0 <HAL_TIMEx_MasterConfigSynchronization+0x5c>
 8003e4c:	2202      	movs	r2, #2
 8003e4e:	b470      	push	{r4, r5, r6}
 8003e50:	2601      	movs	r6, #1
 8003e52:	6803      	ldr	r3, [r0, #0]
 8003e54:	f880 203d 	strb.w	r2, [r0, #61]	; 0x3d
 8003e58:	685a      	ldr	r2, [r3, #4]
 8003e5a:	680c      	ldr	r4, [r1, #0]
 8003e5c:	4d11      	ldr	r5, [pc, #68]	; (8003ea4 <HAL_TIMEx_MasterConfigSynchronization+0x60>)
 8003e5e:	f022 0270 	bic.w	r2, r2, #112	; 0x70
 8003e62:	4322      	orrs	r2, r4
 8003e64:	42ab      	cmp	r3, r5
 8003e66:	689c      	ldr	r4, [r3, #8]
 8003e68:	f880 603c 	strb.w	r6, [r0, #60]	; 0x3c
 8003e6c:	605a      	str	r2, [r3, #4]
 8003e6e:	d009      	beq.n	8003e84 <HAL_TIMEx_MasterConfigSynchronization+0x40>
 8003e70:	f1b3 4f80 	cmp.w	r3, #1073741824	; 0x40000000
 8003e74:	d006      	beq.n	8003e84 <HAL_TIMEx_MasterConfigSynchronization+0x40>
 8003e76:	4a0c      	ldr	r2, [pc, #48]	; (8003ea8 <HAL_TIMEx_MasterConfigSynchronization+0x64>)
 8003e78:	4293      	cmp	r3, r2
 8003e7a:	d003      	beq.n	8003e84 <HAL_TIMEx_MasterConfigSynchronization+0x40>
 8003e7c:	f502 6280 	add.w	r2, r2, #1024	; 0x400
 8003e80:	4293      	cmp	r3, r2
 8003e82:	d104      	bne.n	8003e8e <HAL_TIMEx_MasterConfigSynchronization+0x4a>
 8003e84:	684a      	ldr	r2, [r1, #4]
 8003e86:	f024 0480 	bic.w	r4, r4, #128	; 0x80
 8003e8a:	4314      	orrs	r4, r2
 8003e8c:	609c      	str	r4, [r3, #8]
 8003e8e:	2300      	movs	r3, #0
 8003e90:	bc70      	pop	{r4, r5, r6}
 8003e92:	2201      	movs	r2, #1
 8003e94:	f880 303c 	strb.w	r3, [r0, #60]	; 0x3c
 8003e98:	f880 203d 	strb.w	r2, [r0, #61]	; 0x3d
 8003e9c:	4618      	mov	r0, r3
 8003e9e:	4770      	bx	lr
 8003ea0:	2002      	movs	r0, #2
 8003ea2:	4770      	bx	lr
 8003ea4:	40012c00 	.word	0x40012c00
 8003ea8:	40000400 	.word	0x40000400

08003eac <HAL_TIMEx_ConfigBreakDeadTime>:
 8003eac:	f890 303c 	ldrb.w	r3, [r0, #60]	; 0x3c
 8003eb0:	2b01      	cmp	r3, #1
 8003eb2:	d022      	beq.n	8003efa <HAL_TIMEx_ConfigBreakDeadTime+0x4e>
 8003eb4:	4602      	mov	r2, r0
 8003eb6:	e9d1 0302 	ldrd	r0, r3, [r1, #8]
 8003eba:	b410      	push	{r4}
 8003ebc:	2400      	movs	r4, #0
 8003ebe:	f423 7340 	bic.w	r3, r3, #768	; 0x300
 8003ec2:	4303      	orrs	r3, r0
 8003ec4:	6848      	ldr	r0, [r1, #4]
 8003ec6:	f423 6380 	bic.w	r3, r3, #1024	; 0x400
 8003eca:	4303      	orrs	r3, r0
 8003ecc:	6808      	ldr	r0, [r1, #0]
 8003ece:	f423 6300 	bic.w	r3, r3, #2048	; 0x800
 8003ed2:	4303      	orrs	r3, r0
 8003ed4:	6908      	ldr	r0, [r1, #16]
 8003ed6:	f423 5380 	bic.w	r3, r3, #4096	; 0x1000
 8003eda:	4303      	orrs	r3, r0
 8003edc:	6948      	ldr	r0, [r1, #20]
 8003ede:	f423 5300 	bic.w	r3, r3, #8192	; 0x2000
 8003ee2:	4303      	orrs	r3, r0
 8003ee4:	69c8      	ldr	r0, [r1, #28]
 8003ee6:	f423 4380 	bic.w	r3, r3, #16384	; 0x4000
 8003eea:	6811      	ldr	r1, [r2, #0]
 8003eec:	4303      	orrs	r3, r0
 8003eee:	644b      	str	r3, [r1, #68]	; 0x44
 8003ef0:	4620      	mov	r0, r4
 8003ef2:	f882 403c 	strb.w	r4, [r2, #60]	; 0x3c
 8003ef6:	bc10      	pop	{r4}
 8003ef8:	4770      	bx	lr
 8003efa:	2002      	movs	r0, #2
 8003efc:	4770      	bx	lr
 8003efe:	bf00      	nop

08003f00 <HAL_UART_Init>:
 8003f00:	2800      	cmp	r0, #0
 8003f02:	d05e      	beq.n	8003fc2 <HAL_UART_Init+0xc2>
 8003f04:	f890 3039 	ldrb.w	r3, [r0, #57]	; 0x39
 8003f08:	b570      	push	{r4, r5, r6, lr}
 8003f0a:	f003 02ff 	and.w	r2, r3, #255	; 0xff
 8003f0e:	4604      	mov	r4, r0
 8003f10:	2b00      	cmp	r3, #0
 8003f12:	d051      	beq.n	8003fb8 <HAL_UART_Init+0xb8>
 8003f14:	2224      	movs	r2, #36	; 0x24
 8003f16:	6823      	ldr	r3, [r4, #0]
 8003f18:	f884 2039 	strb.w	r2, [r4, #57]	; 0x39
 8003f1c:	68da      	ldr	r2, [r3, #12]
 8003f1e:	68e0      	ldr	r0, [r4, #12]
 8003f20:	f422 5200 	bic.w	r2, r2, #8192	; 0x2000
 8003f24:	60da      	str	r2, [r3, #12]
 8003f26:	6919      	ldr	r1, [r3, #16]
 8003f28:	68a2      	ldr	r2, [r4, #8]
 8003f2a:	f421 5140 	bic.w	r1, r1, #12288	; 0x3000
 8003f2e:	4301      	orrs	r1, r0
 8003f30:	6119      	str	r1, [r3, #16]
 8003f32:	68d9      	ldr	r1, [r3, #12]
 8003f34:	e9d4 5004 	ldrd	r5, r0, [r4, #16]
 8003f38:	f421 51b0 	bic.w	r1, r1, #5632	; 0x1600
 8003f3c:	432a      	orrs	r2, r5
 8003f3e:	f021 010c 	bic.w	r1, r1, #12
 8003f42:	4302      	orrs	r2, r0
 8003f44:	430a      	orrs	r2, r1
 8003f46:	60da      	str	r2, [r3, #12]
 8003f48:	695a      	ldr	r2, [r3, #20]
 8003f4a:	69a0      	ldr	r0, [r4, #24]
 8003f4c:	491f      	ldr	r1, [pc, #124]	; (8003fcc <HAL_UART_Init+0xcc>)
 8003f4e:	f422 7240 	bic.w	r2, r2, #768	; 0x300
 8003f52:	4302      	orrs	r2, r0
 8003f54:	428b      	cmp	r3, r1
 8003f56:	615a      	str	r2, [r3, #20]
 8003f58:	d035      	beq.n	8003fc6 <HAL_UART_Init+0xc6>
 8003f5a:	f7ff faef 	bl	800353c <HAL_RCC_GetPCLK1Freq>
 8003f5e:	6863      	ldr	r3, [r4, #4]
 8003f60:	eb00 0080 	add.w	r0, r0, r0, lsl #2
 8003f64:	009b      	lsls	r3, r3, #2
 8003f66:	eb00 0080 	add.w	r0, r0, r0, lsl #2
 8003f6a:	fbb0 f0f3 	udiv	r0, r0, r3
 8003f6e:	2364      	movs	r3, #100	; 0x64
 8003f70:	2500      	movs	r5, #0
 8003f72:	2120      	movs	r1, #32
 8003f74:	4e16      	ldr	r6, [pc, #88]	; (8003fd0 <HAL_UART_Init+0xd0>)
 8003f76:	fba6 c200 	umull	ip, r2, r6, r0
 8003f7a:	0952      	lsrs	r2, r2, #5
 8003f7c:	fb03 0012 	mls	r0, r3, r2, r0
 8003f80:	0100      	lsls	r0, r0, #4
 8003f82:	3032      	adds	r0, #50	; 0x32
 8003f84:	fba6 3000 	umull	r3, r0, r6, r0
 8003f88:	0112      	lsls	r2, r2, #4
 8003f8a:	6823      	ldr	r3, [r4, #0]
 8003f8c:	eb02 1050 	add.w	r0, r2, r0, lsr #5
 8003f90:	6098      	str	r0, [r3, #8]
 8003f92:	691a      	ldr	r2, [r3, #16]
 8003f94:	4628      	mov	r0, r5
 8003f96:	f422 4290 	bic.w	r2, r2, #18432	; 0x4800
 8003f9a:	611a      	str	r2, [r3, #16]
 8003f9c:	695a      	ldr	r2, [r3, #20]
 8003f9e:	f022 022a 	bic.w	r2, r2, #42	; 0x2a
 8003fa2:	615a      	str	r2, [r3, #20]
 8003fa4:	68da      	ldr	r2, [r3, #12]
 8003fa6:	f442 5200 	orr.w	r2, r2, #8192	; 0x2000
 8003faa:	60da      	str	r2, [r3, #12]
 8003fac:	63e5      	str	r5, [r4, #60]	; 0x3c
 8003fae:	f884 1039 	strb.w	r1, [r4, #57]	; 0x39
 8003fb2:	f884 103a 	strb.w	r1, [r4, #58]	; 0x3a
 8003fb6:	bd70      	pop	{r4, r5, r6, pc}
 8003fb8:	f880 2038 	strb.w	r2, [r0, #56]	; 0x38
 8003fbc:	f7fd ff54 	bl	8001e68 <HAL_UART_MspInit>
 8003fc0:	e7a8      	b.n	8003f14 <HAL_UART_Init+0x14>
 8003fc2:	2001      	movs	r0, #1
 8003fc4:	4770      	bx	lr
 8003fc6:	f7ff fac9 	bl	800355c <HAL_RCC_GetPCLK2Freq>
 8003fca:	e7c8      	b.n	8003f5e <HAL_UART_Init+0x5e>
 8003fcc:	40013800 	.word	0x40013800
 8003fd0:	51eb851f 	.word	0x51eb851f

08003fd4 <VBS_GetAvBusVoltage_d>:
 8003fd4:	88c0      	ldrh	r0, [r0, #6]
 8003fd6:	4770      	bx	lr

08003fd8 <VBS_GetAvBusVoltage_V>:
 8003fd8:	88c3      	ldrh	r3, [r0, #6]
 8003fda:	8840      	ldrh	r0, [r0, #2]
 8003fdc:	fb03 f000 	mul.w	r0, r3, r0
 8003fe0:	0c00      	lsrs	r0, r0, #16
 8003fe2:	4770      	bx	lr

08003fe4 <Circle_Limitation>:
 8003fe4:	140b      	asrs	r3, r1, #16
 8003fe6:	b410      	push	{r4}
 8003fe8:	fb03 f403 	mul.w	r4, r3, r3
 8003fec:	8802      	ldrh	r2, [r0, #0]
 8003fee:	b209      	sxth	r1, r1
 8003ff0:	fb02 f202 	mul.w	r2, r2, r2
 8003ff4:	fb01 4401 	mla	r4, r1, r1, r4
 8003ff8:	42a2      	cmp	r2, r4
 8003ffa:	b085      	sub	sp, #20
 8003ffc:	d219      	bcs.n	8004032 <Circle_Limitation+0x4e>
 8003ffe:	f890 20b2 	ldrb.w	r2, [r0, #178]	; 0xb2
 8004002:	ebc2 6414 	rsb	r4, r2, r4, lsr #24
 8004006:	b2e4      	uxtb	r4, r4
 8004008:	eb00 0044 	add.w	r0, r0, r4, lsl #1
 800400c:	8882      	ldrh	r2, [r0, #4]
 800400e:	fb02 f101 	mul.w	r1, r2, r1
 8004012:	fb02 f303 	mul.w	r3, r2, r3
 8004016:	2900      	cmp	r1, #0
 8004018:	bfbc      	itt	lt
 800401a:	f501 41ff 	addlt.w	r1, r1, #32640	; 0x7f80
 800401e:	317f      	addlt	r1, #127	; 0x7f
 8004020:	2b00      	cmp	r3, #0
 8004022:	bfbc      	itt	lt
 8004024:	f503 43ff 	addlt.w	r3, r3, #32640	; 0x7f80
 8004028:	337f      	addlt	r3, #127	; 0x7f
 800402a:	f341 31cf 	sbfx	r1, r1, #15, #16
 800402e:	f343 33cf 	sbfx	r3, r3, #15, #16
 8004032:	2000      	movs	r0, #0
 8004034:	b289      	uxth	r1, r1
 8004036:	b29b      	uxth	r3, r3
 8004038:	f361 000f 	bfi	r0, r1, #0, #16
 800403c:	f363 401f 	bfi	r0, r3, #16, #16
 8004040:	b005      	add	sp, #20
 8004042:	bc10      	pop	{r4}
 8004044:	4770      	bx	lr
 8004046:	bf00      	nop

08004048 <FCP_Init>:
 8004048:	2300      	movs	r3, #0
 800404a:	8243      	strh	r3, [r0, #18]
 800404c:	8283      	strh	r3, [r0, #20]
 800404e:	f8c0 3096 	str.w	r3, [r0, #150]	; 0x96
 8004052:	f880 309a 	strb.w	r3, [r0, #154]	; 0x9a
 8004056:	f880 311b 	strb.w	r3, [r0, #283]	; 0x11b
 800405a:	f880 311c 	strb.w	r3, [r0, #284]	; 0x11c
 800405e:	f880 311d 	strb.w	r3, [r0, #285]	; 0x11d
 8004062:	4770      	bx	lr

08004064 <FCP_SetClient>:
 8004064:	b120      	cbz	r0, 8004070 <FCP_SetClient+0xc>
 8004066:	6083      	str	r3, [r0, #8]
 8004068:	e9c0 1200 	strd	r1, r2, [r0]
 800406c:	9b00      	ldr	r3, [sp, #0]
 800406e:	60c3      	str	r3, [r0, #12]
 8004070:	4770      	bx	lr
 8004072:	bf00      	nop

08004074 <FCP_CalcCRC>:
 8004074:	b190      	cbz	r0, 800409c <FCP_CalcCRC+0x28>
 8004076:	7841      	ldrb	r1, [r0, #1]
 8004078:	7802      	ldrb	r2, [r0, #0]
 800407a:	1853      	adds	r3, r2, r1
 800407c:	b151      	cbz	r1, 8004094 <FCP_CalcCRC+0x20>
 800407e:	3901      	subs	r1, #1
 8004080:	b2ca      	uxtb	r2, r1
 8004082:	1c81      	adds	r1, r0, #2
 8004084:	4411      	add	r1, r2
 8004086:	3001      	adds	r0, #1
 8004088:	f810 2f01 	ldrb.w	r2, [r0, #1]!
 800408c:	4413      	add	r3, r2
 800408e:	4281      	cmp	r1, r0
 8004090:	b29b      	uxth	r3, r3
 8004092:	d1f9      	bne.n	8004088 <FCP_CalcCRC+0x14>
 8004094:	eb03 2313 	add.w	r3, r3, r3, lsr #8
 8004098:	f003 00ff 	and.w	r0, r3, #255	; 0xff
 800409c:	4770      	bx	lr
 800409e:	bf00      	nop

080040a0 <HALL_Init>:
 80040a0:	b5f0      	push	{r4, r5, r6, r7, lr}
 80040a2:	8ac1      	ldrh	r1, [r0, #22]
 80040a4:	7843      	ldrb	r3, [r0, #1]
 80040a6:	8a84      	ldrh	r4, [r0, #20]
 80040a8:	fb01 f103 	mul.w	r1, r1, r3
 80040ac:	0064      	lsls	r4, r4, #1
 80040ae:	fb04 f403 	mul.w	r4, r4, r3
 80040b2:	6a82      	ldr	r2, [r0, #40]	; 0x28
 80040b4:	f3c1 018d 	ubfx	r1, r1, #2, #14
 80040b8:	0c17      	lsrs	r7, r2, #16
 80040ba:	b2a4      	uxth	r4, r4
 80040bc:	f8a0 70c2 	strh.w	r7, [r0, #194]	; 0xc2
 80040c0:	6ac3      	ldr	r3, [r0, #44]	; 0x2c
 80040c2:	2900      	cmp	r1, #0
 80040c4:	d071      	beq.n	80041aa <HALL_Init+0x10a>
 80040c6:	f242 7510 	movw	r5, #10000	; 0x2710
 80040ca:	eb01 0141 	add.w	r1, r1, r1, lsl #1
 80040ce:	0049      	lsls	r1, r1, #1
 80040d0:	fbb5 f1f1 	udiv	r1, r5, r1
 80040d4:	b28e      	uxth	r6, r1
 80040d6:	4d36      	ldr	r5, [pc, #216]	; (80041b0 <HALL_Init+0x110>)
 80040d8:	fb01 f107 	mul.w	r1, r1, r7
 80040dc:	fba5 5202 	umull	r5, r2, r5, r2
 80040e0:	8b45      	ldrh	r5, [r0, #26]
 80040e2:	0892      	lsrs	r2, r2, #2
 80040e4:	fbb2 f7f5 	udiv	r7, r2, r5
 80040e8:	eb02 0282 	add.w	r2, r2, r2, lsl #2
 80040ec:	0052      	lsls	r2, r2, #1
 80040ee:	fbb2 f2f4 	udiv	r2, r2, r4
 80040f2:	f890 c0c6 	ldrb.w	ip, [r0, #198]	; 0xc6
 80040f6:	f04f 0e01 	mov.w	lr, #1
 80040fa:	fb05 f50c 	mul.w	r5, r5, ip
 80040fe:	f8b0 c024 	ldrh.w	ip, [r0, #36]	; 0x24
 8004102:	f8c0 20bc 	str.w	r2, [r0, #188]	; 0xbc
 8004106:	fb95 f5fc 	sdiv	r5, r5, ip
 800410a:	f04f 0c00 	mov.w	ip, #0
 800410e:	4a29      	ldr	r2, [pc, #164]	; (80041b4 <HALL_Init+0x114>)
 8004110:	3d01      	subs	r5, #1
 8004112:	fba2 1201 	umull	r1, r2, r2, r1
 8004116:	69c1      	ldr	r1, [r0, #28]
 8004118:	0992      	lsrs	r2, r2, #6
 800411a:	fb01 f707 	mul.w	r7, r1, r7
 800411e:	f8c0 70b4 	str.w	r7, [r0, #180]	; 0xb4
 8004122:	b297      	uxth	r7, r2
 8004124:	0439      	lsls	r1, r7, #16
 8004126:	f8c0 10b8 	str.w	r1, [r0, #184]	; 0xb8
 800412a:	6999      	ldr	r1, [r3, #24]
 800412c:	f8a0 40b0 	strh.w	r4, [r0, #176]	; 0xb0
 8004130:	f890 4048 	ldrb.w	r4, [r0, #72]	; 0x48
 8004134:	f021 01f0 	bic.w	r1, r1, #240	; 0xf0
 8004138:	ea41 1104 	orr.w	r1, r1, r4, lsl #4
 800413c:	f8a0 20ae 	strh.w	r2, [r0, #174]	; 0xae
 8004140:	f8a0 60c0 	strh.w	r6, [r0, #192]	; 0xc0
 8004144:	f8a0 50c4 	strh.w	r5, [r0, #196]	; 0xc4
 8004148:	f880 e049 	strb.w	lr, [r0, #73]	; 0x49
 800414c:	6199      	str	r1, [r3, #24]
 800414e:	629f      	str	r7, [r3, #40]	; 0x28
 8004150:	695a      	ldr	r2, [r3, #20]
 8004152:	ea42 020e 	orr.w	r2, r2, lr
 8004156:	615a      	str	r2, [r3, #20]
 8004158:	f8c3 c010 	str.w	ip, [r3, #16]
 800415c:	681a      	ldr	r2, [r3, #0]
 800415e:	f042 0204 	orr.w	r2, r2, #4
 8004162:	601a      	str	r2, [r3, #0]
 8004164:	68da      	ldr	r2, [r3, #12]
 8004166:	f042 0202 	orr.w	r2, r2, #2
 800416a:	60da      	str	r2, [r3, #12]
 800416c:	68da      	ldr	r2, [r3, #12]
 800416e:	ea42 020e 	orr.w	r2, r2, lr
 8004172:	60da      	str	r2, [r3, #12]
 8004174:	f8c3 c024 	str.w	ip, [r3, #36]	; 0x24
 8004178:	6a1a      	ldr	r2, [r3, #32]
 800417a:	ea42 020e 	orr.w	r2, r2, lr
 800417e:	621a      	str	r2, [r3, #32]
 8004180:	681a      	ldr	r2, [r3, #0]
 8004182:	ea42 020e 	orr.w	r2, r2, lr
 8004186:	601a      	str	r2, [r3, #0]
 8004188:	f890 3026 	ldrb.w	r3, [r0, #38]	; 0x26
 800418c:	b163      	cbz	r3, 80041a8 <HALL_Init+0x108>
 800418e:	3b01      	subs	r3, #1
 8004190:	b2d9      	uxtb	r1, r3
 8004192:	f100 0350 	add.w	r3, r0, #80	; 0x50
 8004196:	f8d0 20b8 	ldr.w	r2, [r0, #184]	; 0xb8
 800419a:	eb03 0381 	add.w	r3, r3, r1, lsl #2
 800419e:	304c      	adds	r0, #76	; 0x4c
 80041a0:	f840 2f04 	str.w	r2, [r0, #4]!
 80041a4:	4298      	cmp	r0, r3
 80041a6:	d1fb      	bne.n	80041a0 <HALL_Init+0x100>
 80041a8:	bdf0      	pop	{r4, r5, r6, r7, pc}
 80041aa:	2196      	movs	r1, #150	; 0x96
 80041ac:	460e      	mov	r6, r1
 80041ae:	e792      	b.n	80040d6 <HALL_Init+0x36>
 80041b0:	aaaaaaab 	.word	0xaaaaaaab
 80041b4:	10624dd3 	.word	0x10624dd3

080041b8 <HALL_Clear>:
 80041b8:	2300      	movs	r3, #0
 80041ba:	b4f0      	push	{r4, r5, r6, r7}
 80041bc:	2401      	movs	r4, #1
 80041be:	6ac2      	ldr	r2, [r0, #44]	; 0x2c
 80041c0:	f8b0 60ae 	ldrh.w	r6, [r0, #174]	; 0xae
 80041c4:	68d1      	ldr	r1, [r2, #12]
 80041c6:	6b45      	ldr	r5, [r0, #52]	; 0x34
 80041c8:	f021 0102 	bic.w	r1, r1, #2
 80041cc:	60d1      	str	r1, [r2, #12]
 80041ce:	f880 304a 	strb.w	r3, [r0, #74]	; 0x4a
 80041d2:	f880 40a2 	strb.w	r4, [r0, #162]	; 0xa2
 80041d6:	f880 304b 	strb.w	r3, [r0, #75]	; 0x4b
 80041da:	f880 3098 	strb.w	r3, [r0, #152]	; 0x98
 80041de:	f880 304c 	strb.w	r3, [r0, #76]	; 0x4c
 80041e2:	7003      	strb	r3, [r0, #0]
 80041e4:	f880 304d 	strb.w	r3, [r0, #77]	; 0x4d
 80041e8:	8243      	strh	r3, [r0, #18]
 80041ea:	f880 304e 	strb.w	r3, [r0, #78]	; 0x4e
 80041ee:	f8a0 30ac 	strh.w	r3, [r0, #172]	; 0xac
 80041f2:	f880 4049 	strb.w	r4, [r0, #73]	; 0x49
 80041f6:	6296      	str	r6, [r2, #40]	; 0x28
 80041f8:	6253      	str	r3, [r2, #36]	; 0x24
 80041fa:	6813      	ldr	r3, [r2, #0]
 80041fc:	6c41      	ldr	r1, [r0, #68]	; 0x44
 80041fe:	4323      	orrs	r3, r4
 8004200:	6013      	str	r3, [r2, #0]
 8004202:	68d3      	ldr	r3, [r2, #12]
 8004204:	6bc4      	ldr	r4, [r0, #60]	; 0x3c
 8004206:	f043 0302 	orr.w	r3, r3, #2
 800420a:	60d3      	str	r3, [r2, #12]
 800420c:	f890 3020 	ldrb.w	r3, [r0, #32]
 8004210:	f3c5 250f 	ubfx	r5, r5, #8, #16
 8004214:	f3c1 210f 	ubfx	r1, r1, #8, #16
 8004218:	f3c4 240f 	ubfx	r4, r4, #8, #16
 800421c:	6b87      	ldr	r7, [r0, #56]	; 0x38
 800421e:	6c06      	ldr	r6, [r0, #64]	; 0x40
 8004220:	6b02      	ldr	r2, [r0, #48]	; 0x30
 8004222:	b9e3      	cbnz	r3, 800425e <HALL_Clear+0xa6>
 8004224:	68b3      	ldr	r3, [r6, #8]
 8004226:	68be      	ldr	r6, [r7, #8]
 8004228:	ea31 0303 	bics.w	r3, r1, r3
 800422c:	bf0c      	ite	eq
 800422e:	2304      	moveq	r3, #4
 8004230:	2300      	movne	r3, #0
 8004232:	ea34 0106 	bics.w	r1, r4, r6
 8004236:	bf0c      	ite	eq
 8004238:	2102      	moveq	r1, #2
 800423a:	2100      	movne	r1, #0
 800423c:	6892      	ldr	r2, [r2, #8]
 800423e:	430b      	orrs	r3, r1
 8004240:	ea35 0202 	bics.w	r2, r5, r2
 8004244:	bf08      	it	eq
 8004246:	f043 0301 	orreq.w	r3, r3, #1
 800424a:	1e5a      	subs	r2, r3, #1
 800424c:	f880 30a6 	strb.w	r3, [r0, #166]	; 0xa6
 8004250:	2a05      	cmp	r2, #5
 8004252:	d854      	bhi.n	80042fe <HALL_Clear+0x146>
 8004254:	e8df f002 	tbb	[pc, r2]
 8004258:	3f352b21 	.word	0x3f352b21
 800425c:	1749      	.short	0x1749
 800425e:	68bf      	ldr	r7, [r7, #8]
 8004260:	68b3      	ldr	r3, [r6, #8]
 8004262:	6892      	ldr	r2, [r2, #8]
 8004264:	ea31 0303 	bics.w	r3, r1, r3
 8004268:	bf0c      	ite	eq
 800426a:	2302      	moveq	r3, #2
 800426c:	2300      	movne	r3, #0
 800426e:	ea35 0202 	bics.w	r2, r5, r2
 8004272:	bf08      	it	eq
 8004274:	f043 0301 	orreq.w	r3, r3, #1
 8004278:	ea34 0207 	bics.w	r2, r4, r7
 800427c:	bf14      	ite	ne
 800427e:	2204      	movne	r2, #4
 8004280:	2200      	moveq	r2, #0
 8004282:	4313      	orrs	r3, r2
 8004284:	e7e1      	b.n	800424a <HALL_Clear+0x92>
 8004286:	8c43      	ldrh	r3, [r0, #34]	; 0x22
 8004288:	bcf0      	pop	{r4, r5, r6, r7}
 800428a:	f5a3 537f 	sub.w	r3, r3, #16320	; 0x3fc0
 800428e:	3b3f      	subs	r3, #63	; 0x3f
 8004290:	b21b      	sxth	r3, r3
 8004292:	8083      	strh	r3, [r0, #4]
 8004294:	f8a0 30aa 	strh.w	r3, [r0, #170]	; 0xaa
 8004298:	4770      	bx	lr
 800429a:	8c43      	ldrh	r3, [r0, #34]	; 0x22
 800429c:	bcf0      	pop	{r4, r5, r6, r7}
 800429e:	f503 537f 	add.w	r3, r3, #16320	; 0x3fc0
 80042a2:	333f      	adds	r3, #63	; 0x3f
 80042a4:	b21b      	sxth	r3, r3
 80042a6:	8083      	strh	r3, [r0, #4]
 80042a8:	f8a0 30aa 	strh.w	r3, [r0, #170]	; 0xaa
 80042ac:	4770      	bx	lr
 80042ae:	8c43      	ldrh	r3, [r0, #34]	; 0x22
 80042b0:	bcf0      	pop	{r4, r5, r6, r7}
 80042b2:	f5a3 43d5 	sub.w	r3, r3, #27264	; 0x6a80
 80042b6:	3b2a      	subs	r3, #42	; 0x2a
 80042b8:	b21b      	sxth	r3, r3
 80042ba:	8083      	strh	r3, [r0, #4]
 80042bc:	f8a0 30aa 	strh.w	r3, [r0, #170]	; 0xaa
 80042c0:	4770      	bx	lr
 80042c2:	8c43      	ldrh	r3, [r0, #34]	; 0x22
 80042c4:	bcf0      	pop	{r4, r5, r6, r7}
 80042c6:	f503 43d5 	add.w	r3, r3, #27264	; 0x6a80
 80042ca:	332a      	adds	r3, #42	; 0x2a
 80042cc:	b21b      	sxth	r3, r3
 80042ce:	8083      	strh	r3, [r0, #4]
 80042d0:	f8a0 30aa 	strh.w	r3, [r0, #170]	; 0xaa
 80042d4:	4770      	bx	lr
 80042d6:	8c43      	ldrh	r3, [r0, #34]	; 0x22
 80042d8:	bcf0      	pop	{r4, r5, r6, r7}
 80042da:	f5a3 53aa 	sub.w	r3, r3, #5440	; 0x1540
 80042de:	3b15      	subs	r3, #21
 80042e0:	b21b      	sxth	r3, r3
 80042e2:	8083      	strh	r3, [r0, #4]
 80042e4:	f8a0 30aa 	strh.w	r3, [r0, #170]	; 0xaa
 80042e8:	4770      	bx	lr
 80042ea:	8c43      	ldrh	r3, [r0, #34]	; 0x22
 80042ec:	bcf0      	pop	{r4, r5, r6, r7}
 80042ee:	f503 53aa 	add.w	r3, r3, #5440	; 0x1540
 80042f2:	3315      	adds	r3, #21
 80042f4:	b21b      	sxth	r3, r3
 80042f6:	8083      	strh	r3, [r0, #4]
 80042f8:	f8a0 30aa 	strh.w	r3, [r0, #170]	; 0xaa
 80042fc:	4770      	bx	lr
 80042fe:	2200      	movs	r2, #0
 8004300:	bcf0      	pop	{r4, r5, r6, r7}
 8004302:	f9b0 3004 	ldrsh.w	r3, [r0, #4]
 8004306:	f880 2049 	strb.w	r2, [r0, #73]	; 0x49
 800430a:	f8a0 30aa 	strh.w	r3, [r0, #170]	; 0xaa
 800430e:	4770      	bx	lr

08004310 <HALL_CalcElAngle>:
 8004310:	f647 71ff 	movw	r1, #32767	; 0x7fff
 8004314:	f9b0 200e 	ldrsh.w	r2, [r0, #14]
 8004318:	8883      	ldrh	r3, [r0, #4]
 800431a:	428a      	cmp	r2, r1
 800431c:	d011      	beq.n	8004342 <HALL_CalcElAngle+0x32>
 800431e:	b430      	push	{r4, r5}
 8004320:	b291      	uxth	r1, r2
 8004322:	f8b0 50ac 	ldrh.w	r5, [r0, #172]	; 0xac
 8004326:	f8b0 40aa 	ldrh.w	r4, [r0, #170]	; 0xaa
 800432a:	440b      	add	r3, r1
 800432c:	442b      	add	r3, r5
 800432e:	4421      	add	r1, r4
 8004330:	b21b      	sxth	r3, r3
 8004332:	f8a0 20a0 	strh.w	r2, [r0, #160]	; 0xa0
 8004336:	f8a0 10aa 	strh.w	r1, [r0, #170]	; 0xaa
 800433a:	8083      	strh	r3, [r0, #4]
 800433c:	bc30      	pop	{r4, r5}
 800433e:	4618      	mov	r0, r3
 8004340:	4770      	bx	lr
 8004342:	f8b0 20a0 	ldrh.w	r2, [r0, #160]	; 0xa0
 8004346:	4413      	add	r3, r2
 8004348:	b21b      	sxth	r3, r3
 800434a:	8083      	strh	r3, [r0, #4]
 800434c:	4618      	mov	r0, r3
 800434e:	4770      	bx	lr

08004350 <HALL_CalcAvrgMecSpeedUnit>:
 8004350:	b538      	push	{r3, r4, r5, lr}
 8004352:	4604      	mov	r4, r0
 8004354:	f890 0049 	ldrb.w	r0, [r0, #73]	; 0x49
 8004358:	460d      	mov	r5, r1
 800435a:	b180      	cbz	r0, 800437e <HALL_CalcAvrgMecSpeedUnit+0x2e>
 800435c:	6ae3      	ldr	r3, [r4, #44]	; 0x2c
 800435e:	f8b4 20ae 	ldrh.w	r2, [r4, #174]	; 0xae
 8004362:	6a9b      	ldr	r3, [r3, #40]	; 0x28
 8004364:	429a      	cmp	r2, r3
 8004366:	d811      	bhi.n	800438c <HALL_CalcAvrgMecSpeedUnit+0x3c>
 8004368:	2300      	movs	r3, #0
 800436a:	81e3      	strh	r3, [r4, #14]
 800436c:	800b      	strh	r3, [r1, #0]
 800436e:	4629      	mov	r1, r5
 8004370:	4620      	mov	r0, r4
 8004372:	f001 f8f5 	bl	8005560 <SPD_IsMecSpeedReliable>
 8004376:	f9b5 3000 	ldrsh.w	r3, [r5]
 800437a:	81a3      	strh	r3, [r4, #12]
 800437c:	bd38      	pop	{r3, r4, r5, pc}
 800437e:	4603      	mov	r3, r0
 8004380:	78e2      	ldrb	r2, [r4, #3]
 8004382:	81e0      	strh	r0, [r4, #14]
 8004384:	7022      	strb	r2, [r4, #0]
 8004386:	8008      	strh	r0, [r1, #0]
 8004388:	81a3      	strh	r3, [r4, #12]
 800438a:	bd38      	pop	{r3, r4, r5, pc}
 800438c:	f9b4 30a4 	ldrsh.w	r3, [r4, #164]	; 0xa4
 8004390:	81e3      	strh	r3, [r4, #14]
 8004392:	b1cb      	cbz	r3, 80043c8 <HALL_CalcAvrgMecSpeedUnit+0x78>
 8004394:	f647 72ff 	movw	r2, #32767	; 0x7fff
 8004398:	4293      	cmp	r3, r2
 800439a:	d013      	beq.n	80043c4 <HALL_CalcAvrgMecSpeedUnit+0x74>
 800439c:	f894 20c7 	ldrb.w	r2, [r4, #199]	; 0xc7
 80043a0:	b1a2      	cbz	r2, 80043cc <HALL_CalcAvrgMecSpeedUnit+0x7c>
 80043a2:	2200      	movs	r2, #0
 80043a4:	8b61      	ldrh	r1, [r4, #26]
 80043a6:	7860      	ldrb	r0, [r4, #1]
 80043a8:	fb03 f301 	mul.w	r3, r3, r1
 80043ac:	69e1      	ldr	r1, [r4, #28]
 80043ae:	eb03 0383 	add.w	r3, r3, r3, lsl #2
 80043b2:	fb01 f100 	mul.w	r1, r1, r0
 80043b6:	005b      	lsls	r3, r3, #1
 80043b8:	fb93 f3f1 	sdiv	r3, r3, r1
 80043bc:	f8a4 20ac 	strh.w	r2, [r4, #172]	; 0xac
 80043c0:	802b      	strh	r3, [r5, #0]
 80043c2:	e7d4      	b.n	800436e <HALL_CalcAvrgMecSpeedUnit+0x1e>
 80043c4:	f8b4 30b0 	ldrh.w	r3, [r4, #176]	; 0xb0
 80043c8:	802b      	strh	r3, [r5, #0]
 80043ca:	e7d0      	b.n	800436e <HALL_CalcAvrgMecSpeedUnit+0x1e>
 80043cc:	f8b4 20aa 	ldrh.w	r2, [r4, #170]	; 0xaa
 80043d0:	88a0      	ldrh	r0, [r4, #4]
 80043d2:	f8b4 10c4 	ldrh.w	r1, [r4, #196]	; 0xc4
 80043d6:	1a12      	subs	r2, r2, r0
 80043d8:	b212      	sxth	r2, r2
 80043da:	f8a4 20a8 	strh.w	r2, [r4, #168]	; 0xa8
 80043de:	fb92 f2f1 	sdiv	r2, r2, r1
 80043e2:	e7df      	b.n	80043a4 <HALL_CalcAvrgMecSpeedUnit+0x54>

080043e4 <HALL_TIMx_CC_IRQHandler>:
 80043e4:	f890 3049 	ldrb.w	r3, [r0, #73]	; 0x49
 80043e8:	2b00      	cmp	r3, #0
 80043ea:	d045      	beq.n	8004478 <HALL_TIMx_CC_IRQHandler+0x94>
 80043ec:	b5f0      	push	{r4, r5, r6, r7, lr}
 80043ee:	6b41      	ldr	r1, [r0, #52]	; 0x34
 80043f0:	6c43      	ldr	r3, [r0, #68]	; 0x44
 80043f2:	6bc2      	ldr	r2, [r0, #60]	; 0x3c
 80043f4:	f890 7020 	ldrb.w	r7, [r0, #32]
 80043f8:	f3c1 2c0f 	ubfx	ip, r1, #8, #16
 80043fc:	f3c3 230f 	ubfx	r3, r3, #8, #16
 8004400:	f3c2 220f 	ubfx	r2, r2, #8, #16
 8004404:	f890 10a6 	ldrb.w	r1, [r0, #166]	; 0xa6
 8004408:	f990 50a2 	ldrsb.w	r5, [r0, #162]	; 0xa2
 800440c:	6b86      	ldr	r6, [r0, #56]	; 0x38
 800440e:	6c04      	ldr	r4, [r0, #64]	; 0x40
 8004410:	f8d0 e030 	ldr.w	lr, [r0, #48]	; 0x30
 8004414:	b1ef      	cbz	r7, 8004452 <HALL_TIMx_CC_IRQHandler+0x6e>
 8004416:	68b6      	ldr	r6, [r6, #8]
 8004418:	68a7      	ldr	r7, [r4, #8]
 800441a:	f8de 4008 	ldr.w	r4, [lr, #8]
 800441e:	43bb      	bics	r3, r7
 8004420:	bf0c      	ite	eq
 8004422:	2302      	moveq	r3, #2
 8004424:	2300      	movne	r3, #0
 8004426:	ea3c 0404 	bics.w	r4, ip, r4
 800442a:	bf08      	it	eq
 800442c:	f043 0301 	orreq.w	r3, r3, #1
 8004430:	43b2      	bics	r2, r6
 8004432:	bf14      	ite	ne
 8004434:	2204      	movne	r2, #4
 8004436:	2200      	moveq	r2, #0
 8004438:	4313      	orrs	r3, r2
 800443a:	1e5a      	subs	r2, r3, #1
 800443c:	f880 30a6 	strb.w	r3, [r0, #166]	; 0xa6
 8004440:	6ac4      	ldr	r4, [r0, #44]	; 0x2c
 8004442:	2a05      	cmp	r2, #5
 8004444:	f200 8100 	bhi.w	8004648 <HALL_TIMx_CC_IRQHandler+0x264>
 8004448:	e8df f002 	tbb	[pc, r2]
 800444c:	9eadbfd1 	.word	0x9eadbfd1
 8004450:	188d      	.short	0x188d
 8004452:	68a7      	ldr	r7, [r4, #8]
 8004454:	68b4      	ldr	r4, [r6, #8]
 8004456:	43bb      	bics	r3, r7
 8004458:	bf0c      	ite	eq
 800445a:	2304      	moveq	r3, #4
 800445c:	2300      	movne	r3, #0
 800445e:	43a2      	bics	r2, r4
 8004460:	bf0c      	ite	eq
 8004462:	2402      	moveq	r4, #2
 8004464:	2400      	movne	r4, #0
 8004466:	f8de 2008 	ldr.w	r2, [lr, #8]
 800446a:	4323      	orrs	r3, r4
 800446c:	ea3c 0202 	bics.w	r2, ip, r2
 8004470:	bf08      	it	eq
 8004472:	f043 0301 	orreq.w	r3, r3, #1
 8004476:	e7e0      	b.n	800443a <HALL_TIMx_CC_IRQHandler+0x56>
 8004478:	2000      	movs	r0, #0
 800447a:	4770      	bx	lr
 800447c:	2902      	cmp	r1, #2
 800447e:	f000 8127 	beq.w	80046d0 <HALL_TIMx_CC_IRQHandler+0x2ec>
 8004482:	2904      	cmp	r1, #4
 8004484:	f000 8111 	beq.w	80046aa <HALL_TIMx_CC_IRQHandler+0x2c6>
 8004488:	4629      	mov	r1, r5
 800448a:	f890 30c7 	ldrb.w	r3, [r0, #199]	; 0xc7
 800448e:	b113      	cbz	r3, 8004496 <HALL_TIMx_CC_IRQHandler+0xb2>
 8004490:	f8b0 30aa 	ldrh.w	r3, [r0, #170]	; 0xaa
 8004494:	8083      	strh	r3, [r0, #4]
 8004496:	f890 304c 	ldrb.w	r3, [r0, #76]	; 0x4c
 800449a:	2b00      	cmp	r3, #0
 800449c:	f000 80c1 	beq.w	8004622 <HALL_TIMx_CC_IRQHandler+0x23e>
 80044a0:	f890 304d 	ldrb.w	r3, [r0, #77]	; 0x4d
 80044a4:	f890 5026 	ldrb.w	r5, [r0, #38]	; 0x26
 80044a8:	42ab      	cmp	r3, r5
 80044aa:	d205      	bcs.n	80044b8 <HALL_TIMx_CC_IRQHandler+0xd4>
 80044ac:	f890 304d 	ldrb.w	r3, [r0, #77]	; 0x4d
 80044b0:	3301      	adds	r3, #1
 80044b2:	b2db      	uxtb	r3, r3
 80044b4:	f880 304d 	strb.w	r3, [r0, #77]	; 0x4d
 80044b8:	6b67      	ldr	r7, [r4, #52]	; 0x34
 80044ba:	6aa2      	ldr	r2, [r4, #40]	; 0x28
 80044bc:	f890 c04e 	ldrb.w	ip, [r0, #78]	; 0x4e
 80044c0:	f890 604e 	ldrb.w	r6, [r0, #78]	; 0x4e
 80044c4:	b2bb      	uxth	r3, r7
 80044c6:	eb03 430c 	add.w	r3, r3, ip, lsl #16
 80044ca:	b292      	uxth	r2, r2
 80044cc:	f006 0cff 	and.w	ip, r6, #255	; 0xff
 80044d0:	2e00      	cmp	r6, #0
 80044d2:	f000 80af 	beq.w	8004634 <HALL_TIMx_CC_IRQHandler+0x250>
 80044d6:	3201      	adds	r2, #1
 80044d8:	f890 604b 	ldrb.w	r6, [r0, #75]	; 0x4b
 80044dc:	b292      	uxth	r2, r2
 80044de:	fb03 f302 	mul.w	r3, r3, r2
 80044e2:	2e00      	cmp	r6, #0
 80044e4:	f000 80b7 	beq.w	8004656 <HALL_TIMx_CC_IRQHandler+0x272>
 80044e8:	2200      	movs	r2, #0
 80044ea:	f880 204b 	strb.w	r2, [r0, #75]	; 0x4b
 80044ee:	f8d0 20bc 	ldr.w	r2, [r0, #188]	; 0xbc
 80044f2:	429a      	cmp	r2, r3
 80044f4:	d832      	bhi.n	800455c <HALL_TIMx_CC_IRQHandler+0x178>
 80044f6:	f8d0 60b8 	ldr.w	r6, [r0, #184]	; 0xb8
 80044fa:	f890 2098 	ldrb.w	r2, [r0, #152]	; 0x98
 80044fe:	429e      	cmp	r6, r3
 8004500:	eb00 0c82 	add.w	ip, r0, r2, lsl #2
 8004504:	bf88      	it	hi
 8004506:	fb01 f603 	mulhi.w	r6, r1, r3
 800450a:	f8dc 7050 	ldr.w	r7, [ip, #80]	; 0x50
 800450e:	f8d0 409c 	ldr.w	r4, [r0, #156]	; 0x9c
 8004512:	f102 0201 	add.w	r2, r2, #1
 8004516:	eba4 0407 	sub.w	r4, r4, r7
 800451a:	b2d2      	uxtb	r2, r2
 800451c:	f8c0 409c 	str.w	r4, [r0, #156]	; 0x9c
 8004520:	bf8a      	itet	hi
 8004522:	19a4      	addhi	r4, r4, r6
 8004524:	434e      	mulls	r6, r1
 8004526:	f8c0 409c 	strhi.w	r4, [r0, #156]	; 0x9c
 800452a:	4295      	cmp	r5, r2
 800452c:	bf08      	it	eq
 800452e:	2200      	moveq	r2, #0
 8004530:	f8cc 6050 	str.w	r6, [ip, #80]	; 0x50
 8004534:	f880 2098 	strb.w	r2, [r0, #152]	; 0x98
 8004538:	f890 2049 	ldrb.w	r2, [r0, #73]	; 0x49
 800453c:	2a00      	cmp	r2, #0
 800453e:	f000 8087 	beq.w	8004650 <HALL_TIMx_CC_IRQHandler+0x26c>
 8004542:	f890 404d 	ldrb.w	r4, [r0, #77]	; 0x4d
 8004546:	f8d0 20b4 	ldr.w	r2, [r0, #180]	; 0xb4
 800454a:	42a5      	cmp	r5, r4
 800454c:	f240 80a4 	bls.w	8004698 <HALL_TIMx_CC_IRQHandler+0x2b4>
 8004550:	fbb2 f3f3 	udiv	r3, r2, r3
 8004554:	fb03 f101 	mul.w	r1, r3, r1
 8004558:	f8a0 10a4 	strh.w	r1, [r0, #164]	; 0xa4
 800455c:	2300      	movs	r3, #0
 800455e:	f880 304e 	strb.w	r3, [r0, #78]	; 0x4e
 8004562:	2000      	movs	r0, #0
 8004564:	bdf0      	pop	{r4, r5, r6, r7, pc}
 8004566:	2904      	cmp	r1, #4
 8004568:	f000 80ab 	beq.w	80046c2 <HALL_TIMx_CC_IRQHandler+0x2de>
 800456c:	2901      	cmp	r1, #1
 800456e:	d18b      	bne.n	8004488 <HALL_TIMx_CC_IRQHandler+0xa4>
 8004570:	22ff      	movs	r2, #255	; 0xff
 8004572:	8c43      	ldrh	r3, [r0, #34]	; 0x22
 8004574:	f880 20a2 	strb.w	r2, [r0, #162]	; 0xa2
 8004578:	f503 532a 	add.w	r3, r3, #10880	; 0x2a80
 800457c:	332a      	adds	r3, #42	; 0x2a
 800457e:	f8a0 30aa 	strh.w	r3, [r0, #170]	; 0xaa
 8004582:	f04f 31ff 	mov.w	r1, #4294967295
 8004586:	e043      	b.n	8004610 <HALL_TIMx_CC_IRQHandler+0x22c>
 8004588:	2906      	cmp	r1, #6
 800458a:	f000 80b4 	beq.w	80046f6 <HALL_TIMx_CC_IRQHandler+0x312>
 800458e:	2905      	cmp	r1, #5
 8004590:	f47f af7a 	bne.w	8004488 <HALL_TIMx_CC_IRQHandler+0xa4>
 8004594:	22ff      	movs	r2, #255	; 0xff
 8004596:	8c43      	ldrh	r3, [r0, #34]	; 0x22
 8004598:	f880 20a2 	strb.w	r2, [r0, #162]	; 0xa2
 800459c:	f8a0 30aa 	strh.w	r3, [r0, #170]	; 0xaa
 80045a0:	f04f 31ff 	mov.w	r1, #4294967295
 80045a4:	e034      	b.n	8004610 <HALL_TIMx_CC_IRQHandler+0x22c>
 80045a6:	2901      	cmp	r1, #1
 80045a8:	f000 809c 	beq.w	80046e4 <HALL_TIMx_CC_IRQHandler+0x300>
 80045ac:	2902      	cmp	r1, #2
 80045ae:	f47f af6b 	bne.w	8004488 <HALL_TIMx_CC_IRQHandler+0xa4>
 80045b2:	22ff      	movs	r2, #255	; 0xff
 80045b4:	8c43      	ldrh	r3, [r0, #34]	; 0x22
 80045b6:	f880 20a2 	strb.w	r2, [r0, #162]	; 0xa2
 80045ba:	f503 43ff 	add.w	r3, r3, #32640	; 0x7f80
 80045be:	337f      	adds	r3, #127	; 0x7f
 80045c0:	f8a0 30aa 	strh.w	r3, [r0, #170]	; 0xaa
 80045c4:	f04f 31ff 	mov.w	r1, #4294967295
 80045c8:	e022      	b.n	8004610 <HALL_TIMx_CC_IRQHandler+0x22c>
 80045ca:	2903      	cmp	r1, #3
 80045cc:	f000 80a7 	beq.w	800471e <HALL_TIMx_CC_IRQHandler+0x33a>
 80045d0:	2906      	cmp	r1, #6
 80045d2:	f47f af59 	bne.w	8004488 <HALL_TIMx_CC_IRQHandler+0xa4>
 80045d6:	22ff      	movs	r2, #255	; 0xff
 80045d8:	8c43      	ldrh	r3, [r0, #34]	; 0x22
 80045da:	f880 20a2 	strb.w	r2, [r0, #162]	; 0xa2
 80045de:	f5a3 43aa 	sub.w	r3, r3, #21760	; 0x5500
 80045e2:	3b55      	subs	r3, #85	; 0x55
 80045e4:	f8a0 30aa 	strh.w	r3, [r0, #170]	; 0xaa
 80045e8:	f04f 31ff 	mov.w	r1, #4294967295
 80045ec:	e010      	b.n	8004610 <HALL_TIMx_CC_IRQHandler+0x22c>
 80045ee:	2905      	cmp	r1, #5
 80045f0:	f000 808b 	beq.w	800470a <HALL_TIMx_CC_IRQHandler+0x326>
 80045f4:	2903      	cmp	r1, #3
 80045f6:	f47f af47 	bne.w	8004488 <HALL_TIMx_CC_IRQHandler+0xa4>
 80045fa:	22ff      	movs	r2, #255	; 0xff
 80045fc:	f04f 31ff 	mov.w	r1, #4294967295
 8004600:	8c43      	ldrh	r3, [r0, #34]	; 0x22
 8004602:	f880 20a2 	strb.w	r2, [r0, #162]	; 0xa2
 8004606:	f503 43aa 	add.w	r3, r3, #21760	; 0x5500
 800460a:	3355      	adds	r3, #85	; 0x55
 800460c:	f8a0 30aa 	strh.w	r3, [r0, #170]	; 0xaa
 8004610:	428d      	cmp	r5, r1
 8004612:	f43f af3a 	beq.w	800448a <HALL_TIMx_CC_IRQHandler+0xa6>
 8004616:	2300      	movs	r3, #0
 8004618:	f880 304d 	strb.w	r3, [r0, #77]	; 0x4d
 800461c:	f880 3098 	strb.w	r3, [r0, #152]	; 0x98
 8004620:	e733      	b.n	800448a <HALL_TIMx_CC_IRQHandler+0xa6>
 8004622:	f890 304c 	ldrb.w	r3, [r0, #76]	; 0x4c
 8004626:	3301      	adds	r3, #1
 8004628:	b2db      	uxtb	r3, r3
 800462a:	f880 304c 	strb.w	r3, [r0, #76]	; 0x4c
 800462e:	6b63      	ldr	r3, [r4, #52]	; 0x34
 8004630:	2000      	movs	r0, #0
 8004632:	bdf0      	pop	{r4, r5, r6, r7, pc}
 8004634:	f890 604a 	ldrb.w	r6, [r0, #74]	; 0x4a
 8004638:	b1d6      	cbz	r6, 8004670 <HALL_TIMx_CC_IRQHandler+0x28c>
 800463a:	3202      	adds	r2, #2
 800463c:	b292      	uxth	r2, r2
 800463e:	fb03 f302 	mul.w	r3, r3, r2
 8004642:	f880 c04a 	strb.w	ip, [r0, #74]	; 0x4a
 8004646:	e752      	b.n	80044ee <HALL_TIMx_CC_IRQHandler+0x10a>
 8004648:	2300      	movs	r3, #0
 800464a:	f880 3049 	strb.w	r3, [r0, #73]	; 0x49
 800464e:	e71b      	b.n	8004488 <HALL_TIMx_CC_IRQHandler+0xa4>
 8004650:	f8a0 20a4 	strh.w	r2, [r0, #164]	; 0xa4
 8004654:	e782      	b.n	800455c <HALL_TIMx_CC_IRQHandler+0x178>
 8004656:	6aa2      	ldr	r2, [r4, #40]	; 0x28
 8004658:	f8b0 60ae 	ldrh.w	r6, [r0, #174]	; 0xae
 800465c:	4296      	cmp	r6, r2
 800465e:	f67f af46 	bls.w	80044ee <HALL_TIMx_CC_IRQHandler+0x10a>
 8004662:	2601      	movs	r6, #1
 8004664:	6aa2      	ldr	r2, [r4, #40]	; 0x28
 8004666:	4432      	add	r2, r6
 8004668:	62a2      	str	r2, [r4, #40]	; 0x28
 800466a:	f880 604b 	strb.w	r6, [r0, #75]	; 0x4b
 800466e:	e73e      	b.n	80044ee <HALL_TIMx_CC_IRQHandler+0x10a>
 8004670:	3201      	adds	r2, #1
 8004672:	b2bf      	uxth	r7, r7
 8004674:	b292      	uxth	r2, r2
 8004676:	f5b7 4faa 	cmp.w	r7, #21760	; 0x5500
 800467a:	fb03 f302 	mul.w	r3, r3, r2
 800467e:	f4bf af36 	bcs.w	80044ee <HALL_TIMx_CC_IRQHandler+0x10a>
 8004682:	6aa2      	ldr	r2, [r4, #40]	; 0x28
 8004684:	2a00      	cmp	r2, #0
 8004686:	f43f af32 	beq.w	80044ee <HALL_TIMx_CC_IRQHandler+0x10a>
 800468a:	2601      	movs	r6, #1
 800468c:	6aa2      	ldr	r2, [r4, #40]	; 0x28
 800468e:	3a01      	subs	r2, #1
 8004690:	62a2      	str	r2, [r4, #40]	; 0x28
 8004692:	f880 604a 	strb.w	r6, [r0, #74]	; 0x4a
 8004696:	e72a      	b.n	80044ee <HALL_TIMx_CC_IRQHandler+0x10a>
 8004698:	f8d0 309c 	ldr.w	r3, [r0, #156]	; 0x9c
 800469c:	fb93 f5f5 	sdiv	r5, r3, r5
 80046a0:	fb92 f2f5 	sdiv	r2, r2, r5
 80046a4:	f8a0 20a4 	strh.w	r2, [r0, #164]	; 0xa4
 80046a8:	e758      	b.n	800455c <HALL_TIMx_CC_IRQHandler+0x178>
 80046aa:	22ff      	movs	r2, #255	; 0xff
 80046ac:	8c43      	ldrh	r3, [r0, #34]	; 0x22
 80046ae:	f880 20a2 	strb.w	r2, [r0, #162]	; 0xa2
 80046b2:	f5a3 532a 	sub.w	r3, r3, #10880	; 0x2a80
 80046b6:	3b2a      	subs	r3, #42	; 0x2a
 80046b8:	f8a0 30aa 	strh.w	r3, [r0, #170]	; 0xaa
 80046bc:	f04f 31ff 	mov.w	r1, #4294967295
 80046c0:	e7a6      	b.n	8004610 <HALL_TIMx_CC_IRQHandler+0x22c>
 80046c2:	2101      	movs	r1, #1
 80046c4:	8c43      	ldrh	r3, [r0, #34]	; 0x22
 80046c6:	f880 10a2 	strb.w	r1, [r0, #162]	; 0xa2
 80046ca:	f8a0 30aa 	strh.w	r3, [r0, #170]	; 0xaa
 80046ce:	e79f      	b.n	8004610 <HALL_TIMx_CC_IRQHandler+0x22c>
 80046d0:	2101      	movs	r1, #1
 80046d2:	8c43      	ldrh	r3, [r0, #34]	; 0x22
 80046d4:	f880 10a2 	strb.w	r1, [r0, #162]	; 0xa2
 80046d8:	f5a3 43aa 	sub.w	r3, r3, #21760	; 0x5500
 80046dc:	3b55      	subs	r3, #85	; 0x55
 80046de:	f8a0 30aa 	strh.w	r3, [r0, #170]	; 0xaa
 80046e2:	e795      	b.n	8004610 <HALL_TIMx_CC_IRQHandler+0x22c>
 80046e4:	8c43      	ldrh	r3, [r0, #34]	; 0x22
 80046e6:	f880 10a2 	strb.w	r1, [r0, #162]	; 0xa2
 80046ea:	f503 43aa 	add.w	r3, r3, #21760	; 0x5500
 80046ee:	3355      	adds	r3, #85	; 0x55
 80046f0:	f8a0 30aa 	strh.w	r3, [r0, #170]	; 0xaa
 80046f4:	e78c      	b.n	8004610 <HALL_TIMx_CC_IRQHandler+0x22c>
 80046f6:	2101      	movs	r1, #1
 80046f8:	8c43      	ldrh	r3, [r0, #34]	; 0x22
 80046fa:	f880 10a2 	strb.w	r1, [r0, #162]	; 0xa2
 80046fe:	f5a3 532a 	sub.w	r3, r3, #10880	; 0x2a80
 8004702:	3b2a      	subs	r3, #42	; 0x2a
 8004704:	f8a0 30aa 	strh.w	r3, [r0, #170]	; 0xaa
 8004708:	e782      	b.n	8004610 <HALL_TIMx_CC_IRQHandler+0x22c>
 800470a:	2101      	movs	r1, #1
 800470c:	8c43      	ldrh	r3, [r0, #34]	; 0x22
 800470e:	f880 10a2 	strb.w	r1, [r0, #162]	; 0xa2
 8004712:	f503 532a 	add.w	r3, r3, #10880	; 0x2a80
 8004716:	332a      	adds	r3, #42	; 0x2a
 8004718:	f8a0 30aa 	strh.w	r3, [r0, #170]	; 0xaa
 800471c:	e778      	b.n	8004610 <HALL_TIMx_CC_IRQHandler+0x22c>
 800471e:	2101      	movs	r1, #1
 8004720:	8c43      	ldrh	r3, [r0, #34]	; 0x22
 8004722:	f880 10a2 	strb.w	r1, [r0, #162]	; 0xa2
 8004726:	f503 43ff 	add.w	r3, r3, #32640	; 0x7f80
 800472a:	337f      	adds	r3, #127	; 0x7f
 800472c:	f8a0 30aa 	strh.w	r3, [r0, #170]	; 0xaa
 8004730:	e76e      	b.n	8004610 <HALL_TIMx_CC_IRQHandler+0x22c>
 8004732:	bf00      	nop

08004734 <HALL_TIMx_UP_IRQHandler>:
 8004734:	f890 3049 	ldrb.w	r3, [r0, #73]	; 0x49
 8004738:	b1e3      	cbz	r3, 8004774 <HALL_TIMx_UP_IRQHandler+0x40>
 800473a:	f44f 717a 	mov.w	r1, #1000	; 0x3e8
 800473e:	b4f0      	push	{r4, r5, r6, r7}
 8004740:	f890 204e 	ldrb.w	r2, [r0, #78]	; 0x4e
 8004744:	6ac3      	ldr	r3, [r0, #44]	; 0x2c
 8004746:	3201      	adds	r2, #1
 8004748:	b2d2      	uxtb	r2, r2
 800474a:	f880 204e 	strb.w	r2, [r0, #78]	; 0x4e
 800474e:	6a9c      	ldr	r4, [r3, #40]	; 0x28
 8004750:	f8b0 20c0 	ldrh.w	r2, [r0, #192]	; 0xc0
 8004754:	f8b0 30c2 	ldrh.w	r3, [r0, #194]	; 0xc2
 8004758:	fb04 1101 	mla	r1, r4, r1, r1
 800475c:	fb03 f302 	mul.w	r3, r3, r2
 8004760:	fbb3 f3f1 	udiv	r3, r3, r1
 8004764:	f890 204e 	ldrb.w	r2, [r0, #78]	; 0x4e
 8004768:	b29b      	uxth	r3, r3
 800476a:	429a      	cmp	r2, r3
 800476c:	d204      	bcs.n	8004778 <HALL_TIMx_UP_IRQHandler+0x44>
 800476e:	bcf0      	pop	{r4, r5, r6, r7}
 8004770:	2000      	movs	r0, #0
 8004772:	4770      	bx	lr
 8004774:	2000      	movs	r0, #0
 8004776:	4770      	bx	lr
 8004778:	2400      	movs	r4, #0
 800477a:	6bc1      	ldr	r1, [r0, #60]	; 0x3c
 800477c:	6b42      	ldr	r2, [r0, #52]	; 0x34
 800477e:	6c43      	ldr	r3, [r0, #68]	; 0x44
 8004780:	f890 5020 	ldrb.w	r5, [r0, #32]
 8004784:	81c4      	strh	r4, [r0, #14]
 8004786:	f3c1 270f 	ubfx	r7, r1, #8, #16
 800478a:	f3c2 260f 	ubfx	r6, r2, #8, #16
 800478e:	f3c3 230f 	ubfx	r3, r3, #8, #16
 8004792:	6b84      	ldr	r4, [r0, #56]	; 0x38
 8004794:	6c01      	ldr	r1, [r0, #64]	; 0x40
 8004796:	6b02      	ldr	r2, [r0, #48]	; 0x30
 8004798:	b9dd      	cbnz	r5, 80047d2 <HALL_TIMx_UP_IRQHandler+0x9e>
 800479a:	688d      	ldr	r5, [r1, #8]
 800479c:	68a1      	ldr	r1, [r4, #8]
 800479e:	43ab      	bics	r3, r5
 80047a0:	bf0c      	ite	eq
 80047a2:	2304      	moveq	r3, #4
 80047a4:	2300      	movne	r3, #0
 80047a6:	ea37 0101 	bics.w	r1, r7, r1
 80047aa:	bf0c      	ite	eq
 80047ac:	2102      	moveq	r1, #2
 80047ae:	2100      	movne	r1, #0
 80047b0:	6892      	ldr	r2, [r2, #8]
 80047b2:	430b      	orrs	r3, r1
 80047b4:	ea36 0202 	bics.w	r2, r6, r2
 80047b8:	bf08      	it	eq
 80047ba:	f043 0301 	orreq.w	r3, r3, #1
 80047be:	1e5a      	subs	r2, r3, #1
 80047c0:	f880 30a6 	strb.w	r3, [r0, #166]	; 0xa6
 80047c4:	2a05      	cmp	r2, #5
 80047c6:	d866      	bhi.n	8004896 <HALL_TIMx_UP_IRQHandler+0x162>
 80047c8:	e8df f002 	tbb	[pc, r2]
 80047cc:	4950575e 	.word	0x4950575e
 80047d0:	1642      	.short	0x1642
 80047d2:	68a4      	ldr	r4, [r4, #8]
 80047d4:	6889      	ldr	r1, [r1, #8]
 80047d6:	6892      	ldr	r2, [r2, #8]
 80047d8:	438b      	bics	r3, r1
 80047da:	bf0c      	ite	eq
 80047dc:	2302      	moveq	r3, #2
 80047de:	2300      	movne	r3, #0
 80047e0:	ea36 0202 	bics.w	r2, r6, r2
 80047e4:	bf08      	it	eq
 80047e6:	f043 0301 	orreq.w	r3, r3, #1
 80047ea:	ea37 0204 	bics.w	r2, r7, r4
 80047ee:	bf14      	ite	ne
 80047f0:	2204      	movne	r2, #4
 80047f2:	2200      	moveq	r2, #0
 80047f4:	4313      	orrs	r3, r2
 80047f6:	e7e2      	b.n	80047be <HALL_TIMx_UP_IRQHandler+0x8a>
 80047f8:	8c43      	ldrh	r3, [r0, #34]	; 0x22
 80047fa:	f5a3 537f 	sub.w	r3, r3, #16320	; 0x3fc0
 80047fe:	3b3f      	subs	r3, #63	; 0x3f
 8004800:	b21b      	sxth	r3, r3
 8004802:	8083      	strh	r3, [r0, #4]
 8004804:	2200      	movs	r2, #0
 8004806:	f890 4026 	ldrb.w	r4, [r0, #38]	; 0x26
 800480a:	f880 204e 	strb.w	r2, [r0, #78]	; 0x4e
 800480e:	f8a0 30aa 	strh.w	r3, [r0, #170]	; 0xaa
 8004812:	f8d0 10b8 	ldr.w	r1, [r0, #184]	; 0xb8
 8004816:	f880 204c 	strb.w	r2, [r0, #76]	; 0x4c
 800481a:	b16c      	cbz	r4, 8004838 <HALL_TIMx_UP_IRQHandler+0x104>
 800481c:	1e62      	subs	r2, r4, #1
 800481e:	b2d3      	uxtb	r3, r2
 8004820:	f100 0250 	add.w	r2, r0, #80	; 0x50
 8004824:	eb02 0283 	add.w	r2, r2, r3, lsl #2
 8004828:	f100 034c 	add.w	r3, r0, #76	; 0x4c
 800482c:	f843 1f04 	str.w	r1, [r3, #4]!
 8004830:	429a      	cmp	r2, r3
 8004832:	d1fb      	bne.n	800482c <HALL_TIMx_UP_IRQHandler+0xf8>
 8004834:	fb01 f404 	mul.w	r4, r1, r4
 8004838:	2300      	movs	r3, #0
 800483a:	f880 304d 	strb.w	r3, [r0, #77]	; 0x4d
 800483e:	f880 3098 	strb.w	r3, [r0, #152]	; 0x98
 8004842:	f8c0 409c 	str.w	r4, [r0, #156]	; 0x9c
 8004846:	f8a0 30a4 	strh.w	r3, [r0, #164]	; 0xa4
 800484a:	bcf0      	pop	{r4, r5, r6, r7}
 800484c:	2000      	movs	r0, #0
 800484e:	4770      	bx	lr
 8004850:	8c43      	ldrh	r3, [r0, #34]	; 0x22
 8004852:	f503 53aa 	add.w	r3, r3, #5440	; 0x1540
 8004856:	3315      	adds	r3, #21
 8004858:	b21b      	sxth	r3, r3
 800485a:	8083      	strh	r3, [r0, #4]
 800485c:	e7d2      	b.n	8004804 <HALL_TIMx_UP_IRQHandler+0xd0>
 800485e:	8c43      	ldrh	r3, [r0, #34]	; 0x22
 8004860:	f5a3 53aa 	sub.w	r3, r3, #5440	; 0x1540
 8004864:	3b15      	subs	r3, #21
 8004866:	b21b      	sxth	r3, r3
 8004868:	8083      	strh	r3, [r0, #4]
 800486a:	e7cb      	b.n	8004804 <HALL_TIMx_UP_IRQHandler+0xd0>
 800486c:	8c43      	ldrh	r3, [r0, #34]	; 0x22
 800486e:	f503 43d5 	add.w	r3, r3, #27264	; 0x6a80
 8004872:	332a      	adds	r3, #42	; 0x2a
 8004874:	b21b      	sxth	r3, r3
 8004876:	8083      	strh	r3, [r0, #4]
 8004878:	e7c4      	b.n	8004804 <HALL_TIMx_UP_IRQHandler+0xd0>
 800487a:	8c43      	ldrh	r3, [r0, #34]	; 0x22
 800487c:	f5a3 43d5 	sub.w	r3, r3, #27264	; 0x6a80
 8004880:	3b2a      	subs	r3, #42	; 0x2a
 8004882:	b21b      	sxth	r3, r3
 8004884:	8083      	strh	r3, [r0, #4]
 8004886:	e7bd      	b.n	8004804 <HALL_TIMx_UP_IRQHandler+0xd0>
 8004888:	8c43      	ldrh	r3, [r0, #34]	; 0x22
 800488a:	f503 537f 	add.w	r3, r3, #16320	; 0x3fc0
 800488e:	333f      	adds	r3, #63	; 0x3f
 8004890:	b21b      	sxth	r3, r3
 8004892:	8083      	strh	r3, [r0, #4]
 8004894:	e7b6      	b.n	8004804 <HALL_TIMx_UP_IRQHandler+0xd0>
 8004896:	2200      	movs	r2, #0
 8004898:	f9b0 3004 	ldrsh.w	r3, [r0, #4]
 800489c:	f880 2049 	strb.w	r2, [r0, #73]	; 0x49
 80048a0:	e7b0      	b.n	8004804 <HALL_TIMx_UP_IRQHandler+0xd0>
 80048a2:	bf00      	nop

080048a4 <MPM_Clear>:
 80048a4:	f44f 7280 	mov.w	r2, #256	; 0x100
 80048a8:	b508      	push	{r3, lr}
 80048aa:	2100      	movs	r1, #0
 80048ac:	f001 fa8e 	bl	8005dcc <memset>
 80048b0:	2200      	movs	r2, #0
 80048b2:	f8c0 2100 	str.w	r2, [r0, #256]	; 0x100
 80048b6:	bd08      	pop	{r3, pc}

080048b8 <MPM_CalcElMotorPower>:
 80048b8:	f8b0 2100 	ldrh.w	r2, [r0, #256]	; 0x100
 80048bc:	b430      	push	{r4, r5}
 80048be:	1c53      	adds	r3, r2, #1
 80048c0:	b29b      	uxth	r3, r3
 80048c2:	2b7f      	cmp	r3, #127	; 0x7f
 80048c4:	bf88      	it	hi
 80048c6:	2300      	movhi	r3, #0
 80048c8:	f820 1012 	strh.w	r1, [r0, r2, lsl #1]
 80048cc:	f8a0 2102 	strh.w	r2, [r0, #258]	; 0x102
 80048d0:	2200      	movs	r2, #0
 80048d2:	f8a0 3100 	strh.w	r3, [r0, #256]	; 0x100
 80048d6:	f100 05fe 	add.w	r5, r0, #254	; 0xfe
 80048da:	1e83      	subs	r3, r0, #2
 80048dc:	f933 4f02 	ldrsh.w	r4, [r3, #2]!
 80048e0:	42ab      	cmp	r3, r5
 80048e2:	4422      	add	r2, r4
 80048e4:	d1fa      	bne.n	80048dc <MPM_CalcElMotorPower+0x24>
 80048e6:	2a00      	cmp	r2, #0
 80048e8:	bfb8      	it	lt
 80048ea:	327f      	addlt	r2, #127	; 0x7f
 80048ec:	11d2      	asrs	r2, r2, #7
 80048ee:	f8a0 2104 	strh.w	r2, [r0, #260]	; 0x104
 80048f2:	bc30      	pop	{r4, r5}
 80048f4:	4608      	mov	r0, r1
 80048f6:	4770      	bx	lr

080048f8 <MPM_GetAvrgElMotorPowerW>:
 80048f8:	f9b0 0104 	ldrsh.w	r0, [r0, #260]	; 0x104
 80048fc:	4770      	bx	lr
 80048fe:	bf00      	nop

08004900 <NTC_SetFaultState>:
 8004900:	8a03      	ldrh	r3, [r0, #16]
 8004902:	8b42      	ldrh	r2, [r0, #26]
 8004904:	429a      	cmp	r2, r3
 8004906:	d306      	bcc.n	8004916 <NTC_SetFaultState+0x16>
 8004908:	8b82      	ldrh	r2, [r0, #28]
 800490a:	429a      	cmp	r2, r3
 800490c:	d801      	bhi.n	8004912 <NTC_SetFaultState+0x12>
 800490e:	8ac0      	ldrh	r0, [r0, #22]
 8004910:	4770      	bx	lr
 8004912:	2000      	movs	r0, #0
 8004914:	4770      	bx	lr
 8004916:	2008      	movs	r0, #8
 8004918:	4770      	bx	lr
 800491a:	bf00      	nop

0800491c <NTC_Clear>:
 800491c:	2300      	movs	r3, #0
 800491e:	8203      	strh	r3, [r0, #16]
 8004920:	4770      	bx	lr
 8004922:	bf00      	nop

08004924 <NTC_Init>:
 8004924:	7803      	ldrb	r3, [r0, #0]
 8004926:	b123      	cbz	r3, 8004932 <NTC_Init+0xe>
 8004928:	2200      	movs	r2, #0
 800492a:	8a43      	ldrh	r3, [r0, #18]
 800492c:	82c2      	strh	r2, [r0, #22]
 800492e:	8203      	strh	r3, [r0, #16]
 8004930:	4770      	bx	lr
 8004932:	b510      	push	{r4, lr}
 8004934:	4604      	mov	r4, r0
 8004936:	3004      	adds	r0, #4
 8004938:	f7fc ff5e 	bl	80017f8 <RCM_RegisterRegConv>
 800493c:	f884 0026 	strb.w	r0, [r4, #38]	; 0x26
 8004940:	4620      	mov	r0, r4
 8004942:	f7ff ffeb 	bl	800491c <NTC_Clear>
 8004946:	bd10      	pop	{r4, pc}

08004948 <NTC_CalcAvTemp>:
 8004948:	7802      	ldrb	r2, [r0, #0]
 800494a:	b510      	push	{r4, lr}
 800494c:	4604      	mov	r4, r0
 800494e:	b11a      	cbz	r2, 8004958 <NTC_CalcAvTemp+0x10>
 8004950:	2200      	movs	r2, #0
 8004952:	4610      	mov	r0, r2
 8004954:	82e2      	strh	r2, [r4, #22]
 8004956:	bd10      	pop	{r4, pc}
 8004958:	f890 0026 	ldrb.w	r0, [r0, #38]	; 0x26
 800495c:	f7fd f80c 	bl	8001978 <RCM_ExecRegularConv>
 8004960:	f64f 73ff 	movw	r3, #65535	; 0xffff
 8004964:	4298      	cmp	r0, r3
 8004966:	d007      	beq.n	8004978 <NTC_CalcAvTemp+0x30>
 8004968:	8b22      	ldrh	r2, [r4, #24]
 800496a:	8a23      	ldrh	r3, [r4, #16]
 800496c:	1e51      	subs	r1, r2, #1
 800496e:	fb01 0003 	mla	r0, r1, r3, r0
 8004972:	fbb0 f0f2 	udiv	r0, r0, r2
 8004976:	8220      	strh	r0, [r4, #16]
 8004978:	4620      	mov	r0, r4
 800497a:	f7ff ffc1 	bl	8004900 <NTC_SetFaultState>
 800497e:	82e0      	strh	r0, [r4, #22]
 8004980:	bd10      	pop	{r4, pc}
 8004982:	bf00      	nop

08004984 <NTC_GetAvTemp_C>:
 8004984:	7803      	ldrb	r3, [r0, #0]
 8004986:	b113      	cbz	r3, 800498e <NTC_GetAvTemp_C+0xa>
 8004988:	8a80      	ldrh	r0, [r0, #20]
 800498a:	b200      	sxth	r0, r0
 800498c:	4770      	bx	lr
 800498e:	8a03      	ldrh	r3, [r0, #16]
 8004990:	6a01      	ldr	r1, [r0, #32]
 8004992:	f9b0 201e 	ldrsh.w	r2, [r0, #30]
 8004996:	1a5b      	subs	r3, r3, r1
 8004998:	fb03 f302 	mul.w	r3, r3, r2
 800499c:	2b00      	cmp	r3, #0
 800499e:	bfb8      	it	lt
 80049a0:	f503 437f 	addlt.w	r3, r3, #65280	; 0xff00
 80049a4:	8c80      	ldrh	r0, [r0, #36]	; 0x24
 80049a6:	bfb8      	it	lt
 80049a8:	33ff      	addlt	r3, #255	; 0xff
 80049aa:	eb00 4023 	add.w	r0, r0, r3, asr #16
 80049ae:	b200      	sxth	r0, r0
 80049b0:	4770      	bx	lr
 80049b2:	bf00      	nop

080049b4 <PID_HandleInit>:
 80049b4:	2300      	movs	r3, #0
 80049b6:	6801      	ldr	r1, [r0, #0]
 80049b8:	8c02      	ldrh	r2, [r0, #32]
 80049ba:	6041      	str	r1, [r0, #4]
 80049bc:	8442      	strh	r2, [r0, #34]	; 0x22
 80049be:	6083      	str	r3, [r0, #8]
 80049c0:	6283      	str	r3, [r0, #40]	; 0x28
 80049c2:	4770      	bx	lr

080049c4 <PID_SetKP>:
 80049c4:	8081      	strh	r1, [r0, #4]
 80049c6:	4770      	bx	lr

080049c8 <PID_SetKI>:
 80049c8:	80c1      	strh	r1, [r0, #6]
 80049ca:	4770      	bx	lr

080049cc <PID_GetKP>:
 80049cc:	f9b0 0004 	ldrsh.w	r0, [r0, #4]
 80049d0:	4770      	bx	lr
 80049d2:	bf00      	nop

080049d4 <PID_GetKI>:
 80049d4:	f9b0 0006 	ldrsh.w	r0, [r0, #6]
 80049d8:	4770      	bx	lr
 80049da:	bf00      	nop

080049dc <PID_SetIntegralTerm>:
 80049dc:	6081      	str	r1, [r0, #8]
 80049de:	4770      	bx	lr

080049e0 <PID_GetKPDivisor>:
 80049e0:	8b00      	ldrh	r0, [r0, #24]
 80049e2:	4770      	bx	lr

080049e4 <PID_GetKIDivisor>:
 80049e4:	8b40      	ldrh	r0, [r0, #26]
 80049e6:	4770      	bx	lr

080049e8 <PID_SetKD>:
 80049e8:	8441      	strh	r1, [r0, #34]	; 0x22
 80049ea:	4770      	bx	lr

080049ec <PID_GetKD>:
 80049ec:	f9b0 0022 	ldrsh.w	r0, [r0, #34]	; 0x22
 80049f0:	4770      	bx	lr
 80049f2:	bf00      	nop

080049f4 <PI_Controller>:
 80049f4:	b4f0      	push	{r4, r5, r6, r7}
 80049f6:	f9b0 2004 	ldrsh.w	r2, [r0, #4]
 80049fa:	f9b0 4006 	ldrsh.w	r4, [r0, #6]
 80049fe:	fb01 f202 	mul.w	r2, r1, r2
 8004a02:	f9b0 5014 	ldrsh.w	r5, [r0, #20]
 8004a06:	f9b0 6016 	ldrsh.w	r6, [r0, #22]
 8004a0a:	b18c      	cbz	r4, 8004a30 <PI_Controller+0x3c>
 8004a0c:	fb01 f104 	mul.w	r1, r1, r4
 8004a10:	e9d0 3402 	ldrd	r3, r4, [r0, #8]
 8004a14:	185f      	adds	r7, r3, r1
 8004a16:	d423      	bmi.n	8004a60 <PI_Controller+0x6c>
 8004a18:	2b00      	cmp	r3, #0
 8004a1a:	da04      	bge.n	8004a26 <PI_Controller+0x32>
 8004a1c:	4b16      	ldr	r3, [pc, #88]	; (8004a78 <PI_Controller+0x84>)
 8004a1e:	ea37 0721 	bics.w	r7, r7, r1, asr #32
 8004a22:	bf28      	it	cs
 8004a24:	461f      	movcs	r7, r3
 8004a26:	42a7      	cmp	r7, r4
 8004a28:	dc02      	bgt.n	8004a30 <PI_Controller+0x3c>
 8004a2a:	6904      	ldr	r4, [r0, #16]
 8004a2c:	42bc      	cmp	r4, r7
 8004a2e:	dd20      	ble.n	8004a72 <PI_Controller+0x7e>
 8004a30:	8b81      	ldrh	r1, [r0, #28]
 8004a32:	8bc3      	ldrh	r3, [r0, #30]
 8004a34:	410a      	asrs	r2, r1
 8004a36:	fa44 f303 	asr.w	r3, r4, r3
 8004a3a:	4413      	add	r3, r2
 8004a3c:	429d      	cmp	r5, r3
 8004a3e:	db08      	blt.n	8004a52 <PI_Controller+0x5e>
 8004a40:	429e      	cmp	r6, r3
 8004a42:	dd02      	ble.n	8004a4a <PI_Controller+0x56>
 8004a44:	1af2      	subs	r2, r6, r3
 8004a46:	4633      	mov	r3, r6
 8004a48:	4414      	add	r4, r2
 8004a4a:	6084      	str	r4, [r0, #8]
 8004a4c:	b218      	sxth	r0, r3
 8004a4e:	bcf0      	pop	{r4, r5, r6, r7}
 8004a50:	4770      	bx	lr
 8004a52:	1aeb      	subs	r3, r5, r3
 8004a54:	441c      	add	r4, r3
 8004a56:	462b      	mov	r3, r5
 8004a58:	6084      	str	r4, [r0, #8]
 8004a5a:	b218      	sxth	r0, r3
 8004a5c:	bcf0      	pop	{r4, r5, r6, r7}
 8004a5e:	4770      	bx	lr
 8004a60:	2b00      	cmp	r3, #0
 8004a62:	dde0      	ble.n	8004a26 <PI_Controller+0x32>
 8004a64:	2900      	cmp	r1, #0
 8004a66:	ddde      	ble.n	8004a26 <PI_Controller+0x32>
 8004a68:	f06f 4300 	mvn.w	r3, #2147483648	; 0x80000000
 8004a6c:	429c      	cmp	r4, r3
 8004a6e:	d1df      	bne.n	8004a30 <PI_Controller+0x3c>
 8004a70:	4627      	mov	r7, r4
 8004a72:	463c      	mov	r4, r7
 8004a74:	e7dc      	b.n	8004a30 <PI_Controller+0x3c>
 8004a76:	bf00      	nop
 8004a78:	80000001 	.word	0x80000001

08004a7c <PQD_CalcElMotorPower>:
 8004a7c:	b570      	push	{r4, r5, r6, lr}
 8004a7e:	4605      	mov	r5, r0
 8004a80:	f8d0 110c 	ldr.w	r1, [r0, #268]	; 0x10c
 8004a84:	f8d0 0110 	ldr.w	r0, [r0, #272]	; 0x110
 8004a88:	f9b1 300e 	ldrsh.w	r3, [r1, #14]
 8004a8c:	f9b1 4018 	ldrsh.w	r4, [r1, #24]
 8004a90:	f9b1 200c 	ldrsh.w	r2, [r1, #12]
 8004a94:	fb04 f403 	mul.w	r4, r4, r3
 8004a98:	f9b1 3016 	ldrsh.w	r3, [r1, #22]
 8004a9c:	f8d5 6108 	ldr.w	r6, [r5, #264]	; 0x108
 8004aa0:	fb03 4402 	mla	r4, r3, r2, r4
 8004aa4:	f7ff fa98 	bl	8003fd8 <VBS_GetAvBusVoltage_V>
 8004aa8:	fb06 f000 	mul.w	r0, r6, r0
 8004aac:	490d      	ldr	r1, [pc, #52]	; (8004ae4 <PQD_CalcElMotorPower+0x68>)
 8004aae:	17c3      	asrs	r3, r0, #31
 8004ab0:	fb81 1000 	smull	r1, r0, r1, r0
 8004ab4:	1e22      	subs	r2, r4, #0
 8004ab6:	bfbc      	itt	lt
 8004ab8:	f502 427f 	addlt.w	r2, r2, #65280	; 0xff00
 8004abc:	32ff      	addlt	r2, #255	; 0xff
 8004abe:	1412      	asrs	r2, r2, #16
 8004ac0:	ebc3 13a0 	rsb	r3, r3, r0, asr #6
 8004ac4:	fb03 f302 	mul.w	r3, r3, r2
 8004ac8:	4907      	ldr	r1, [pc, #28]	; (8004ae8 <PQD_CalcElMotorPower+0x6c>)
 8004aca:	eb03 0343 	add.w	r3, r3, r3, lsl #1
 8004ace:	005b      	lsls	r3, r3, #1
 8004ad0:	fb81 2103 	smull	r2, r1, r1, r3
 8004ad4:	17db      	asrs	r3, r3, #31
 8004ad6:	4628      	mov	r0, r5
 8004ad8:	e8bd 4070 	ldmia.w	sp!, {r4, r5, r6, lr}
 8004adc:	ebc3 41a1 	rsb	r1, r3, r1, asr #18
 8004ae0:	f7ff beea 	b.w	80048b8 <MPM_CalcElMotorPower>
 8004ae4:	1b4e81b5 	.word	0x1b4e81b5
 8004ae8:	66666667 	.word	0x66666667

08004aec <startTimers>:
 8004aec:	4b17      	ldr	r3, [pc, #92]	; (8004b4c <startTimers+0x60>)
 8004aee:	69da      	ldr	r2, [r3, #28]
 8004af0:	07d2      	lsls	r2, r2, #31
 8004af2:	d514      	bpl.n	8004b1e <startTimers+0x32>
 8004af4:	f04f 4380 	mov.w	r3, #1073741824	; 0x40000000
 8004af8:	685a      	ldr	r2, [r3, #4]
 8004afa:	6859      	ldr	r1, [r3, #4]
 8004afc:	f002 0270 	and.w	r2, r2, #112	; 0x70
 8004b00:	f021 0170 	bic.w	r1, r1, #112	; 0x70
 8004b04:	f041 0120 	orr.w	r1, r1, #32
 8004b08:	6059      	str	r1, [r3, #4]
 8004b0a:	6959      	ldr	r1, [r3, #20]
 8004b0c:	f041 0101 	orr.w	r1, r1, #1
 8004b10:	6159      	str	r1, [r3, #20]
 8004b12:	6859      	ldr	r1, [r3, #4]
 8004b14:	f021 0170 	bic.w	r1, r1, #112	; 0x70
 8004b18:	430a      	orrs	r2, r1
 8004b1a:	605a      	str	r2, [r3, #4]
 8004b1c:	4770      	bx	lr
 8004b1e:	f04f 4180 	mov.w	r1, #1073741824	; 0x40000000
 8004b22:	69da      	ldr	r2, [r3, #28]
 8004b24:	b082      	sub	sp, #8
 8004b26:	f042 0201 	orr.w	r2, r2, #1
 8004b2a:	61da      	str	r2, [r3, #28]
 8004b2c:	69da      	ldr	r2, [r3, #28]
 8004b2e:	f002 0201 	and.w	r2, r2, #1
 8004b32:	9201      	str	r2, [sp, #4]
 8004b34:	9a01      	ldr	r2, [sp, #4]
 8004b36:	694a      	ldr	r2, [r1, #20]
 8004b38:	f042 0201 	orr.w	r2, r2, #1
 8004b3c:	614a      	str	r2, [r1, #20]
 8004b3e:	69da      	ldr	r2, [r3, #28]
 8004b40:	f022 0201 	bic.w	r2, r2, #1
 8004b44:	61da      	str	r2, [r3, #28]
 8004b46:	b002      	add	sp, #8
 8004b48:	4770      	bx	lr
 8004b4a:	bf00      	nop
 8004b4c:	40021000 	.word	0x40021000

08004b50 <waitForPolarizationEnd>:
 8004b50:	b470      	push	{r4, r5, r6}
 8004b52:	f06f 0602 	mvn.w	r6, #2
 8004b56:	6804      	ldr	r4, [r0, #0]
 8004b58:	3201      	adds	r2, #1
 8004b5a:	f004 0460 	and.w	r4, r4, #96	; 0x60
 8004b5e:	2c60      	cmp	r4, #96	; 0x60
 8004b60:	bf18      	it	ne
 8004b62:	0852      	lsrne	r2, r2, #1
 8004b64:	0155      	lsls	r5, r2, #5
 8004b66:	2400      	movs	r4, #0
 8004b68:	6106      	str	r6, [r0, #16]
 8004b6a:	e002      	b.n	8004b72 <waitForPolarizationEnd+0x22>
 8004b6c:	6902      	ldr	r2, [r0, #16]
 8004b6e:	0792      	lsls	r2, r2, #30
 8004b70:	d404      	bmi.n	8004b7c <waitForPolarizationEnd+0x2c>
 8004b72:	781a      	ldrb	r2, [r3, #0]
 8004b74:	2a0f      	cmp	r2, #15
 8004b76:	d9f9      	bls.n	8004b6c <waitForPolarizationEnd+0x1c>
 8004b78:	bc70      	pop	{r4, r5, r6}
 8004b7a:	4770      	bx	lr
 8004b7c:	3401      	adds	r4, #1
 8004b7e:	b2a4      	uxth	r4, r4
 8004b80:	42a5      	cmp	r5, r4
 8004b82:	6106      	str	r6, [r0, #16]
 8004b84:	d8f5      	bhi.n	8004b72 <waitForPolarizationEnd+0x22>
 8004b86:	781a      	ldrb	r2, [r3, #0]
 8004b88:	2a0f      	cmp	r2, #15
 8004b8a:	d8f2      	bhi.n	8004b72 <waitForPolarizationEnd+0x22>
 8004b8c:	2301      	movs	r3, #1
 8004b8e:	800b      	strh	r3, [r1, #0]
 8004b90:	e7f2      	b.n	8004b78 <waitForPolarizationEnd+0x28>
 8004b92:	bf00      	nop

08004b94 <PWMC_GetPhaseCurrents>:
 8004b94:	6843      	ldr	r3, [r0, #4]
 8004b96:	4718      	bx	r3

08004b98 <PWMC_SetPhaseVoltage>:
 8004b98:	b4f0      	push	{r4, r5, r6, r7}
 8004b9a:	f8b0 7050 	ldrh.w	r7, [r0, #80]	; 0x50
 8004b9e:	140c      	asrs	r4, r1, #16
 8004ba0:	8e03      	ldrh	r3, [r0, #48]	; 0x30
 8004ba2:	fb07 f404 	mul.w	r4, r7, r4
 8004ba6:	b20a      	sxth	r2, r1
 8004ba8:	fb03 f302 	mul.w	r3, r3, r2
 8004bac:	ebc4 74c4 	rsb	r4, r4, r4, lsl #31
 8004bb0:	0064      	lsls	r4, r4, #1
 8004bb2:	1ae2      	subs	r2, r4, r3
 8004bb4:	4423      	add	r3, r4
 8004bb6:	eb03 75d3 	add.w	r5, r3, r3, lsr #31
 8004bba:	b082      	sub	sp, #8
 8004bbc:	eb02 76d2 	add.w	r6, r2, r2, lsr #31
 8004bc0:	106d      	asrs	r5, r5, #1
 8004bc2:	9101      	str	r1, [sp, #4]
 8004bc4:	ea4f 0666 	mov.w	r6, r6, asr #1
 8004bc8:	ea4f 0197 	mov.w	r1, r7, lsr #2
 8004bcc:	d46c      	bmi.n	8004ca8 <PWMC_SetPhaseVoltage+0x110>
 8004bce:	2e00      	cmp	r6, #0
 8004bd0:	db4c      	blt.n	8004c6c <PWMC_SetPhaseVoltage+0xd4>
 8004bd2:	2401      	movs	r4, #1
 8004bd4:	1bad      	subs	r5, r5, r6
 8004bd6:	bf44      	itt	mi
 8004bd8:	f505 357f 	addmi.w	r5, r5, #261120	; 0x3fc00
 8004bdc:	f205 35ff 	addwmi	r5, r5, #1023	; 0x3ff
 8004be0:	2a00      	cmp	r2, #0
 8004be2:	bfbc      	itt	lt
 8004be4:	f502 327f 	addlt.w	r2, r2, #261120	; 0x3fc00
 8004be8:	f202 32ff 	addwlt	r2, r2, #1023	; 0x3ff
 8004bec:	2b00      	cmp	r3, #0
 8004bee:	bfb8      	it	lt
 8004bf0:	f503 337f 	addlt.w	r3, r3, #261120	; 0x3fc00
 8004bf4:	eb01 41a5 	add.w	r1, r1, r5, asr #18
 8004bf8:	bfb8      	it	lt
 8004bfa:	f203 33ff 	addwlt	r3, r3, #1023	; 0x3ff
 8004bfe:	eb01 42a2 	add.w	r2, r1, r2, asr #18
 8004c02:	eba1 43a3 	sub.w	r3, r1, r3, asr #18
 8004c06:	f880 403a 	strb.w	r4, [r0, #58]	; 0x3a
 8004c0a:	f8a0 3040 	strh.w	r3, [r0, #64]	; 0x40
 8004c0e:	8782      	strh	r2, [r0, #60]	; 0x3c
 8004c10:	87c1      	strh	r1, [r0, #62]	; 0x3e
 8004c12:	f8b0 404e 	ldrh.w	r4, [r0, #78]	; 0x4e
 8004c16:	ea21 71e1 	bic.w	r1, r1, r1, asr #31
 8004c1a:	ea22 72e2 	bic.w	r2, r2, r2, asr #31
 8004c1e:	ea23 73e3 	bic.w	r3, r3, r3, asr #31
 8004c22:	b289      	uxth	r1, r1
 8004c24:	b292      	uxth	r2, r2
 8004c26:	b29b      	uxth	r3, r3
 8004c28:	2c01      	cmp	r4, #1
 8004c2a:	8641      	strh	r1, [r0, #50]	; 0x32
 8004c2c:	8682      	strh	r2, [r0, #52]	; 0x34
 8004c2e:	86c3      	strh	r3, [r0, #54]	; 0x36
 8004c30:	d118      	bne.n	8004c64 <PWMC_SetPhaseVoltage+0xcc>
 8004c32:	f9b0 5048 	ldrsh.w	r5, [r0, #72]	; 0x48
 8004c36:	f8b0 4054 	ldrh.w	r4, [r0, #84]	; 0x54
 8004c3a:	2d00      	cmp	r5, #0
 8004c3c:	bfcc      	ite	gt
 8004c3e:	1909      	addgt	r1, r1, r4
 8004c40:	1b09      	suble	r1, r1, r4
 8004c42:	b289      	uxth	r1, r1
 8004c44:	f9b0 504a 	ldrsh.w	r5, [r0, #74]	; 0x4a
 8004c48:	8641      	strh	r1, [r0, #50]	; 0x32
 8004c4a:	f9b0 104c 	ldrsh.w	r1, [r0, #76]	; 0x4c
 8004c4e:	2d00      	cmp	r5, #0
 8004c50:	bfcc      	ite	gt
 8004c52:	1912      	addgt	r2, r2, r4
 8004c54:	1b12      	suble	r2, r2, r4
 8004c56:	2900      	cmp	r1, #0
 8004c58:	b292      	uxth	r2, r2
 8004c5a:	bfcc      	ite	gt
 8004c5c:	191b      	addgt	r3, r3, r4
 8004c5e:	1b1b      	suble	r3, r3, r4
 8004c60:	8682      	strh	r2, [r0, #52]	; 0x34
 8004c62:	86c3      	strh	r3, [r0, #54]	; 0x36
 8004c64:	6983      	ldr	r3, [r0, #24]
 8004c66:	b002      	add	sp, #8
 8004c68:	bcf0      	pop	{r4, r5, r6, r7}
 8004c6a:	4718      	bx	r3
 8004c6c:	2c00      	cmp	r4, #0
 8004c6e:	dd3a      	ble.n	8004ce6 <PWMC_SetPhaseVoltage+0x14e>
 8004c70:	2300      	movs	r3, #0
 8004c72:	2a00      	cmp	r2, #0
 8004c74:	bfbc      	itt	lt
 8004c76:	f502 327f 	addlt.w	r2, r2, #261120	; 0x3fc00
 8004c7a:	f202 32ff 	addwlt	r2, r2, #1023	; 0x3ff
 8004c7e:	1ba5      	subs	r5, r4, r6
 8004c80:	f880 303a 	strb.w	r3, [r0, #58]	; 0x3a
 8004c84:	1e23      	subs	r3, r4, #0
 8004c86:	eb01 41a5 	add.w	r1, r1, r5, asr #18
 8004c8a:	bfb8      	it	lt
 8004c8c:	f503 33ff 	addlt.w	r3, r3, #130560	; 0x1fe00
 8004c90:	eb01 42a2 	add.w	r2, r1, r2, asr #18
 8004c94:	bfb8      	it	lt
 8004c96:	f203 13ff 	addwlt	r3, r3, #511	; 0x1ff
 8004c9a:	eba2 4363 	sub.w	r3, r2, r3, asr #17
 8004c9e:	f8a0 3040 	strh.w	r3, [r0, #64]	; 0x40
 8004ca2:	8781      	strh	r1, [r0, #60]	; 0x3c
 8004ca4:	87c2      	strh	r2, [r0, #62]	; 0x3e
 8004ca6:	e7b4      	b.n	8004c12 <PWMC_SetPhaseVoltage+0x7a>
 8004ca8:	2e00      	cmp	r6, #0
 8004caa:	db59      	blt.n	8004d60 <PWMC_SetPhaseVoltage+0x1c8>
 8004cac:	2c00      	cmp	r4, #0
 8004cae:	dd36      	ble.n	8004d1e <PWMC_SetPhaseVoltage+0x186>
 8004cb0:	2202      	movs	r2, #2
 8004cb2:	1b2d      	subs	r5, r5, r4
 8004cb4:	bf44      	itt	mi
 8004cb6:	f505 357f 	addmi.w	r5, r5, #261120	; 0x3fc00
 8004cba:	f205 35ff 	addwmi	r5, r5, #1023	; 0x3ff
 8004cbe:	2b00      	cmp	r3, #0
 8004cc0:	bfb8      	it	lt
 8004cc2:	f503 337f 	addlt.w	r3, r3, #261120	; 0x3fc00
 8004cc6:	eb01 41a5 	add.w	r1, r1, r5, asr #18
 8004cca:	bfb8      	it	lt
 8004ccc:	f203 33ff 	addwlt	r3, r3, #1023	; 0x3ff
 8004cd0:	eba1 43a3 	sub.w	r3, r1, r3, asr #18
 8004cd4:	f880 203a 	strb.w	r2, [r0, #58]	; 0x3a
 8004cd8:	eb03 4264 	add.w	r2, r3, r4, asr #17
 8004cdc:	8782      	strh	r2, [r0, #60]	; 0x3c
 8004cde:	87c3      	strh	r3, [r0, #62]	; 0x3e
 8004ce0:	f8a0 1040 	strh.w	r1, [r0, #64]	; 0x40
 8004ce4:	e795      	b.n	8004c12 <PWMC_SetPhaseVoltage+0x7a>
 8004ce6:	2205      	movs	r2, #5
 8004ce8:	2b00      	cmp	r3, #0
 8004cea:	bfbc      	itt	lt
 8004cec:	f503 337f 	addlt.w	r3, r3, #261120	; 0x3fc00
 8004cf0:	f203 33ff 	addwlt	r3, r3, #1023	; 0x3ff
 8004cf4:	1b2d      	subs	r5, r5, r4
 8004cf6:	f880 203a 	strb.w	r2, [r0, #58]	; 0x3a
 8004cfa:	1e22      	subs	r2, r4, #0
 8004cfc:	eb01 41a5 	add.w	r1, r1, r5, asr #18
 8004d00:	bfb8      	it	lt
 8004d02:	f502 32ff 	addlt.w	r2, r2, #130560	; 0x1fe00
 8004d06:	eba1 43a3 	sub.w	r3, r1, r3, asr #18
 8004d0a:	bfb8      	it	lt
 8004d0c:	f202 12ff 	addwlt	r2, r2, #511	; 0x1ff
 8004d10:	eb03 4262 	add.w	r2, r3, r2, asr #17
 8004d14:	f8a0 2040 	strh.w	r2, [r0, #64]	; 0x40
 8004d18:	8781      	strh	r1, [r0, #60]	; 0x3c
 8004d1a:	87c3      	strh	r3, [r0, #62]	; 0x3e
 8004d1c:	e779      	b.n	8004c12 <PWMC_SetPhaseVoltage+0x7a>
 8004d1e:	2303      	movs	r3, #3
 8004d20:	1ba5      	subs	r5, r4, r6
 8004d22:	bf44      	itt	mi
 8004d24:	f505 357f 	addmi.w	r5, r5, #261120	; 0x3fc00
 8004d28:	f205 35ff 	addwmi	r5, r5, #1023	; 0x3ff
 8004d2c:	2a00      	cmp	r2, #0
 8004d2e:	bfbc      	itt	lt
 8004d30:	f502 327f 	addlt.w	r2, r2, #261120	; 0x3fc00
 8004d34:	f202 32ff 	addwlt	r2, r2, #1023	; 0x3ff
 8004d38:	f880 303a 	strb.w	r3, [r0, #58]	; 0x3a
 8004d3c:	1e23      	subs	r3, r4, #0
 8004d3e:	eb01 41a5 	add.w	r1, r1, r5, asr #18
 8004d42:	bfb8      	it	lt
 8004d44:	f503 33ff 	addlt.w	r3, r3, #130560	; 0x1fe00
 8004d48:	eb01 42a2 	add.w	r2, r1, r2, asr #18
 8004d4c:	bfb8      	it	lt
 8004d4e:	f203 13ff 	addwlt	r3, r3, #511	; 0x1ff
 8004d52:	eba2 4363 	sub.w	r3, r2, r3, asr #17
 8004d56:	8783      	strh	r3, [r0, #60]	; 0x3c
 8004d58:	87c2      	strh	r2, [r0, #62]	; 0x3e
 8004d5a:	f8a0 1040 	strh.w	r1, [r0, #64]	; 0x40
 8004d5e:	e758      	b.n	8004c12 <PWMC_SetPhaseVoltage+0x7a>
 8004d60:	2404      	movs	r4, #4
 8004d62:	1bad      	subs	r5, r5, r6
 8004d64:	bf44      	itt	mi
 8004d66:	f505 357f 	addmi.w	r5, r5, #261120	; 0x3fc00
 8004d6a:	f205 35ff 	addwmi	r5, r5, #1023	; 0x3ff
 8004d6e:	2a00      	cmp	r2, #0
 8004d70:	bfbc      	itt	lt
 8004d72:	f502 327f 	addlt.w	r2, r2, #261120	; 0x3fc00
 8004d76:	f202 32ff 	addwlt	r2, r2, #1023	; 0x3ff
 8004d7a:	2b00      	cmp	r3, #0
 8004d7c:	bfb8      	it	lt
 8004d7e:	f503 337f 	addlt.w	r3, r3, #261120	; 0x3fc00
 8004d82:	eb01 41a5 	add.w	r1, r1, r5, asr #18
 8004d86:	bfb8      	it	lt
 8004d88:	f203 33ff 	addwlt	r3, r3, #1023	; 0x3ff
 8004d8c:	eb01 42a2 	add.w	r2, r1, r2, asr #18
 8004d90:	eba1 43a3 	sub.w	r3, r1, r3, asr #18
 8004d94:	f880 403a 	strb.w	r4, [r0, #58]	; 0x3a
 8004d98:	8783      	strh	r3, [r0, #60]	; 0x3c
 8004d9a:	87c1      	strh	r1, [r0, #62]	; 0x3e
 8004d9c:	f8a0 2040 	strh.w	r2, [r0, #64]	; 0x40
 8004da0:	e737      	b.n	8004c12 <PWMC_SetPhaseVoltage+0x7a>
 8004da2:	bf00      	nop

08004da4 <PWMC_SwitchOffPWM>:
 8004da4:	6883      	ldr	r3, [r0, #8]
 8004da6:	4718      	bx	r3

08004da8 <PWMC_CurrentReadingCalibr>:
 8004da8:	b510      	push	{r4, lr}
 8004daa:	4604      	mov	r4, r0
 8004dac:	b082      	sub	sp, #8
 8004dae:	b1a1      	cbz	r1, 8004dda <PWMC_CurrentReadingCalibr+0x32>
 8004db0:	2901      	cmp	r1, #1
 8004db2:	d002      	beq.n	8004dba <PWMC_CurrentReadingCalibr+0x12>
 8004db4:	2000      	movs	r0, #0
 8004db6:	b002      	add	sp, #8
 8004db8:	bd10      	pop	{r4, pc}
 8004dba:	f8b0 3044 	ldrh.w	r3, [r0, #68]	; 0x44
 8004dbe:	b1d3      	cbz	r3, 8004df6 <PWMC_CurrentReadingCalibr+0x4e>
 8004dc0:	3b01      	subs	r3, #1
 8004dc2:	b29b      	uxth	r3, r3
 8004dc4:	9101      	str	r1, [sp, #4]
 8004dc6:	f8a0 3044 	strh.w	r3, [r0, #68]	; 0x44
 8004dca:	2b00      	cmp	r3, #0
 8004dcc:	d1f2      	bne.n	8004db4 <PWMC_CurrentReadingCalibr+0xc>
 8004dce:	6903      	ldr	r3, [r0, #16]
 8004dd0:	4798      	blx	r3
 8004dd2:	9901      	ldr	r1, [sp, #4]
 8004dd4:	4608      	mov	r0, r1
 8004dd6:	b002      	add	sp, #8
 8004dd8:	bd10      	pop	{r4, pc}
 8004dda:	f7ff ffe3 	bl	8004da4 <PWMC_SwitchOffPWM>
 8004dde:	f8b4 3052 	ldrh.w	r3, [r4, #82]	; 0x52
 8004de2:	f8a4 3044 	strh.w	r3, [r4, #68]	; 0x44
 8004de6:	2b00      	cmp	r3, #0
 8004de8:	d1e4      	bne.n	8004db4 <PWMC_CurrentReadingCalibr+0xc>
 8004dea:	4620      	mov	r0, r4
 8004dec:	6923      	ldr	r3, [r4, #16]
 8004dee:	4798      	blx	r3
 8004df0:	2001      	movs	r0, #1
 8004df2:	b002      	add	sp, #8
 8004df4:	bd10      	pop	{r4, pc}
 8004df6:	4608      	mov	r0, r1
 8004df8:	b002      	add	sp, #8
 8004dfa:	bd10      	pop	{r4, pc}

08004dfc <PWMC_CheckOverCurrent>:
 8004dfc:	69c3      	ldr	r3, [r0, #28]
 8004dfe:	4718      	bx	r3

08004e00 <R3_2_GetPhaseCurrents>:
 8004e00:	6f43      	ldr	r3, [r0, #116]	; 0x74
 8004e02:	b4f0      	push	{r4, r5, r6, r7}
 8004e04:	689c      	ldr	r4, [r3, #8]
 8004e06:	6a22      	ldr	r2, [r4, #32]
 8004e08:	f422 5280 	bic.w	r2, r2, #4096	; 0x1000
 8004e0c:	6222      	str	r2, [r4, #32]
 8004e0e:	f890 203a 	ldrb.w	r2, [r0, #58]	; 0x3a
 8004e12:	eb03 0382 	add.w	r3, r3, r2, lsl #2
 8004e16:	6b1c      	ldr	r4, [r3, #48]	; 0x30
 8004e18:	699d      	ldr	r5, [r3, #24]
 8004e1a:	2a05      	cmp	r2, #5
 8004e1c:	682b      	ldr	r3, [r5, #0]
 8004e1e:	6824      	ldr	r4, [r4, #0]
 8004e20:	d823      	bhi.n	8004e6a <R3_2_GetPhaseCurrents+0x6a>
 8004e22:	2501      	movs	r5, #1
 8004e24:	fa05 f202 	lsl.w	r2, r5, r2
 8004e28:	40ab      	lsls	r3, r5
 8004e2a:	40ac      	lsls	r4, r5
 8004e2c:	f012 0f21 	tst.w	r2, #33	; 0x21
 8004e30:	b29b      	uxth	r3, r3
 8004e32:	b2a4      	uxth	r4, r4
 8004e34:	d129      	bne.n	8004e8a <R3_2_GetPhaseCurrents+0x8a>
 8004e36:	f012 0f06 	tst.w	r2, #6
 8004e3a:	d040      	beq.n	8004ebe <R3_2_GetPhaseCurrents+0xbe>
 8004e3c:	6dc2      	ldr	r2, [r0, #92]	; 0x5c
 8004e3e:	4d4d      	ldr	r5, [pc, #308]	; (8004f74 <R3_2_GetPhaseCurrents+0x174>)
 8004e40:	1ad2      	subs	r2, r2, r3
 8004e42:	42aa      	cmp	r2, r5
 8004e44:	da6f      	bge.n	8004f26 <R3_2_GetPhaseCurrents+0x126>
 8004e46:	462a      	mov	r2, r5
 8004e48:	462e      	mov	r6, r5
 8004e4a:	f248 0301 	movw	r3, #32769	; 0x8001
 8004e4e:	800d      	strh	r5, [r1, #0]
 8004e50:	6e45      	ldr	r5, [r0, #100]	; 0x64
 8004e52:	1b64      	subs	r4, r4, r5
 8004e54:	1aa4      	subs	r4, r4, r2
 8004e56:	f5b4 4f00 	cmp.w	r4, #32768	; 0x8000
 8004e5a:	da6d      	bge.n	8004f38 <R3_2_GetPhaseCurrents+0x138>
 8004e5c:	4f45      	ldr	r7, [pc, #276]	; (8004f74 <R3_2_GetPhaseCurrents+0x174>)
 8004e5e:	42bc      	cmp	r4, r7
 8004e60:	db76      	blt.n	8004f50 <R3_2_GetPhaseCurrents+0x150>
 8004e62:	b227      	sxth	r7, r4
 8004e64:	804f      	strh	r7, [r1, #2]
 8004e66:	b2a2      	uxth	r2, r4
 8004e68:	e005      	b.n	8004e76 <R3_2_GetPhaseCurrents+0x76>
 8004e6a:	f9b1 6000 	ldrsh.w	r6, [r1]
 8004e6e:	f9b1 7002 	ldrsh.w	r7, [r1, #2]
 8004e72:	b2b3      	uxth	r3, r6
 8004e74:	b2ba      	uxth	r2, r7
 8004e76:	4413      	add	r3, r2
 8004e78:	425b      	negs	r3, r3
 8004e7a:	f8a0 6048 	strh.w	r6, [r0, #72]	; 0x48
 8004e7e:	f8a0 704a 	strh.w	r7, [r0, #74]	; 0x4a
 8004e82:	f8a0 304c 	strh.w	r3, [r0, #76]	; 0x4c
 8004e86:	bcf0      	pop	{r4, r5, r6, r7}
 8004e88:	4770      	bx	lr
 8004e8a:	6e05      	ldr	r5, [r0, #96]	; 0x60
 8004e8c:	4a39      	ldr	r2, [pc, #228]	; (8004f74 <R3_2_GetPhaseCurrents+0x174>)
 8004e8e:	1aeb      	subs	r3, r5, r3
 8004e90:	4293      	cmp	r3, r2
 8004e92:	db34      	blt.n	8004efe <R3_2_GetPhaseCurrents+0xfe>
 8004e94:	f5b3 4f00 	cmp.w	r3, #32768	; 0x8000
 8004e98:	db41      	blt.n	8004f1e <R3_2_GetPhaseCurrents+0x11e>
 8004e9a:	f647 73ff 	movw	r3, #32767	; 0x7fff
 8004e9e:	461a      	mov	r2, r3
 8004ea0:	461f      	mov	r7, r3
 8004ea2:	804b      	strh	r3, [r1, #2]
 8004ea4:	6e45      	ldr	r5, [r0, #100]	; 0x64
 8004ea6:	1b65      	subs	r5, r4, r5
 8004ea8:	1aeb      	subs	r3, r5, r3
 8004eaa:	f5b3 4f00 	cmp.w	r3, #32768	; 0x8000
 8004eae:	da2c      	bge.n	8004f0a <R3_2_GetPhaseCurrents+0x10a>
 8004eb0:	4e30      	ldr	r6, [pc, #192]	; (8004f74 <R3_2_GetPhaseCurrents+0x174>)
 8004eb2:	42b3      	cmp	r3, r6
 8004eb4:	da2f      	bge.n	8004f16 <R3_2_GetPhaseCurrents+0x116>
 8004eb6:	800e      	strh	r6, [r1, #0]
 8004eb8:	f248 0301 	movw	r3, #32769	; 0x8001
 8004ebc:	e7db      	b.n	8004e76 <R3_2_GetPhaseCurrents+0x76>
 8004ebe:	f012 0f18 	tst.w	r2, #24
 8004ec2:	d0d2      	beq.n	8004e6a <R3_2_GetPhaseCurrents+0x6a>
 8004ec4:	6dc2      	ldr	r2, [r0, #92]	; 0x5c
 8004ec6:	f5a5 4500 	sub.w	r5, r5, #32768	; 0x8000
 8004eca:	1ad3      	subs	r3, r2, r3
 8004ecc:	42ab      	cmp	r3, r5
 8004ece:	db3d      	blt.n	8004f4c <R3_2_GetPhaseCurrents+0x14c>
 8004ed0:	f5b3 4f00 	cmp.w	r3, #32768	; 0x8000
 8004ed4:	bfa8      	it	ge
 8004ed6:	f647 73ff 	movwge	r3, #32767	; 0x7fff
 8004eda:	800b      	strh	r3, [r1, #0]
 8004edc:	6e02      	ldr	r2, [r0, #96]	; 0x60
 8004ede:	4f25      	ldr	r7, [pc, #148]	; (8004f74 <R3_2_GetPhaseCurrents+0x174>)
 8004ee0:	1b14      	subs	r4, r2, r4
 8004ee2:	42bc      	cmp	r4, r7
 8004ee4:	db38      	blt.n	8004f58 <R3_2_GetPhaseCurrents+0x158>
 8004ee6:	f5b4 4f00 	cmp.w	r4, #32768	; 0x8000
 8004eea:	db3c      	blt.n	8004f66 <R3_2_GetPhaseCurrents+0x166>
 8004eec:	f647 73ff 	movw	r3, #32767	; 0x7fff
 8004ef0:	f9b1 6000 	ldrsh.w	r6, [r1]
 8004ef4:	461a      	mov	r2, r3
 8004ef6:	804b      	strh	r3, [r1, #2]
 8004ef8:	461f      	mov	r7, r3
 8004efa:	b2b3      	uxth	r3, r6
 8004efc:	e7bb      	b.n	8004e76 <R3_2_GetPhaseCurrents+0x76>
 8004efe:	4613      	mov	r3, r2
 8004f00:	804a      	strh	r2, [r1, #2]
 8004f02:	4617      	mov	r7, r2
 8004f04:	f248 0201 	movw	r2, #32769	; 0x8001
 8004f08:	e7cc      	b.n	8004ea4 <R3_2_GetPhaseCurrents+0xa4>
 8004f0a:	f647 74ff 	movw	r4, #32767	; 0x7fff
 8004f0e:	4623      	mov	r3, r4
 8004f10:	800c      	strh	r4, [r1, #0]
 8004f12:	4626      	mov	r6, r4
 8004f14:	e7af      	b.n	8004e76 <R3_2_GetPhaseCurrents+0x76>
 8004f16:	b21e      	sxth	r6, r3
 8004f18:	800e      	strh	r6, [r1, #0]
 8004f1a:	b29b      	uxth	r3, r3
 8004f1c:	e7ab      	b.n	8004e76 <R3_2_GetPhaseCurrents+0x76>
 8004f1e:	b21f      	sxth	r7, r3
 8004f20:	804f      	strh	r7, [r1, #2]
 8004f22:	b29a      	uxth	r2, r3
 8004f24:	e7be      	b.n	8004ea4 <R3_2_GetPhaseCurrents+0xa4>
 8004f26:	f5b2 4f00 	cmp.w	r2, #32768	; 0x8000
 8004f2a:	db0b      	blt.n	8004f44 <R3_2_GetPhaseCurrents+0x144>
 8004f2c:	f647 72ff 	movw	r2, #32767	; 0x7fff
 8004f30:	4613      	mov	r3, r2
 8004f32:	800a      	strh	r2, [r1, #0]
 8004f34:	4616      	mov	r6, r2
 8004f36:	e78b      	b.n	8004e50 <R3_2_GetPhaseCurrents+0x50>
 8004f38:	f647 74ff 	movw	r4, #32767	; 0x7fff
 8004f3c:	4622      	mov	r2, r4
 8004f3e:	804c      	strh	r4, [r1, #2]
 8004f40:	4627      	mov	r7, r4
 8004f42:	e798      	b.n	8004e76 <R3_2_GetPhaseCurrents+0x76>
 8004f44:	b216      	sxth	r6, r2
 8004f46:	800e      	strh	r6, [r1, #0]
 8004f48:	b293      	uxth	r3, r2
 8004f4a:	e781      	b.n	8004e50 <R3_2_GetPhaseCurrents+0x50>
 8004f4c:	800d      	strh	r5, [r1, #0]
 8004f4e:	e7c5      	b.n	8004edc <R3_2_GetPhaseCurrents+0xdc>
 8004f50:	804f      	strh	r7, [r1, #2]
 8004f52:	f248 0201 	movw	r2, #32769	; 0x8001
 8004f56:	e78e      	b.n	8004e76 <R3_2_GetPhaseCurrents+0x76>
 8004f58:	f9b1 6000 	ldrsh.w	r6, [r1]
 8004f5c:	804f      	strh	r7, [r1, #2]
 8004f5e:	b2b3      	uxth	r3, r6
 8004f60:	f248 0201 	movw	r2, #32769	; 0x8001
 8004f64:	e787      	b.n	8004e76 <R3_2_GetPhaseCurrents+0x76>
 8004f66:	f9b1 6000 	ldrsh.w	r6, [r1]
 8004f6a:	b227      	sxth	r7, r4
 8004f6c:	b2b3      	uxth	r3, r6
 8004f6e:	804f      	strh	r7, [r1, #2]
 8004f70:	b2a2      	uxth	r2, r4
 8004f72:	e780      	b.n	8004e76 <R3_2_GetPhaseCurrents+0x76>
 8004f74:	ffff8001 	.word	0xffff8001

08004f78 <R3_2_HFCurrentsPolarizationAB>:
 8004f78:	6f43      	ldr	r3, [r0, #116]	; 0x74
 8004f7a:	b430      	push	{r4, r5}
 8004f7c:	689c      	ldr	r4, [r3, #8]
 8004f7e:	6a22      	ldr	r2, [r4, #32]
 8004f80:	f422 5280 	bic.w	r2, r2, #4096	; 0x1000
 8004f84:	6222      	str	r2, [r4, #32]
 8004f86:	f890 2070 	ldrb.w	r2, [r0, #112]	; 0x70
 8004f8a:	2a0f      	cmp	r2, #15
 8004f8c:	d813      	bhi.n	8004fb6 <R3_2_HFCurrentsPolarizationAB+0x3e>
 8004f8e:	f890 2071 	ldrb.w	r2, [r0, #113]	; 0x71
 8004f92:	6dc4      	ldr	r4, [r0, #92]	; 0x5c
 8004f94:	eb03 0382 	add.w	r3, r3, r2, lsl #2
 8004f98:	699a      	ldr	r2, [r3, #24]
 8004f9a:	6b1b      	ldr	r3, [r3, #48]	; 0x30
 8004f9c:	6815      	ldr	r5, [r2, #0]
 8004f9e:	6e02      	ldr	r2, [r0, #96]	; 0x60
 8004fa0:	442c      	add	r4, r5
 8004fa2:	65c4      	str	r4, [r0, #92]	; 0x5c
 8004fa4:	681c      	ldr	r4, [r3, #0]
 8004fa6:	f890 3070 	ldrb.w	r3, [r0, #112]	; 0x70
 8004faa:	4422      	add	r2, r4
 8004fac:	3301      	adds	r3, #1
 8004fae:	b2db      	uxtb	r3, r3
 8004fb0:	6602      	str	r2, [r0, #96]	; 0x60
 8004fb2:	f880 3070 	strb.w	r3, [r0, #112]	; 0x70
 8004fb6:	2300      	movs	r3, #0
 8004fb8:	bc30      	pop	{r4, r5}
 8004fba:	600b      	str	r3, [r1, #0]
 8004fbc:	4770      	bx	lr
 8004fbe:	bf00      	nop

08004fc0 <R3_2_HFCurrentsPolarizationC>:
 8004fc0:	b410      	push	{r4}
 8004fc2:	6f44      	ldr	r4, [r0, #116]	; 0x74
 8004fc4:	68a2      	ldr	r2, [r4, #8]
 8004fc6:	6a13      	ldr	r3, [r2, #32]
 8004fc8:	f423 5380 	bic.w	r3, r3, #4096	; 0x1000
 8004fcc:	6213      	str	r3, [r2, #32]
 8004fce:	f890 3070 	ldrb.w	r3, [r0, #112]	; 0x70
 8004fd2:	2b0f      	cmp	r3, #15
 8004fd4:	d80e      	bhi.n	8004ff4 <R3_2_HFCurrentsPolarizationC+0x34>
 8004fd6:	f890 3071 	ldrb.w	r3, [r0, #113]	; 0x71
 8004fda:	6e42      	ldr	r2, [r0, #100]	; 0x64
 8004fdc:	330c      	adds	r3, #12
 8004fde:	f854 3023 	ldr.w	r3, [r4, r3, lsl #2]
 8004fe2:	681c      	ldr	r4, [r3, #0]
 8004fe4:	f890 3070 	ldrb.w	r3, [r0, #112]	; 0x70
 8004fe8:	4422      	add	r2, r4
 8004fea:	3301      	adds	r3, #1
 8004fec:	b2db      	uxtb	r3, r3
 8004fee:	6642      	str	r2, [r0, #100]	; 0x64
 8004ff0:	f880 3070 	strb.w	r3, [r0, #112]	; 0x70
 8004ff4:	2300      	movs	r3, #0
 8004ff6:	bc10      	pop	{r4}
 8004ff8:	600b      	str	r3, [r1, #0]
 8004ffa:	4770      	bx	lr

08004ffc <R3_2_SetADCSampPointPolarization>:
 8004ffc:	4603      	mov	r3, r0
 8004ffe:	b430      	push	{r4, r5}
 8005000:	f890 0071 	ldrb.w	r0, [r0, #113]	; 0x71
 8005004:	6f5a      	ldr	r2, [r3, #116]	; 0x74
 8005006:	f883 003a 	strb.w	r0, [r3, #58]	; 0x3a
 800500a:	6892      	ldr	r2, [r2, #8]
 800500c:	f8b3 106c 	ldrh.w	r1, [r3, #108]	; 0x6c
 8005010:	8e58      	ldrh	r0, [r3, #50]	; 0x32
 8005012:	8e9d      	ldrh	r5, [r3, #52]	; 0x34
 8005014:	8edc      	ldrh	r4, [r3, #54]	; 0x36
 8005016:	3901      	subs	r1, #1
 8005018:	6350      	str	r0, [r2, #52]	; 0x34
 800501a:	8f18      	ldrh	r0, [r3, #56]	; 0x38
 800501c:	b289      	uxth	r1, r1
 800501e:	6395      	str	r5, [r2, #56]	; 0x38
 8005020:	2801      	cmp	r0, #1
 8005022:	63d4      	str	r4, [r2, #60]	; 0x3c
 8005024:	6411      	str	r1, [r2, #64]	; 0x40
 8005026:	6a12      	ldr	r2, [r2, #32]
 8005028:	bf08      	it	eq
 800502a:	2200      	moveq	r2, #0
 800502c:	bc30      	pop	{r4, r5}
 800502e:	bf14      	ite	ne
 8005030:	f3c2 3000 	ubfxne	r0, r2, #12, #1
 8005034:	871a      	strheq	r2, [r3, #56]	; 0x38
 8005036:	4770      	bx	lr

08005038 <R3_2_SetADCSampPointSectX>:
 8005038:	b470      	push	{r4, r5, r6}
 800503a:	4603      	mov	r3, r0
 800503c:	2570      	movs	r5, #112	; 0x70
 800503e:	6f44      	ldr	r4, [r0, #116]	; 0x74
 8005040:	8f82      	ldrh	r2, [r0, #60]	; 0x3c
 8005042:	f8b0 606c 	ldrh.w	r6, [r0, #108]	; 0x6c
 8005046:	f8b4 1084 	ldrh.w	r1, [r4, #132]	; 0x84
 800504a:	1ab0      	subs	r0, r6, r2
 800504c:	b280      	uxth	r0, r0
 800504e:	4288      	cmp	r0, r1
 8005050:	669d      	str	r5, [r3, #104]	; 0x68
 8005052:	d917      	bls.n	8005084 <R3_2_SetADCSampPointSectX+0x4c>
 8005054:	2103      	movs	r1, #3
 8005056:	1e72      	subs	r2, r6, #1
 8005058:	b292      	uxth	r2, r2
 800505a:	f883 103a 	strb.w	r1, [r3, #58]	; 0x3a
 800505e:	68a1      	ldr	r1, [r4, #8]
 8005060:	8e58      	ldrh	r0, [r3, #50]	; 0x32
 8005062:	8e9d      	ldrh	r5, [r3, #52]	; 0x34
 8005064:	8edc      	ldrh	r4, [r3, #54]	; 0x36
 8005066:	6348      	str	r0, [r1, #52]	; 0x34
 8005068:	8f18      	ldrh	r0, [r3, #56]	; 0x38
 800506a:	638d      	str	r5, [r1, #56]	; 0x38
 800506c:	2801      	cmp	r0, #1
 800506e:	63cc      	str	r4, [r1, #60]	; 0x3c
 8005070:	640a      	str	r2, [r1, #64]	; 0x40
 8005072:	6a0a      	ldr	r2, [r1, #32]
 8005074:	bf08      	it	eq
 8005076:	2200      	moveq	r2, #0
 8005078:	bc70      	pop	{r4, r5, r6}
 800507a:	bf14      	ite	ne
 800507c:	f3c2 3000 	ubfxne	r0, r2, #12, #1
 8005080:	871a      	strheq	r2, [r3, #56]	; 0x38
 8005082:	4770      	bx	lr
 8005084:	8fdd      	ldrh	r5, [r3, #62]	; 0x3e
 8005086:	1b55      	subs	r5, r2, r5
 8005088:	b2ad      	uxth	r5, r5
 800508a:	ebb5 0f40 	cmp.w	r5, r0, lsl #1
 800508e:	d904      	bls.n	800509a <R3_2_SetADCSampPointSectX+0x62>
 8005090:	f8b4 1086 	ldrh.w	r1, [r4, #134]	; 0x86
 8005094:	1a52      	subs	r2, r2, r1
 8005096:	b292      	uxth	r2, r2
 8005098:	e7e1      	b.n	800505e <R3_2_SetADCSampPointSectX+0x26>
 800509a:	4411      	add	r1, r2
 800509c:	b28a      	uxth	r2, r1
 800509e:	4296      	cmp	r6, r2
 80050a0:	d8dd      	bhi.n	800505e <R3_2_SetADCSampPointSectX+0x26>
 80050a2:	43d2      	mvns	r2, r2
 80050a4:	2160      	movs	r1, #96	; 0x60
 80050a6:	eb02 0246 	add.w	r2, r2, r6, lsl #1
 80050aa:	b292      	uxth	r2, r2
 80050ac:	6699      	str	r1, [r3, #104]	; 0x68
 80050ae:	e7d6      	b.n	800505e <R3_2_SetADCSampPointSectX+0x26>

080050b0 <R3_2_Init>:
 80050b0:	6f41      	ldr	r1, [r0, #116]	; 0x74
 80050b2:	b470      	push	{r4, r5, r6}
 80050b4:	688b      	ldr	r3, [r1, #8]
 80050b6:	680a      	ldr	r2, [r1, #0]
 80050b8:	681c      	ldr	r4, [r3, #0]
 80050ba:	684d      	ldr	r5, [r1, #4]
 80050bc:	f024 0401 	bic.w	r4, r4, #1
 80050c0:	601c      	str	r4, [r3, #0]
 80050c2:	f891 108a 	ldrb.w	r1, [r1, #138]	; 0x8a
 80050c6:	b131      	cbz	r1, 80050d6 <R3_2_Init+0x26>
 80050c8:	f06f 0180 	mvn.w	r1, #128	; 0x80
 80050cc:	6119      	str	r1, [r3, #16]
 80050ce:	68d9      	ldr	r1, [r3, #12]
 80050d0:	f041 0180 	orr.w	r1, r1, #128	; 0x80
 80050d4:	60d9      	str	r1, [r3, #12]
 80050d6:	6959      	ldr	r1, [r3, #20]
 80050d8:	4c16      	ldr	r4, [pc, #88]	; (8005134 <R3_2_Init+0x84>)
 80050da:	f041 0101 	orr.w	r1, r1, #1
 80050de:	6159      	str	r1, [r3, #20]
 80050e0:	6a19      	ldr	r1, [r3, #32]
 80050e2:	42a3      	cmp	r3, r4
 80050e4:	f441 61aa 	orr.w	r1, r1, #1360	; 0x550
 80050e8:	f041 0105 	orr.w	r1, r1, #5
 80050ec:	6219      	str	r1, [r3, #32]
 80050ee:	d108      	bne.n	8005102 <R3_2_Init+0x52>
 80050f0:	f44f 5480 	mov.w	r4, #4096	; 0x1000
 80050f4:	4910      	ldr	r1, [pc, #64]	; (8005138 <R3_2_Init+0x88>)
 80050f6:	684b      	ldr	r3, [r1, #4]
 80050f8:	f443 6380 	orr.w	r3, r3, #1024	; 0x400
 80050fc:	604b      	str	r3, [r1, #4]
 80050fe:	f8a0 406e 	strh.w	r4, [r0, #110]	; 0x6e
 8005102:	f06f 0604 	mvn.w	r6, #4
 8005106:	2470      	movs	r4, #112	; 0x70
 8005108:	2100      	movs	r1, #0
 800510a:	6893      	ldr	r3, [r2, #8]
 800510c:	f043 0301 	orr.w	r3, r3, #1
 8005110:	6093      	str	r3, [r2, #8]
 8005112:	68ab      	ldr	r3, [r5, #8]
 8005114:	f043 0301 	orr.w	r3, r3, #1
 8005118:	60ab      	str	r3, [r5, #8]
 800511a:	6016      	str	r6, [r2, #0]
 800511c:	6853      	ldr	r3, [r2, #4]
 800511e:	f043 0380 	orr.w	r3, r3, #128	; 0x80
 8005122:	6053      	str	r3, [r2, #4]
 8005124:	6684      	str	r4, [r0, #104]	; 0x68
 8005126:	f880 1072 	strb.w	r1, [r0, #114]	; 0x72
 800512a:	f8a0 104e 	strh.w	r1, [r0, #78]	; 0x4e
 800512e:	bc70      	pop	{r4, r5, r6}
 8005130:	4770      	bx	lr
 8005132:	bf00      	nop
 8005134:	40012c00 	.word	0x40012c00
 8005138:	e0042000 	.word	0xe0042000

0800513c <R3_2_TurnOnLowSides>:
 800513c:	b470      	push	{r4, r5, r6}
 800513e:	2200      	movs	r2, #0
 8005140:	2501      	movs	r5, #1
 8005142:	f06f 0401 	mvn.w	r4, #1
 8005146:	6f41      	ldr	r1, [r0, #116]	; 0x74
 8005148:	688b      	ldr	r3, [r1, #8]
 800514a:	f880 5042 	strb.w	r5, [r0, #66]	; 0x42
 800514e:	611c      	str	r4, [r3, #16]
 8005150:	635a      	str	r2, [r3, #52]	; 0x34
 8005152:	639a      	str	r2, [r3, #56]	; 0x38
 8005154:	63da      	str	r2, [r3, #60]	; 0x3c
 8005156:	691a      	ldr	r2, [r3, #16]
 8005158:	07d2      	lsls	r2, r2, #31
 800515a:	d5fc      	bpl.n	8005156 <R3_2_TurnOnLowSides+0x1a>
 800515c:	f06f 0201 	mvn.w	r2, #1
 8005160:	611a      	str	r2, [r3, #16]
 8005162:	6c5a      	ldr	r2, [r3, #68]	; 0x44
 8005164:	f891 0088 	ldrb.w	r0, [r1, #136]	; 0x88
 8005168:	f442 4200 	orr.w	r2, r2, #32768	; 0x8000
 800516c:	2802      	cmp	r0, #2
 800516e:	645a      	str	r2, [r3, #68]	; 0x44
 8005170:	d10f      	bne.n	8005192 <R3_2_TurnOnLowSides+0x56>
 8005172:	e9d1 021e 	ldrd	r0, r2, [r1, #120]	; 0x78
 8005176:	e9d1 6503 	ldrd	r6, r5, [r1, #12]
 800517a:	f8d1 3080 	ldr.w	r3, [r1, #128]	; 0x80
 800517e:	694c      	ldr	r4, [r1, #20]
 8005180:	f3c0 200f 	ubfx	r0, r0, #8, #16
 8005184:	f3c2 220f 	ubfx	r2, r2, #8, #16
 8005188:	f3c3 230f 	ubfx	r3, r3, #8, #16
 800518c:	6130      	str	r0, [r6, #16]
 800518e:	612a      	str	r2, [r5, #16]
 8005190:	6123      	str	r3, [r4, #16]
 8005192:	bc70      	pop	{r4, r5, r6}
 8005194:	4770      	bx	lr
 8005196:	bf00      	nop

08005198 <R3_2_SwitchOnPWM>:
 8005198:	b4f0      	push	{r4, r5, r6, r7}
 800519a:	2500      	movs	r5, #0
 800519c:	f06f 0401 	mvn.w	r4, #1
 80051a0:	6f41      	ldr	r1, [r0, #116]	; 0x74
 80051a2:	f8b0 206c 	ldrh.w	r2, [r0, #108]	; 0x6c
 80051a6:	688b      	ldr	r3, [r1, #8]
 80051a8:	f880 5042 	strb.w	r5, [r0, #66]	; 0x42
 80051ac:	0850      	lsrs	r0, r2, #1
 80051ae:	3a05      	subs	r2, #5
 80051b0:	6358      	str	r0, [r3, #52]	; 0x34
 80051b2:	6398      	str	r0, [r3, #56]	; 0x38
 80051b4:	63d8      	str	r0, [r3, #60]	; 0x3c
 80051b6:	641a      	str	r2, [r3, #64]	; 0x40
 80051b8:	611c      	str	r4, [r3, #16]
 80051ba:	691a      	ldr	r2, [r3, #16]
 80051bc:	07d2      	lsls	r2, r2, #31
 80051be:	d5fc      	bpl.n	80051ba <R3_2_SwitchOnPWM+0x22>
 80051c0:	f06f 0201 	mvn.w	r2, #1
 80051c4:	611a      	str	r2, [r3, #16]
 80051c6:	6c5a      	ldr	r2, [r3, #68]	; 0x44
 80051c8:	f891 0088 	ldrb.w	r0, [r1, #136]	; 0x88
 80051cc:	f442 6280 	orr.w	r2, r2, #1024	; 0x400
 80051d0:	645a      	str	r2, [r3, #68]	; 0x44
 80051d2:	6c5a      	ldr	r2, [r3, #68]	; 0x44
 80051d4:	2802      	cmp	r0, #2
 80051d6:	f442 4200 	orr.w	r2, r2, #32768	; 0x8000
 80051da:	645a      	str	r2, [r3, #68]	; 0x44
 80051dc:	d008      	beq.n	80051f0 <R3_2_SwitchOnPWM+0x58>
 80051de:	bcf0      	pop	{r4, r5, r6, r7}
 80051e0:	f06f 0201 	mvn.w	r2, #1
 80051e4:	611a      	str	r2, [r3, #16]
 80051e6:	68da      	ldr	r2, [r3, #12]
 80051e8:	f042 0201 	orr.w	r2, r2, #1
 80051ec:	60da      	str	r2, [r3, #12]
 80051ee:	4770      	bx	lr
 80051f0:	f240 5755 	movw	r7, #1365	; 0x555
 80051f4:	e9d1 021f 	ldrd	r0, r2, [r1, #124]	; 0x7c
 80051f8:	e9d1 6503 	ldrd	r6, r5, [r1, #12]
 80051fc:	f8d3 c020 	ldr.w	ip, [r3, #32]
 8005200:	6f8c      	ldr	r4, [r1, #120]	; 0x78
 8005202:	ea37 070c 	bics.w	r7, r7, ip
 8005206:	f3c2 220f 	ubfx	r2, r2, #8, #16
 800520a:	f3c0 200f 	ubfx	r0, r0, #8, #16
 800520e:	f3c4 240f 	ubfx	r4, r4, #8, #16
 8005212:	6949      	ldr	r1, [r1, #20]
 8005214:	d003      	beq.n	800521e <R3_2_SwitchOnPWM+0x86>
 8005216:	6174      	str	r4, [r6, #20]
 8005218:	6168      	str	r0, [r5, #20]
 800521a:	614a      	str	r2, [r1, #20]
 800521c:	e7df      	b.n	80051de <R3_2_SwitchOnPWM+0x46>
 800521e:	6134      	str	r4, [r6, #16]
 8005220:	6128      	str	r0, [r5, #16]
 8005222:	610a      	str	r2, [r1, #16]
 8005224:	e7db      	b.n	80051de <R3_2_SwitchOnPWM+0x46>
 8005226:	bf00      	nop

08005228 <R3_2_SwitchOffPWM>:
 8005228:	b430      	push	{r4, r5}
 800522a:	2500      	movs	r5, #0
 800522c:	6f42      	ldr	r2, [r0, #116]	; 0x74
 800522e:	6893      	ldr	r3, [r2, #8]
 8005230:	f892 4088 	ldrb.w	r4, [r2, #136]	; 0x88
 8005234:	68d9      	ldr	r1, [r3, #12]
 8005236:	2c02      	cmp	r4, #2
 8005238:	f021 0101 	bic.w	r1, r1, #1
 800523c:	60d9      	str	r1, [r3, #12]
 800523e:	6c59      	ldr	r1, [r3, #68]	; 0x44
 8005240:	f880 5042 	strb.w	r5, [r0, #66]	; 0x42
 8005244:	f421 4100 	bic.w	r1, r1, #32768	; 0x8000
 8005248:	6459      	str	r1, [r3, #68]	; 0x44
 800524a:	d10f      	bne.n	800526c <R3_2_SwitchOffPWM+0x44>
 800524c:	e9d2 401e 	ldrd	r4, r0, [r2, #120]	; 0x78
 8005250:	f8d2 1080 	ldr.w	r1, [r2, #128]	; 0x80
 8005254:	68d5      	ldr	r5, [r2, #12]
 8005256:	f3c4 240f 	ubfx	r4, r4, #8, #16
 800525a:	f3c0 200f 	ubfx	r0, r0, #8, #16
 800525e:	f3c1 210f 	ubfx	r1, r1, #8, #16
 8005262:	616c      	str	r4, [r5, #20]
 8005264:	e9d2 4204 	ldrd	r4, r2, [r2, #16]
 8005268:	6160      	str	r0, [r4, #20]
 800526a:	6151      	str	r1, [r2, #20]
 800526c:	f06f 0201 	mvn.w	r2, #1
 8005270:	611a      	str	r2, [r3, #16]
 8005272:	691a      	ldr	r2, [r3, #16]
 8005274:	07d2      	lsls	r2, r2, #31
 8005276:	d5fc      	bpl.n	8005272 <R3_2_SwitchOffPWM+0x4a>
 8005278:	bc30      	pop	{r4, r5}
 800527a:	f06f 0201 	mvn.w	r2, #1
 800527e:	611a      	str	r2, [r3, #16]
 8005280:	4770      	bx	lr
 8005282:	bf00      	nop

08005284 <R3_2_CurrentReadingPolarization>:
 8005284:	e92d 43f8 	stmdb	sp!, {r3, r4, r5, r6, r7, r8, r9, lr}
 8005288:	2600      	movs	r6, #0
 800528a:	2703      	movs	r7, #3
 800528c:	4604      	mov	r4, r0
 800528e:	6f43      	ldr	r3, [r0, #116]	; 0x74
 8005290:	4937      	ldr	r1, [pc, #220]	; (8005370 <R3_2_CurrentReadingPolarization+0xec>)
 8005292:	689d      	ldr	r5, [r3, #8]
 8005294:	f880 6070 	strb.w	r6, [r0, #112]	; 0x70
 8005298:	6a2b      	ldr	r3, [r5, #32]
 800529a:	4a36      	ldr	r2, [pc, #216]	; (8005374 <R3_2_CurrentReadingPolarization+0xf0>)
 800529c:	f423 63aa 	bic.w	r3, r3, #1360	; 0x550
 80052a0:	f023 0305 	bic.w	r3, r3, #5
 80052a4:	e9c0 6617 	strd	r6, r6, [r0, #92]	; 0x5c
 80052a8:	6646      	str	r6, [r0, #100]	; 0x64
 80052aa:	622b      	str	r3, [r5, #32]
 80052ac:	6041      	str	r1, [r0, #4]
 80052ae:	6182      	str	r2, [r0, #24]
 80052b0:	f880 7071 	strb.w	r7, [r0, #113]	; 0x71
 80052b4:	f880 703a 	strb.w	r7, [r0, #58]	; 0x3a
 80052b8:	f7ff ff6e 	bl	8005198 <R3_2_SwitchOnPWM>
 80052bc:	6f63      	ldr	r3, [r4, #116]	; 0x74
 80052be:	f104 0838 	add.w	r8, r4, #56	; 0x38
 80052c2:	f104 0970 	add.w	r9, r4, #112	; 0x70
 80052c6:	f893 2089 	ldrb.w	r2, [r3, #137]	; 0x89
 80052ca:	4641      	mov	r1, r8
 80052cc:	464b      	mov	r3, r9
 80052ce:	4628      	mov	r0, r5
 80052d0:	f7ff fc3e 	bl	8004b50 <waitForPolarizationEnd>
 80052d4:	4620      	mov	r0, r4
 80052d6:	f7ff ffa7 	bl	8005228 <R3_2_SwitchOffPWM>
 80052da:	4b27      	ldr	r3, [pc, #156]	; (8005378 <R3_2_CurrentReadingPolarization+0xf4>)
 80052dc:	4620      	mov	r0, r4
 80052de:	6063      	str	r3, [r4, #4]
 80052e0:	f884 6070 	strb.w	r6, [r4, #112]	; 0x70
 80052e4:	f884 6071 	strb.w	r6, [r4, #113]	; 0x71
 80052e8:	f884 603a 	strb.w	r6, [r4, #58]	; 0x3a
 80052ec:	f7ff ff54 	bl	8005198 <R3_2_SwitchOnPWM>
 80052f0:	6f62      	ldr	r2, [r4, #116]	; 0x74
 80052f2:	464b      	mov	r3, r9
 80052f4:	4641      	mov	r1, r8
 80052f6:	f892 2089 	ldrb.w	r2, [r2, #137]	; 0x89
 80052fa:	4628      	mov	r0, r5
 80052fc:	f7ff fc28 	bl	8004b50 <waitForPolarizationEnd>
 8005300:	4620      	mov	r0, r4
 8005302:	f7ff ff91 	bl	8005228 <R3_2_SwitchOffPWM>
 8005306:	e9d4 1217 	ldrd	r1, r2, [r4, #92]	; 0x5c
 800530a:	6e63      	ldr	r3, [r4, #100]	; 0x64
 800530c:	40f9      	lsrs	r1, r7
 800530e:	40fa      	lsrs	r2, r7
 8005310:	e9c4 1217 	strd	r1, r2, [r4, #92]	; 0x5c
 8005314:	40fb      	lsrs	r3, r7
 8005316:	6663      	str	r3, [r4, #100]	; 0x64
 8005318:	69ab      	ldr	r3, [r5, #24]
 800531a:	4a18      	ldr	r2, [pc, #96]	; (800537c <R3_2_CurrentReadingPolarization+0xf8>)
 800531c:	4918      	ldr	r1, [pc, #96]	; (8005380 <R3_2_CurrentReadingPolarization+0xfc>)
 800531e:	f023 0308 	bic.w	r3, r3, #8
 8005322:	61a2      	str	r2, [r4, #24]
 8005324:	6061      	str	r1, [r4, #4]
 8005326:	61ab      	str	r3, [r5, #24]
 8005328:	69aa      	ldr	r2, [r5, #24]
 800532a:	f8b4 306c 	ldrh.w	r3, [r4, #108]	; 0x6c
 800532e:	f422 6200 	bic.w	r2, r2, #2048	; 0x800
 8005332:	61aa      	str	r2, [r5, #24]
 8005334:	69ea      	ldr	r2, [r5, #28]
 8005336:	f022 0208 	bic.w	r2, r2, #8
 800533a:	61ea      	str	r2, [r5, #28]
 800533c:	636b      	str	r3, [r5, #52]	; 0x34
 800533e:	63ab      	str	r3, [r5, #56]	; 0x38
 8005340:	63eb      	str	r3, [r5, #60]	; 0x3c
 8005342:	69ab      	ldr	r3, [r5, #24]
 8005344:	f043 0308 	orr.w	r3, r3, #8
 8005348:	61ab      	str	r3, [r5, #24]
 800534a:	69ab      	ldr	r3, [r5, #24]
 800534c:	f443 6300 	orr.w	r3, r3, #2048	; 0x800
 8005350:	61ab      	str	r3, [r5, #24]
 8005352:	69eb      	ldr	r3, [r5, #28]
 8005354:	f043 0308 	orr.w	r3, r3, #8
 8005358:	61eb      	str	r3, [r5, #28]
 800535a:	f884 703a 	strb.w	r7, [r4, #58]	; 0x3a
 800535e:	6a2b      	ldr	r3, [r5, #32]
 8005360:	f443 63aa 	orr.w	r3, r3, #1360	; 0x550
 8005364:	f043 0305 	orr.w	r3, r3, #5
 8005368:	622b      	str	r3, [r5, #32]
 800536a:	e8bd 83f8 	ldmia.w	sp!, {r3, r4, r5, r6, r7, r8, r9, pc}
 800536e:	bf00      	nop
 8005370:	08004f79 	.word	0x08004f79
 8005374:	08004ffd 	.word	0x08004ffd
 8005378:	08004fc1 	.word	0x08004fc1
 800537c:	08005039 	.word	0x08005039
 8005380:	08004e01 	.word	0x08004e01

08005384 <R3_2_TIMx_UP_IRQHandler>:
 8005384:	6f41      	ldr	r1, [r0, #116]	; 0x74
 8005386:	b4f0      	push	{r4, r5, r6, r7}
 8005388:	e9d1 2300 	ldrd	r2, r3, [r1]
 800538c:	6894      	ldr	r4, [r2, #8]
 800538e:	688d      	ldr	r5, [r1, #8]
 8005390:	f424 4400 	bic.w	r4, r4, #32768	; 0x8000
 8005394:	f8b0 706e 	ldrh.w	r7, [r0, #110]	; 0x6e
 8005398:	6094      	str	r4, [r2, #8]
 800539a:	689c      	ldr	r4, [r3, #8]
 800539c:	6e86      	ldr	r6, [r0, #104]	; 0x68
 800539e:	f424 4400 	bic.w	r4, r4, #32768	; 0x8000
 80053a2:	609c      	str	r4, [r3, #8]
 80053a4:	f890 403a 	ldrb.w	r4, [r0, #58]	; 0x3a
 80053a8:	f407 47e0 	and.w	r7, r7, #28672	; 0x7000
 80053ac:	eb01 0184 	add.w	r1, r1, r4, lsl #2
 80053b0:	6c8c      	ldr	r4, [r1, #72]	; 0x48
 80053b2:	6e09      	ldr	r1, [r1, #96]	; 0x60
 80053b4:	6394      	str	r4, [r2, #56]	; 0x38
 80053b6:	6399      	str	r1, [r3, #56]	; 0x38
 80053b8:	6a29      	ldr	r1, [r5, #32]
 80053ba:	3046      	adds	r0, #70	; 0x46
 80053bc:	f441 5180 	orr.w	r1, r1, #4096	; 0x1000
 80053c0:	6229      	str	r1, [r5, #32]
 80053c2:	6894      	ldr	r4, [r2, #8]
 80053c4:	f424 44e0 	bic.w	r4, r4, #28672	; 0x7000
 80053c8:	433c      	orrs	r4, r7
 80053ca:	6094      	str	r4, [r2, #8]
 80053cc:	6899      	ldr	r1, [r3, #8]
 80053ce:	f421 41e0 	bic.w	r1, r1, #28672	; 0x7000
 80053d2:	4339      	orrs	r1, r7
 80053d4:	6099      	str	r1, [r3, #8]
 80053d6:	6891      	ldr	r1, [r2, #8]
 80053d8:	f441 4100 	orr.w	r1, r1, #32768	; 0x8000
 80053dc:	6091      	str	r1, [r2, #8]
 80053de:	689a      	ldr	r2, [r3, #8]
 80053e0:	f442 4200 	orr.w	r2, r2, #32768	; 0x8000
 80053e4:	609a      	str	r2, [r3, #8]
 80053e6:	69eb      	ldr	r3, [r5, #28]
 80053e8:	f423 43e6 	bic.w	r3, r3, #29440	; 0x7300
 80053ec:	ea43 2306 	orr.w	r3, r3, r6, lsl #8
 80053f0:	61eb      	str	r3, [r5, #28]
 80053f2:	bcf0      	pop	{r4, r5, r6, r7}
 80053f4:	4770      	bx	lr
 80053f6:	bf00      	nop

080053f8 <R3_2_BRK_IRQHandler>:
 80053f8:	6f43      	ldr	r3, [r0, #116]	; 0x74
 80053fa:	4602      	mov	r2, r0
 80053fc:	f893 1088 	ldrb.w	r1, [r3, #136]	; 0x88
 8005400:	2902      	cmp	r1, #2
 8005402:	d004      	beq.n	800540e <R3_2_BRK_IRQHandler+0x16>
 8005404:	2301      	movs	r3, #1
 8005406:	3046      	adds	r0, #70	; 0x46
 8005408:	f882 3072 	strb.w	r3, [r2, #114]	; 0x72
 800540c:	4770      	bx	lr
 800540e:	f8d3 1080 	ldr.w	r1, [r3, #128]	; 0x80
 8005412:	b430      	push	{r4, r5}
 8005414:	e9d3 401e 	ldrd	r4, r0, [r3, #120]	; 0x78
 8005418:	68dd      	ldr	r5, [r3, #12]
 800541a:	f3c4 240f 	ubfx	r4, r4, #8, #16
 800541e:	f3c0 200f 	ubfx	r0, r0, #8, #16
 8005422:	f3c1 210f 	ubfx	r1, r1, #8, #16
 8005426:	616c      	str	r4, [r5, #20]
 8005428:	e9d3 4304 	ldrd	r4, r3, [r3, #16]
 800542c:	6160      	str	r0, [r4, #20]
 800542e:	6159      	str	r1, [r3, #20]
 8005430:	2301      	movs	r3, #1
 8005432:	bc30      	pop	{r4, r5}
 8005434:	f102 0046 	add.w	r0, r2, #70	; 0x46
 8005438:	f882 3072 	strb.w	r3, [r2, #114]	; 0x72
 800543c:	4770      	bx	lr
 800543e:	bf00      	nop

08005440 <R3_2_IsOverCurrentOccurred>:
 8005440:	f890 3072 	ldrb.w	r3, [r0, #114]	; 0x72
 8005444:	b90b      	cbnz	r3, 800544a <R3_2_IsOverCurrentOccurred+0xa>
 8005446:	4618      	mov	r0, r3
 8005448:	4770      	bx	lr
 800544a:	2200      	movs	r2, #0
 800544c:	2340      	movs	r3, #64	; 0x40
 800544e:	f880 2072 	strb.w	r2, [r0, #114]	; 0x72
 8005452:	4618      	mov	r0, r3
 8005454:	4770      	bx	lr
 8005456:	bf00      	nop

08005458 <RVBS_Clear>:
 8005458:	8b42      	ldrh	r2, [r0, #26]
 800545a:	8b81      	ldrh	r1, [r0, #28]
 800545c:	8b03      	ldrh	r3, [r0, #24]
 800545e:	440a      	add	r2, r1
 8005460:	0852      	lsrs	r2, r2, #1
 8005462:	b183      	cbz	r3, 8005486 <RVBS_Clear+0x2e>
 8005464:	2300      	movs	r3, #0
 8005466:	b410      	push	{r4}
 8005468:	6a04      	ldr	r4, [r0, #32]
 800546a:	f824 2013 	strh.w	r2, [r4, r3, lsl #1]
 800546e:	8b01      	ldrh	r1, [r0, #24]
 8005470:	3301      	adds	r3, #1
 8005472:	b29b      	uxth	r3, r3
 8005474:	4299      	cmp	r1, r3
 8005476:	d8f8      	bhi.n	800546a <RVBS_Clear+0x12>
 8005478:	2300      	movs	r3, #0
 800547a:	8082      	strh	r2, [r0, #4]
 800547c:	80c2      	strh	r2, [r0, #6]
 800547e:	f880 3025 	strb.w	r3, [r0, #37]	; 0x25
 8005482:	bc10      	pop	{r4}
 8005484:	4770      	bx	lr
 8005486:	2300      	movs	r3, #0
 8005488:	8082      	strh	r2, [r0, #4]
 800548a:	80c2      	strh	r2, [r0, #6]
 800548c:	f880 3025 	strb.w	r3, [r0, #37]	; 0x25
 8005490:	4770      	bx	lr
 8005492:	bf00      	nop

08005494 <RVBS_Init>:
 8005494:	b510      	push	{r4, lr}
 8005496:	4604      	mov	r4, r0
 8005498:	300c      	adds	r0, #12
 800549a:	f7fc f9ad 	bl	80017f8 <RCM_RegisterRegConv>
 800549e:	f884 0026 	strb.w	r0, [r4, #38]	; 0x26
 80054a2:	4620      	mov	r0, r4
 80054a4:	f7ff ffd8 	bl	8005458 <RVBS_Clear>
 80054a8:	bd10      	pop	{r4, pc}
 80054aa:	bf00      	nop

080054ac <RVBS_CheckFaultState>:
 80054ac:	88c3      	ldrh	r3, [r0, #6]
 80054ae:	8b42      	ldrh	r2, [r0, #26]
 80054b0:	429a      	cmp	r2, r3
 80054b2:	d305      	bcc.n	80054c0 <RVBS_CheckFaultState+0x14>
 80054b4:	8b80      	ldrh	r0, [r0, #28]
 80054b6:	4298      	cmp	r0, r3
 80054b8:	bf8c      	ite	hi
 80054ba:	2004      	movhi	r0, #4
 80054bc:	2000      	movls	r0, #0
 80054be:	4770      	bx	lr
 80054c0:	2002      	movs	r0, #2
 80054c2:	4770      	bx	lr

080054c4 <RVBS_CalcAvVbus>:
 80054c4:	b570      	push	{r4, r5, r6, lr}
 80054c6:	4604      	mov	r4, r0
 80054c8:	f890 0026 	ldrb.w	r0, [r0, #38]	; 0x26
 80054cc:	f7fc fa54 	bl	8001978 <RCM_ExecRegularConv>
 80054d0:	f64f 73ff 	movw	r3, #65535	; 0xffff
 80054d4:	4298      	cmp	r0, r3
 80054d6:	d01b      	beq.n	8005510 <RVBS_CalcAvVbus+0x4c>
 80054d8:	6a26      	ldr	r6, [r4, #32]
 80054da:	f894 3025 	ldrb.w	r3, [r4, #37]	; 0x25
 80054de:	f826 0013 	strh.w	r0, [r6, r3, lsl #1]
 80054e2:	8b25      	ldrh	r5, [r4, #24]
 80054e4:	b1cd      	cbz	r5, 800551a <RVBS_CalcAvVbus+0x56>
 80054e6:	2300      	movs	r3, #0
 80054e8:	461a      	mov	r2, r3
 80054ea:	f836 1013 	ldrh.w	r1, [r6, r3, lsl #1]
 80054ee:	3301      	adds	r3, #1
 80054f0:	b2db      	uxtb	r3, r3
 80054f2:	42ab      	cmp	r3, r5
 80054f4:	440a      	add	r2, r1
 80054f6:	d3f8      	bcc.n	80054ea <RVBS_CalcAvVbus+0x26>
 80054f8:	fbb2 f2f5 	udiv	r2, r2, r5
 80054fc:	f894 3025 	ldrb.w	r3, [r4, #37]	; 0x25
 8005500:	3d01      	subs	r5, #1
 8005502:	42ab      	cmp	r3, r5
 8005504:	80e2      	strh	r2, [r4, #6]
 8005506:	80a0      	strh	r0, [r4, #4]
 8005508:	da09      	bge.n	800551e <RVBS_CalcAvVbus+0x5a>
 800550a:	3301      	adds	r3, #1
 800550c:	f884 3025 	strb.w	r3, [r4, #37]	; 0x25
 8005510:	4620      	mov	r0, r4
 8005512:	f7ff ffcb 	bl	80054ac <RVBS_CheckFaultState>
 8005516:	8120      	strh	r0, [r4, #8]
 8005518:	bd70      	pop	{r4, r5, r6, pc}
 800551a:	80e5      	strh	r5, [r4, #6]
 800551c:	80a0      	strh	r0, [r4, #4]
 800551e:	2300      	movs	r3, #0
 8005520:	4620      	mov	r0, r4
 8005522:	f884 3025 	strb.w	r3, [r4, #37]	; 0x25
 8005526:	f7ff ffc1 	bl	80054ac <RVBS_CheckFaultState>
 800552a:	8120      	strh	r0, [r4, #8]
 800552c:	bd70      	pop	{r4, r5, r6, pc}
 800552e:	bf00      	nop

08005530 <REMNG_Init>:
 8005530:	2300      	movs	r3, #0
 8005532:	2201      	movs	r2, #1
 8005534:	e9c0 3301 	strd	r3, r3, [r0, #4]
 8005538:	6142      	str	r2, [r0, #20]
 800553a:	e9c0 3303 	strd	r3, r3, [r0, #12]
 800553e:	4770      	bx	lr

08005540 <SPD_GetElAngle>:
 8005540:	f9b0 0004 	ldrsh.w	r0, [r0, #4]
 8005544:	4770      	bx	lr
 8005546:	bf00      	nop

08005548 <SPD_GetAvrgMecSpeedUnit>:
 8005548:	f9b0 000c 	ldrsh.w	r0, [r0, #12]
 800554c:	4770      	bx	lr
 800554e:	bf00      	nop

08005550 <SPD_GetElSpeedDpp>:
 8005550:	f9b0 000e 	ldrsh.w	r0, [r0, #14]
 8005554:	4770      	bx	lr
 8005556:	bf00      	nop

08005558 <SPD_GetInstElSpeedDpp>:
 8005558:	f9b0 0010 	ldrsh.w	r0, [r0, #16]
 800555c:	4770      	bx	lr
 800555e:	bf00      	nop

08005560 <SPD_IsMecSpeedReliable>:
 8005560:	f9b1 1000 	ldrsh.w	r1, [r1]
 8005564:	b430      	push	{r4, r5}
 8005566:	b28a      	uxth	r2, r1
 8005568:	2900      	cmp	r1, #0
 800556a:	bfb8      	it	lt
 800556c:	4252      	neglt	r2, r2
 800556e:	8ac5      	ldrh	r5, [r0, #22]
 8005570:	bfb8      	it	lt
 8005572:	b292      	uxthlt	r2, r2
 8005574:	4295      	cmp	r5, r2
 8005576:	78c4      	ldrb	r4, [r0, #3]
 8005578:	7803      	ldrb	r3, [r0, #0]
 800557a:	8a81      	ldrh	r1, [r0, #20]
 800557c:	d819      	bhi.n	80055b2 <SPD_IsMecSpeedReliable+0x52>
 800557e:	4291      	cmp	r1, r2
 8005580:	bf2c      	ite	cs
 8005582:	2200      	movcs	r2, #0
 8005584:	2201      	movcc	r2, #1
 8005586:	f9b0 5012 	ldrsh.w	r5, [r0, #18]
 800558a:	b2a9      	uxth	r1, r5
 800558c:	2d00      	cmp	r5, #0
 800558e:	bfb8      	it	lt
 8005590:	4249      	neglt	r1, r1
 8005592:	8b05      	ldrh	r5, [r0, #24]
 8005594:	bfb8      	it	lt
 8005596:	b289      	uxthlt	r1, r1
 8005598:	428d      	cmp	r5, r1
 800559a:	d300      	bcc.n	800559e <SPD_IsMecSpeedReliable+0x3e>
 800559c:	b15a      	cbz	r2, 80055b6 <SPD_IsMecSpeedReliable+0x56>
 800559e:	429c      	cmp	r4, r3
 80055a0:	d901      	bls.n	80055a6 <SPD_IsMecSpeedReliable+0x46>
 80055a2:	3301      	adds	r3, #1
 80055a4:	b2db      	uxtb	r3, r3
 80055a6:	7003      	strb	r3, [r0, #0]
 80055a8:	1b18      	subs	r0, r3, r4
 80055aa:	bf18      	it	ne
 80055ac:	2001      	movne	r0, #1
 80055ae:	bc30      	pop	{r4, r5}
 80055b0:	4770      	bx	lr
 80055b2:	2201      	movs	r2, #1
 80055b4:	e7e7      	b.n	8005586 <SPD_IsMecSpeedReliable+0x26>
 80055b6:	429c      	cmp	r4, r3
 80055b8:	bf88      	it	hi
 80055ba:	2300      	movhi	r3, #0
 80055bc:	e7f3      	b.n	80055a6 <SPD_IsMecSpeedReliable+0x46>
 80055be:	bf00      	nop

080055c0 <SPD_GetS16Speed>:
 80055c0:	f9b0 300c 	ldrsh.w	r3, [r0, #12]
 80055c4:	f9b0 0014 	ldrsh.w	r0, [r0, #20]
 80055c8:	ebc3 33c3 	rsb	r3, r3, r3, lsl #15
 80055cc:	fb93 f0f0 	sdiv	r0, r3, r0
 80055d0:	b200      	sxth	r0, r0
 80055d2:	4770      	bx	lr

080055d4 <STC_Init>:
 80055d4:	2300      	movs	r3, #0
 80055d6:	b430      	push	{r4, r5}
 80055d8:	f9b0 502c 	ldrsh.w	r5, [r0, #44]	; 0x2c
 80055dc:	f9b0 402e 	ldrsh.w	r4, [r0, #46]	; 0x2e
 80055e0:	6101      	str	r1, [r0, #16]
 80055e2:	f890 102a 	ldrb.w	r1, [r0, #42]	; 0x2a
 80055e6:	042d      	lsls	r5, r5, #16
 80055e8:	0424      	lsls	r4, r4, #16
 80055ea:	e9c0 5401 	strd	r5, r4, [r0, #4]
 80055ee:	bc30      	pop	{r4, r5}
 80055f0:	6142      	str	r2, [r0, #20]
 80055f2:	7001      	strb	r1, [r0, #0]
 80055f4:	8043      	strh	r3, [r0, #2]
 80055f6:	60c3      	str	r3, [r0, #12]
 80055f8:	6183      	str	r3, [r0, #24]
 80055fa:	4770      	bx	lr

080055fc <STC_GetSpeedSensor>:
 80055fc:	6940      	ldr	r0, [r0, #20]
 80055fe:	4770      	bx	lr

08005600 <STC_Clear>:
 8005600:	7803      	ldrb	r3, [r0, #0]
 8005602:	2b01      	cmp	r3, #1
 8005604:	d000      	beq.n	8005608 <STC_Clear+0x8>
 8005606:	4770      	bx	lr
 8005608:	6900      	ldr	r0, [r0, #16]
 800560a:	2100      	movs	r1, #0
 800560c:	f7ff b9e6 	b.w	80049dc <PID_SetIntegralTerm>

08005610 <STC_GetMecSpeedRefUnit>:
 8005610:	6840      	ldr	r0, [r0, #4]
 8005612:	2800      	cmp	r0, #0
 8005614:	bfbc      	itt	lt
 8005616:	f500 407f 	addlt.w	r0, r0, #65280	; 0xff00
 800561a:	30ff      	addlt	r0, #255	; 0xff
 800561c:	1400      	asrs	r0, r0, #16
 800561e:	4770      	bx	lr

08005620 <STC_GetTorqueRef>:
 8005620:	6880      	ldr	r0, [r0, #8]
 8005622:	2800      	cmp	r0, #0
 8005624:	bfbc      	itt	lt
 8005626:	f500 407f 	addlt.w	r0, r0, #65280	; 0xff00
 800562a:	30ff      	addlt	r0, #255	; 0xff
 800562c:	1400      	asrs	r0, r0, #16
 800562e:	4770      	bx	lr

08005630 <STC_SetControlMode>:
 8005630:	2300      	movs	r3, #0
 8005632:	7001      	strb	r1, [r0, #0]
 8005634:	60c3      	str	r3, [r0, #12]
 8005636:	4770      	bx	lr

08005638 <STC_ExecRamp>:
 8005638:	7803      	ldrb	r3, [r0, #0]
 800563a:	b570      	push	{r4, r5, r6, lr}
 800563c:	4604      	mov	r4, r0
 800563e:	460d      	mov	r5, r1
 8005640:	4616      	mov	r6, r2
 8005642:	b313      	cbz	r3, 800568a <STC_ExecRamp+0x52>
 8005644:	6840      	ldr	r0, [r0, #4]
 8005646:	8be3      	ldrh	r3, [r4, #30]
 8005648:	2800      	cmp	r0, #0
 800564a:	bfbc      	itt	lt
 800564c:	f500 407f 	addlt.w	r0, r0, #65280	; 0xff00
 8005650:	30ff      	addlt	r0, #255	; 0xff
 8005652:	428b      	cmp	r3, r1
 8005654:	ea4f 4020 	mov.w	r0, r0, asr #16
 8005658:	db1c      	blt.n	8005694 <STC_ExecRamp+0x5c>
 800565a:	f9b4 3024 	ldrsh.w	r3, [r4, #36]	; 0x24
 800565e:	428b      	cmp	r3, r1
 8005660:	dc18      	bgt.n	8005694 <STC_ExecRamp+0x5c>
 8005662:	8c23      	ldrh	r3, [r4, #32]
 8005664:	428b      	cmp	r3, r1
 8005666:	dd03      	ble.n	8005670 <STC_ExecRamp+0x38>
 8005668:	f9b4 3022 	ldrsh.w	r3, [r4, #34]	; 0x22
 800566c:	428b      	cmp	r3, r1
 800566e:	db11      	blt.n	8005694 <STC_ExecRamp+0x5c>
 8005670:	b9c6      	cbnz	r6, 80056a4 <STC_ExecRamp+0x6c>
 8005672:	7823      	ldrb	r3, [r4, #0]
 8005674:	042d      	lsls	r5, r5, #16
 8005676:	2b01      	cmp	r3, #1
 8005678:	f04f 0300 	mov.w	r3, #0
 800567c:	bf0c      	ite	eq
 800567e:	6065      	streq	r5, [r4, #4]
 8005680:	60a5      	strne	r5, [r4, #8]
 8005682:	2001      	movs	r0, #1
 8005684:	60e3      	str	r3, [r4, #12]
 8005686:	61a3      	str	r3, [r4, #24]
 8005688:	bd70      	pop	{r4, r5, r6, pc}
 800568a:	f7ff ffc9 	bl	8005620 <STC_GetTorqueRef>
 800568e:	8ce3      	ldrh	r3, [r4, #38]	; 0x26
 8005690:	42ab      	cmp	r3, r5
 8005692:	da01      	bge.n	8005698 <STC_ExecRamp+0x60>
 8005694:	2000      	movs	r0, #0
 8005696:	bd70      	pop	{r4, r5, r6, pc}
 8005698:	f9b4 3028 	ldrsh.w	r3, [r4, #40]	; 0x28
 800569c:	42ab      	cmp	r3, r5
 800569e:	dcf9      	bgt.n	8005694 <STC_ExecRamp+0x5c>
 80056a0:	2e00      	cmp	r6, #0
 80056a2:	d0e6      	beq.n	8005672 <STC_ExecRamp+0x3a>
 80056a4:	8ba2      	ldrh	r2, [r4, #28]
 80056a6:	1a28      	subs	r0, r5, r0
 80056a8:	fb06 f202 	mul.w	r2, r6, r2
 80056ac:	4e06      	ldr	r6, [pc, #24]	; (80056c8 <STC_ExecRamp+0x90>)
 80056ae:	0403      	lsls	r3, r0, #16
 80056b0:	fba6 1202 	umull	r1, r2, r6, r2
 80056b4:	0992      	lsrs	r2, r2, #6
 80056b6:	3201      	adds	r2, #1
 80056b8:	fb93 f3f2 	sdiv	r3, r3, r2
 80056bc:	2001      	movs	r0, #1
 80056be:	8065      	strh	r5, [r4, #2]
 80056c0:	61a3      	str	r3, [r4, #24]
 80056c2:	60e2      	str	r2, [r4, #12]
 80056c4:	bd70      	pop	{r4, r5, r6, pc}
 80056c6:	bf00      	nop
 80056c8:	10624dd3 	.word	0x10624dd3

080056cc <STC_StopRamp>:
 80056cc:	2300      	movs	r3, #0
 80056ce:	60c3      	str	r3, [r0, #12]
 80056d0:	6183      	str	r3, [r0, #24]
 80056d2:	4770      	bx	lr

080056d4 <STC_CalcTorqueReference>:
 80056d4:	7802      	ldrb	r2, [r0, #0]
 80056d6:	68c3      	ldr	r3, [r0, #12]
 80056d8:	b570      	push	{r4, r5, r6, lr}
 80056da:	e9d0 1501 	ldrd	r1, r5, [r0, #4]
 80056de:	2a00      	cmp	r2, #0
 80056e0:	bf18      	it	ne
 80056e2:	460d      	movne	r5, r1
 80056e4:	2b01      	cmp	r3, #1
 80056e6:	d910      	bls.n	800570a <STC_CalcTorqueReference+0x36>
 80056e8:	6981      	ldr	r1, [r0, #24]
 80056ea:	3b01      	subs	r3, #1
 80056ec:	60c3      	str	r3, [r0, #12]
 80056ee:	440d      	add	r5, r1
 80056f0:	4629      	mov	r1, r5
 80056f2:	2d00      	cmp	r5, #0
 80056f4:	bfbc      	itt	lt
 80056f6:	f505 417f 	addlt.w	r1, r5, #65280	; 0xff00
 80056fa:	31ff      	addlt	r1, #255	; 0xff
 80056fc:	2a01      	cmp	r2, #1
 80056fe:	ea4f 4621 	mov.w	r6, r1, asr #16
 8005702:	d009      	beq.n	8005718 <STC_CalcTorqueReference+0x44>
 8005704:	6085      	str	r5, [r0, #8]
 8005706:	b230      	sxth	r0, r6
 8005708:	bd70      	pop	{r4, r5, r6, pc}
 800570a:	d1f1      	bne.n	80056f0 <STC_CalcTorqueReference+0x1c>
 800570c:	2300      	movs	r3, #0
 800570e:	f9b0 5002 	ldrsh.w	r5, [r0, #2]
 8005712:	60c3      	str	r3, [r0, #12]
 8005714:	042d      	lsls	r5, r5, #16
 8005716:	e7eb      	b.n	80056f0 <STC_CalcTorqueReference+0x1c>
 8005718:	4604      	mov	r4, r0
 800571a:	6940      	ldr	r0, [r0, #20]
 800571c:	f7ff ff14 	bl	8005548 <SPD_GetAvrgMecSpeedUnit>
 8005720:	1a30      	subs	r0, r6, r0
 8005722:	b201      	sxth	r1, r0
 8005724:	6920      	ldr	r0, [r4, #16]
 8005726:	f7ff f965 	bl	80049f4 <PI_Controller>
 800572a:	0403      	lsls	r3, r0, #16
 800572c:	e9c4 5301 	strd	r5, r3, [r4, #4]
 8005730:	bd70      	pop	{r4, r5, r6, pc}
 8005732:	bf00      	nop

08005734 <STC_GetMecSpeedRefUnitDefault>:
 8005734:	f9b0 002c 	ldrsh.w	r0, [r0, #44]	; 0x2c
 8005738:	4770      	bx	lr
 800573a:	bf00      	nop

0800573c <STC_GetMaxAppPositiveMecSpeedUnit>:
 800573c:	8bc0      	ldrh	r0, [r0, #30]
 800573e:	4770      	bx	lr

08005740 <STC_GetMinAppNegativeMecSpeedUnit>:
 8005740:	f9b0 0024 	ldrsh.w	r0, [r0, #36]	; 0x24
 8005744:	4770      	bx	lr
 8005746:	bf00      	nop

08005748 <STC_GetDefaultIqdref>:
 8005748:	2200      	movs	r2, #0
 800574a:	f8d0 302e 	ldr.w	r3, [r0, #46]	; 0x2e
 800574e:	b082      	sub	sp, #8
 8005750:	b299      	uxth	r1, r3
 8005752:	f361 020f 	bfi	r2, r1, #0, #16
 8005756:	0c1b      	lsrs	r3, r3, #16
 8005758:	f363 421f 	bfi	r2, r3, #16, #16
 800575c:	4610      	mov	r0, r2
 800575e:	b002      	add	sp, #8
 8005760:	4770      	bx	lr
 8005762:	bf00      	nop

08005764 <STC_ForceSpeedReferenceToCurrentSpeed>:
 8005764:	b510      	push	{r4, lr}
 8005766:	4604      	mov	r4, r0
 8005768:	6940      	ldr	r0, [r0, #20]
 800576a:	f7ff feed 	bl	8005548 <SPD_GetAvrgMecSpeedUnit>
 800576e:	0400      	lsls	r0, r0, #16
 8005770:	6060      	str	r0, [r4, #4]
 8005772:	bd10      	pop	{r4, pc}

08005774 <STM_Init>:
 8005774:	2300      	movs	r3, #0
 8005776:	7003      	strb	r3, [r0, #0]
 8005778:	f8c0 3002 	str.w	r3, [r0, #2]
 800577c:	4770      	bx	lr
 800577e:	bf00      	nop

08005780 <STM_FaultProcessing>:
 8005780:	b430      	push	{r4, r5}
 8005782:	4604      	mov	r4, r0
 8005784:	8843      	ldrh	r3, [r0, #2]
 8005786:	8885      	ldrh	r5, [r0, #4]
 8005788:	7800      	ldrb	r0, [r0, #0]
 800578a:	430b      	orrs	r3, r1
 800578c:	ea23 0202 	bic.w	r2, r3, r2
 8005790:	4329      	orrs	r1, r5
 8005792:	280a      	cmp	r0, #10
 8005794:	80a1      	strh	r1, [r4, #4]
 8005796:	8062      	strh	r2, [r4, #2]
 8005798:	d007      	beq.n	80057aa <STM_FaultProcessing+0x2a>
 800579a:	b90a      	cbnz	r2, 80057a0 <STM_FaultProcessing+0x20>
 800579c:	bc30      	pop	{r4, r5}
 800579e:	4770      	bx	lr
 80057a0:	230a      	movs	r3, #10
 80057a2:	4618      	mov	r0, r3
 80057a4:	7023      	strb	r3, [r4, #0]
 80057a6:	bc30      	pop	{r4, r5}
 80057a8:	4770      	bx	lr
 80057aa:	2a00      	cmp	r2, #0
 80057ac:	d1f6      	bne.n	800579c <STM_FaultProcessing+0x1c>
 80057ae:	200b      	movs	r0, #11
 80057b0:	7020      	strb	r0, [r4, #0]
 80057b2:	bc30      	pop	{r4, r5}
 80057b4:	4770      	bx	lr
 80057b6:	bf00      	nop

080057b8 <STM_NextState>:
 80057b8:	b508      	push	{r3, lr}
 80057ba:	7803      	ldrb	r3, [r0, #0]
 80057bc:	2b14      	cmp	r3, #20
 80057be:	d819      	bhi.n	80057f4 <STM_NextState+0x3c>
 80057c0:	e8df f003 	tbb	[pc, r3]
 80057c4:	240d1257 	.word	0x240d1257
 80057c8:	3c0d352e 	.word	0x3c0d352e
 80057cc:	1818423f 	.word	0x1818423f
 80057d0:	4a650b47 	.word	0x4a650b47
 80057d4:	53505e4d 	.word	0x53505e4d
 80057d8:	39          	.byte	0x39
 80057d9:	00          	.byte	0x00
 80057da:	290e      	cmp	r1, #14
 80057dc:	d001      	beq.n	80057e2 <STM_NextState+0x2a>
 80057de:	2907      	cmp	r1, #7
 80057e0:	d108      	bne.n	80057f4 <STM_NextState+0x3c>
 80057e2:	7001      	strb	r1, [r0, #0]
 80057e4:	2001      	movs	r0, #1
 80057e6:	bd08      	pop	{r3, pc}
 80057e8:	2907      	cmp	r1, #7
 80057ea:	d0fa      	beq.n	80057e2 <STM_NextState+0x2a>
 80057ec:	f1a1 030d 	sub.w	r3, r1, #13
 80057f0:	2b01      	cmp	r3, #1
 80057f2:	d9f6      	bls.n	80057e2 <STM_NextState+0x2a>
 80057f4:	f001 03fd 	and.w	r3, r1, #253	; 0xfd
 80057f8:	2b01      	cmp	r3, #1
 80057fa:	d00f      	beq.n	800581c <STM_NextState+0x64>
 80057fc:	2907      	cmp	r1, #7
 80057fe:	d00d      	beq.n	800581c <STM_NextState+0x64>
 8005800:	2200      	movs	r2, #0
 8005802:	2180      	movs	r1, #128	; 0x80
 8005804:	f7ff ffbc 	bl	8005780 <STM_FaultProcessing>
 8005808:	2000      	movs	r0, #0
 800580a:	bd08      	pop	{r3, pc}
 800580c:	2911      	cmp	r1, #17
 800580e:	d8f7      	bhi.n	8005800 <STM_NextState+0x48>
 8005810:	4b21      	ldr	r3, [pc, #132]	; (8005898 <STM_NextState+0xe0>)
 8005812:	40cb      	lsrs	r3, r1
 8005814:	07da      	lsls	r2, r3, #31
 8005816:	d4e4      	bmi.n	80057e2 <STM_NextState+0x2a>
 8005818:	2903      	cmp	r1, #3
 800581a:	d1f1      	bne.n	8005800 <STM_NextState+0x48>
 800581c:	2000      	movs	r0, #0
 800581e:	bd08      	pop	{r3, pc}
 8005820:	2913      	cmp	r1, #19
 8005822:	d0de      	beq.n	80057e2 <STM_NextState+0x2a>
 8005824:	f001 03fd 	and.w	r3, r1, #253	; 0xfd
 8005828:	2b05      	cmp	r3, #5
 800582a:	d1e5      	bne.n	80057f8 <STM_NextState+0x40>
 800582c:	e7d9      	b.n	80057e2 <STM_NextState+0x2a>
 800582e:	1f8b      	subs	r3, r1, #6
 8005830:	2b01      	cmp	r3, #1
 8005832:	d8df      	bhi.n	80057f4 <STM_NextState+0x3c>
 8005834:	e7d5      	b.n	80057e2 <STM_NextState+0x2a>
 8005836:	2912      	cmp	r1, #18
 8005838:	d1d1      	bne.n	80057de <STM_NextState+0x26>
 800583a:	e7d2      	b.n	80057e2 <STM_NextState+0x2a>
 800583c:	2908      	cmp	r1, #8
 800583e:	d1d9      	bne.n	80057f4 <STM_NextState+0x3c>
 8005840:	e7cf      	b.n	80057e2 <STM_NextState+0x2a>
 8005842:	2909      	cmp	r1, #9
 8005844:	d1d6      	bne.n	80057f4 <STM_NextState+0x3c>
 8005846:	e7cc      	b.n	80057e2 <STM_NextState+0x2a>
 8005848:	2900      	cmp	r1, #0
 800584a:	d0ca      	beq.n	80057e2 <STM_NextState+0x2a>
 800584c:	290c      	cmp	r1, #12
 800584e:	d1d1      	bne.n	80057f4 <STM_NextState+0x3c>
 8005850:	e7c7      	b.n	80057e2 <STM_NextState+0x2a>
 8005852:	2900      	cmp	r1, #0
 8005854:	d1ce      	bne.n	80057f4 <STM_NextState+0x3c>
 8005856:	e7c4      	b.n	80057e2 <STM_NextState+0x2a>
 8005858:	2902      	cmp	r1, #2
 800585a:	d1c0      	bne.n	80057de <STM_NextState+0x26>
 800585c:	e7c1      	b.n	80057e2 <STM_NextState+0x2a>
 800585e:	2911      	cmp	r1, #17
 8005860:	d1bd      	bne.n	80057de <STM_NextState+0x26>
 8005862:	e7be      	b.n	80057e2 <STM_NextState+0x2a>
 8005864:	2904      	cmp	r1, #4
 8005866:	d1ba      	bne.n	80057de <STM_NextState+0x26>
 8005868:	e7bb      	b.n	80057e2 <STM_NextState+0x2a>
 800586a:	1f0b      	subs	r3, r1, #4
 800586c:	2b01      	cmp	r3, #1
 800586e:	d8b6      	bhi.n	80057de <STM_NextState+0x26>
 8005870:	e7b7      	b.n	80057e2 <STM_NextState+0x2a>
 8005872:	f001 03fd 	and.w	r3, r1, #253	; 0xfd
 8005876:	2b01      	cmp	r3, #1
 8005878:	d0b3      	beq.n	80057e2 <STM_NextState+0x2a>
 800587a:	290c      	cmp	r1, #12
 800587c:	d1be      	bne.n	80057fc <STM_NextState+0x44>
 800587e:	e7b0      	b.n	80057e2 <STM_NextState+0x2a>
 8005880:	2914      	cmp	r1, #20
 8005882:	d8b7      	bhi.n	80057f4 <STM_NextState+0x3c>
 8005884:	4b05      	ldr	r3, [pc, #20]	; (800589c <STM_NextState+0xe4>)
 8005886:	40cb      	lsrs	r3, r1
 8005888:	07db      	lsls	r3, r3, #31
 800588a:	d4aa      	bmi.n	80057e2 <STM_NextState+0x2a>
 800588c:	e7b2      	b.n	80057f4 <STM_NextState+0x3c>
 800588e:	f001 03f7 	and.w	r3, r1, #247	; 0xf7
 8005892:	2b07      	cmp	r3, #7
 8005894:	d1ae      	bne.n	80057f4 <STM_NextState+0x3c>
 8005896:	e7a4      	b.n	80057e2 <STM_NextState+0x2a>
 8005898:	00030092 	.word	0x00030092
 800589c:	00140080 	.word	0x00140080

080058a0 <STM_GetState>:
 80058a0:	7800      	ldrb	r0, [r0, #0]
 80058a2:	4770      	bx	lr

080058a4 <STM_FaultAcknowledged>:
 80058a4:	7803      	ldrb	r3, [r0, #0]
 80058a6:	2b0b      	cmp	r3, #11
 80058a8:	d001      	beq.n	80058ae <STM_FaultAcknowledged+0xa>
 80058aa:	2000      	movs	r0, #0
 80058ac:	4770      	bx	lr
 80058ae:	2209      	movs	r2, #9
 80058b0:	2300      	movs	r3, #0
 80058b2:	7002      	strb	r2, [r0, #0]
 80058b4:	8083      	strh	r3, [r0, #4]
 80058b6:	2001      	movs	r0, #1
 80058b8:	4770      	bx	lr
 80058ba:	bf00      	nop

080058bc <STM_GetFaultState>:
 80058bc:	8883      	ldrh	r3, [r0, #4]
 80058be:	8840      	ldrh	r0, [r0, #2]
 80058c0:	ea43 4000 	orr.w	r0, r3, r0, lsl #16
 80058c4:	4770      	bx	lr
 80058c6:	bf00      	nop

080058c8 <UFCP_Init>:
 80058c8:	f7fe bbbe 	b.w	8004048 <FCP_Init>

080058cc <UFCP_TX_IRQ_Handler>:
 80058cc:	f890 2097 	ldrb.w	r2, [r0, #151]	; 0x97
 80058d0:	b192      	cbz	r2, 80058f8 <UFCP_TX_IRQ_Handler+0x2c>
 80058d2:	f890 1098 	ldrb.w	r1, [r0, #152]	; 0x98
 80058d6:	4603      	mov	r3, r0
 80058d8:	f8d0 2120 	ldr.w	r2, [r0, #288]	; 0x120
 80058dc:	b199      	cbz	r1, 8005906 <UFCP_TX_IRQ_Handler+0x3a>
 80058de:	2901      	cmp	r1, #1
 80058e0:	d00b      	beq.n	80058fa <UFCP_TX_IRQ_Handler+0x2e>
 80058e2:	7d40      	ldrb	r0, [r0, #21]
 80058e4:	3001      	adds	r0, #1
 80058e6:	4281      	cmp	r1, r0
 80058e8:	dc0f      	bgt.n	800590a <UFCP_TX_IRQ_Handler+0x3e>
 80058ea:	1858      	adds	r0, r3, r1
 80058ec:	7d00      	ldrb	r0, [r0, #20]
 80058ee:	3101      	adds	r1, #1
 80058f0:	6050      	str	r0, [r2, #4]
 80058f2:	f883 1098 	strb.w	r1, [r3, #152]	; 0x98
 80058f6:	4770      	bx	lr
 80058f8:	4770      	bx	lr
 80058fa:	7d40      	ldrb	r0, [r0, #21]
 80058fc:	3101      	adds	r1, #1
 80058fe:	6050      	str	r0, [r2, #4]
 8005900:	f883 1098 	strb.w	r1, [r3, #152]	; 0x98
 8005904:	4770      	bx	lr
 8005906:	7d00      	ldrb	r0, [r0, #20]
 8005908:	e7f8      	b.n	80058fc <UFCP_TX_IRQ_Handler+0x30>
 800590a:	b430      	push	{r4, r5}
 800590c:	2500      	movs	r5, #0
 800590e:	f893 1096 	ldrb.w	r1, [r3, #150]	; 0x96
 8005912:	685c      	ldr	r4, [r3, #4]
 8005914:	6051      	str	r1, [r2, #4]
 8005916:	68d1      	ldr	r1, [r2, #12]
 8005918:	6818      	ldr	r0, [r3, #0]
 800591a:	f021 0180 	bic.w	r1, r1, #128	; 0x80
 800591e:	60d1      	str	r1, [r2, #12]
 8005920:	f883 5097 	strb.w	r5, [r3, #151]	; 0x97
 8005924:	4623      	mov	r3, r4
 8005926:	bc30      	pop	{r4, r5}
 8005928:	4718      	bx	r3
 800592a:	bf00      	nop

0800592c <UFCP_Receive>:
 800592c:	f890 311c 	ldrb.w	r3, [r0, #284]	; 0x11c
 8005930:	b10b      	cbz	r3, 8005936 <UFCP_Receive+0xa>
 8005932:	2001      	movs	r0, #1
 8005934:	4770      	bx	lr
 8005936:	2101      	movs	r1, #1
 8005938:	f8d0 2120 	ldr.w	r2, [r0, #288]	; 0x120
 800593c:	f880 311d 	strb.w	r3, [r0, #285]	; 0x11d
 8005940:	68d3      	ldr	r3, [r2, #12]
 8005942:	f880 111c 	strb.w	r1, [r0, #284]	; 0x11c
 8005946:	f043 0320 	orr.w	r3, r3, #32
 800594a:	60d3      	str	r3, [r2, #12]
 800594c:	2002      	movs	r0, #2
 800594e:	4770      	bx	lr

08005950 <UFCP_Send>:
 8005950:	e92d 41f0 	stmdb	sp!, {r4, r5, r6, r7, r8, lr}
 8005954:	4604      	mov	r4, r0
 8005956:	f890 0097 	ldrb.w	r0, [r0, #151]	; 0x97
 800595a:	b110      	cbz	r0, 8005962 <UFCP_Send+0x12>
 800595c:	2001      	movs	r0, #1
 800595e:	e8bd 81f0 	ldmia.w	sp!, {r4, r5, r6, r7, r8, pc}
 8005962:	1e58      	subs	r0, r3, #1
 8005964:	7521      	strb	r1, [r4, #20]
 8005966:	7563      	strb	r3, [r4, #21]
 8005968:	b2c1      	uxtb	r1, r0
 800596a:	f104 0716 	add.w	r7, r4, #22
 800596e:	2b00      	cmp	r3, #0
 8005970:	d05b      	beq.n	8005a2a <UFCP_Send+0xda>
 8005972:	1d10      	adds	r0, r2, #4
 8005974:	f104 051a 	add.w	r5, r4, #26
 8005978:	4295      	cmp	r5, r2
 800597a:	bf88      	it	hi
 800597c:	42b8      	cmphi	r0, r7
 800597e:	d869      	bhi.n	8005a54 <UFCP_Send+0x104>
 8005980:	2b0b      	cmp	r3, #11
 8005982:	d967      	bls.n	8005a54 <UFCP_Send+0x104>
 8005984:	4250      	negs	r0, r2
 8005986:	f000 0003 	and.w	r0, r0, #3
 800598a:	1cc5      	adds	r5, r0, #3
 800598c:	42a9      	cmp	r1, r5
 800598e:	d337      	bcc.n	8005a00 <UFCP_Send+0xb0>
 8005990:	2800      	cmp	r0, #0
 8005992:	d06a      	beq.n	8005a6a <UFCP_Send+0x11a>
 8005994:	7815      	ldrb	r5, [r2, #0]
 8005996:	1e99      	subs	r1, r3, #2
 8005998:	2801      	cmp	r0, #1
 800599a:	75a5      	strb	r5, [r4, #22]
 800599c:	b2c9      	uxtb	r1, r1
 800599e:	f102 0c01 	add.w	ip, r2, #1
 80059a2:	f104 0717 	add.w	r7, r4, #23
 80059a6:	d011      	beq.n	80059cc <UFCP_Send+0x7c>
 80059a8:	7855      	ldrb	r5, [r2, #1]
 80059aa:	1ed9      	subs	r1, r3, #3
 80059ac:	2803      	cmp	r0, #3
 80059ae:	75e5      	strb	r5, [r4, #23]
 80059b0:	b2c9      	uxtb	r1, r1
 80059b2:	f102 0c02 	add.w	ip, r2, #2
 80059b6:	f104 0718 	add.w	r7, r4, #24
 80059ba:	d107      	bne.n	80059cc <UFCP_Send+0x7c>
 80059bc:	7895      	ldrb	r5, [r2, #2]
 80059be:	1f19      	subs	r1, r3, #4
 80059c0:	7625      	strb	r5, [r4, #24]
 80059c2:	b2c9      	uxtb	r1, r1
 80059c4:	f102 0c03 	add.w	ip, r2, #3
 80059c8:	f104 0719 	add.w	r7, r4, #25
 80059cc:	2600      	movs	r6, #0
 80059ce:	1a1b      	subs	r3, r3, r0
 80059d0:	b2db      	uxtb	r3, r3
 80059d2:	f100 0516 	add.w	r5, r0, #22
 80059d6:	4402      	add	r2, r0
 80059d8:	ea4f 0893 	mov.w	r8, r3, lsr #2
 80059dc:	1960      	adds	r0, r4, r5
 80059de:	3601      	adds	r6, #1
 80059e0:	f852 eb04 	ldr.w	lr, [r2], #4
 80059e4:	b2f5      	uxtb	r5, r6
 80059e6:	45a8      	cmp	r8, r5
 80059e8:	f840 eb04 	str.w	lr, [r0], #4
 80059ec:	d8f7      	bhi.n	80059de <UFCP_Send+0x8e>
 80059ee:	f003 00fc 	and.w	r0, r3, #252	; 0xfc
 80059f2:	1a09      	subs	r1, r1, r0
 80059f4:	4283      	cmp	r3, r0
 80059f6:	b2c9      	uxtb	r1, r1
 80059f8:	eb0c 0200 	add.w	r2, ip, r0
 80059fc:	4407      	add	r7, r0
 80059fe:	d014      	beq.n	8005a2a <UFCP_Send+0xda>
 8005a00:	7813      	ldrb	r3, [r2, #0]
 8005a02:	703b      	strb	r3, [r7, #0]
 8005a04:	b189      	cbz	r1, 8005a2a <UFCP_Send+0xda>
 8005a06:	7853      	ldrb	r3, [r2, #1]
 8005a08:	2901      	cmp	r1, #1
 8005a0a:	707b      	strb	r3, [r7, #1]
 8005a0c:	d00d      	beq.n	8005a2a <UFCP_Send+0xda>
 8005a0e:	7893      	ldrb	r3, [r2, #2]
 8005a10:	2902      	cmp	r1, #2
 8005a12:	70bb      	strb	r3, [r7, #2]
 8005a14:	d009      	beq.n	8005a2a <UFCP_Send+0xda>
 8005a16:	78d3      	ldrb	r3, [r2, #3]
 8005a18:	2903      	cmp	r1, #3
 8005a1a:	70fb      	strb	r3, [r7, #3]
 8005a1c:	d005      	beq.n	8005a2a <UFCP_Send+0xda>
 8005a1e:	7913      	ldrb	r3, [r2, #4]
 8005a20:	2904      	cmp	r1, #4
 8005a22:	713b      	strb	r3, [r7, #4]
 8005a24:	d001      	beq.n	8005a2a <UFCP_Send+0xda>
 8005a26:	7953      	ldrb	r3, [r2, #5]
 8005a28:	717b      	strb	r3, [r7, #5]
 8005a2a:	f104 0014 	add.w	r0, r4, #20
 8005a2e:	f7fe fb21 	bl	8004074 <FCP_CalcCRC>
 8005a32:	2300      	movs	r3, #0
 8005a34:	2101      	movs	r1, #1
 8005a36:	f8d4 2120 	ldr.w	r2, [r4, #288]	; 0x120
 8005a3a:	f884 0096 	strb.w	r0, [r4, #150]	; 0x96
 8005a3e:	f884 3098 	strb.w	r3, [r4, #152]	; 0x98
 8005a42:	68d3      	ldr	r3, [r2, #12]
 8005a44:	2002      	movs	r0, #2
 8005a46:	f043 0380 	orr.w	r3, r3, #128	; 0x80
 8005a4a:	f884 1097 	strb.w	r1, [r4, #151]	; 0x97
 8005a4e:	60d3      	str	r3, [r2, #12]
 8005a50:	e8bd 81f0 	ldmia.w	sp!, {r4, r5, r6, r7, r8, pc}
 8005a54:	3101      	adds	r1, #1
 8005a56:	4411      	add	r1, r2
 8005a58:	f104 0315 	add.w	r3, r4, #21
 8005a5c:	f812 0b01 	ldrb.w	r0, [r2], #1
 8005a60:	428a      	cmp	r2, r1
 8005a62:	f803 0f01 	strb.w	r0, [r3, #1]!
 8005a66:	d1f9      	bne.n	8005a5c <UFCP_Send+0x10c>
 8005a68:	e7df      	b.n	8005a2a <UFCP_Send+0xda>
 8005a6a:	4694      	mov	ip, r2
 8005a6c:	e7ae      	b.n	80059cc <UFCP_Send+0x7c>
 8005a6e:	bf00      	nop

08005a70 <UFCP_RX_IRQ_Handler>:
 8005a70:	f890 311c 	ldrb.w	r3, [r0, #284]	; 0x11c
 8005a74:	b163      	cbz	r3, 8005a90 <UFCP_RX_IRQ_Handler+0x20>
 8005a76:	f890 311d 	ldrb.w	r3, [r0, #285]	; 0x11d
 8005a7a:	b2ca      	uxtb	r2, r1
 8005a7c:	b1cb      	cbz	r3, 8005ab2 <UFCP_RX_IRQ_Handler+0x42>
 8005a7e:	2b01      	cmp	r3, #1
 8005a80:	d109      	bne.n	8005a96 <UFCP_RX_IRQ_Handler+0x26>
 8005a82:	060b      	lsls	r3, r1, #24
 8005a84:	f880 209a 	strb.w	r2, [r0, #154]	; 0x9a
 8005a88:	d441      	bmi.n	8005b0e <UFCP_RX_IRQ_Handler+0x9e>
 8005a8a:	2302      	movs	r3, #2
 8005a8c:	f880 311d 	strb.w	r3, [r0, #285]	; 0x11d
 8005a90:	4a27      	ldr	r2, [pc, #156]	; (8005b30 <UFCP_RX_IRQ_Handler+0xc0>)
 8005a92:	4610      	mov	r0, r2
 8005a94:	4770      	bx	lr
 8005a96:	f890 109a 	ldrb.w	r1, [r0, #154]	; 0x9a
 8005a9a:	3101      	adds	r1, #1
 8005a9c:	428b      	cmp	r3, r1
 8005a9e:	dc12      	bgt.n	8005ac6 <UFCP_RX_IRQ_Handler+0x56>
 8005aa0:	18c1      	adds	r1, r0, r3
 8005aa2:	f881 2099 	strb.w	r2, [r1, #153]	; 0x99
 8005aa6:	4a22      	ldr	r2, [pc, #136]	; (8005b30 <UFCP_RX_IRQ_Handler+0xc0>)
 8005aa8:	3301      	adds	r3, #1
 8005aaa:	f880 311d 	strb.w	r3, [r0, #285]	; 0x11d
 8005aae:	4610      	mov	r0, r2
 8005ab0:	4770      	bx	lr
 8005ab2:	2101      	movs	r1, #1
 8005ab4:	8a03      	ldrh	r3, [r0, #16]
 8005ab6:	f880 2099 	strb.w	r2, [r0, #153]	; 0x99
 8005aba:	4a1e      	ldr	r2, [pc, #120]	; (8005b34 <UFCP_RX_IRQ_Handler+0xc4>)
 8005abc:	f880 111d 	strb.w	r1, [r0, #285]	; 0x11d
 8005ac0:	8243      	strh	r3, [r0, #18]
 8005ac2:	4610      	mov	r0, r2
 8005ac4:	4770      	bx	lr
 8005ac6:	b530      	push	{r4, r5, lr}
 8005ac8:	4604      	mov	r4, r0
 8005aca:	2100      	movs	r1, #0
 8005acc:	f8d0 0120 	ldr.w	r0, [r0, #288]	; 0x120
 8005ad0:	f884 211b 	strb.w	r2, [r4, #283]	; 0x11b
 8005ad4:	68c3      	ldr	r3, [r0, #12]
 8005ad6:	b083      	sub	sp, #12
 8005ad8:	f023 0320 	bic.w	r3, r3, #32
 8005adc:	8261      	strh	r1, [r4, #18]
 8005ade:	60c3      	str	r3, [r0, #12]
 8005ae0:	f104 0099 	add.w	r0, r4, #153	; 0x99
 8005ae4:	f884 111c 	strb.w	r1, [r4, #284]	; 0x11c
 8005ae8:	f7fe fac4 	bl	8004074 <FCP_CalcCRC>
 8005aec:	f894 311b 	ldrb.w	r3, [r4, #283]	; 0x11b
 8005af0:	4283      	cmp	r3, r0
 8005af2:	d111      	bne.n	8005b18 <UFCP_RX_IRQ_Handler+0xa8>
 8005af4:	f104 029b 	add.w	r2, r4, #155	; 0x9b
 8005af8:	68a5      	ldr	r5, [r4, #8]
 8005afa:	f894 309a 	ldrb.w	r3, [r4, #154]	; 0x9a
 8005afe:	f894 1099 	ldrb.w	r1, [r4, #153]	; 0x99
 8005b02:	6820      	ldr	r0, [r4, #0]
 8005b04:	47a8      	blx	r5
 8005b06:	4a0c      	ldr	r2, [pc, #48]	; (8005b38 <UFCP_RX_IRQ_Handler+0xc8>)
 8005b08:	4610      	mov	r0, r2
 8005b0a:	b003      	add	sp, #12
 8005b0c:	bd30      	pop	{r4, r5, pc}
 8005b0e:	2300      	movs	r3, #0
 8005b10:	4a07      	ldr	r2, [pc, #28]	; (8005b30 <UFCP_RX_IRQ_Handler+0xc0>)
 8005b12:	f880 311d 	strb.w	r3, [r0, #285]	; 0x11d
 8005b16:	e7bc      	b.n	8005a92 <UFCP_RX_IRQ_Handler+0x22>
 8005b18:	230a      	movs	r3, #10
 8005b1a:	aa02      	add	r2, sp, #8
 8005b1c:	f802 3d01 	strb.w	r3, [r2, #-1]!
 8005b20:	4620      	mov	r0, r4
 8005b22:	2301      	movs	r3, #1
 8005b24:	21ff      	movs	r1, #255	; 0xff
 8005b26:	f7ff ff13 	bl	8005950 <UFCP_Send>
 8005b2a:	4a03      	ldr	r2, [pc, #12]	; (8005b38 <UFCP_RX_IRQ_Handler+0xc8>)
 8005b2c:	e7ec      	b.n	8005b08 <UFCP_RX_IRQ_Handler+0x98>
 8005b2e:	bf00      	nop
 8005b30:	080060cc 	.word	0x080060cc
 8005b34:	080060ce 	.word	0x080060ce
 8005b38:	080060d0 	.word	0x080060d0

08005b3c <UFCP_OVR_IRQ_Handler>:
 8005b3c:	2308      	movs	r3, #8
 8005b3e:	b500      	push	{lr}
 8005b40:	b083      	sub	sp, #12
 8005b42:	eb0d 0203 	add.w	r2, sp, r3
 8005b46:	f802 3d01 	strb.w	r3, [r2, #-1]!
 8005b4a:	21ff      	movs	r1, #255	; 0xff
 8005b4c:	2301      	movs	r3, #1
 8005b4e:	f7ff feff 	bl	8005950 <UFCP_Send>
 8005b52:	b003      	add	sp, #12
 8005b54:	f85d fb04 	ldr.w	pc, [sp], #4

08005b58 <UFCP_AbortReceive>:
 8005b58:	2300      	movs	r3, #0
 8005b5a:	f880 311c 	strb.w	r3, [r0, #284]	; 0x11c
 8005b5e:	4770      	bx	lr

08005b60 <FF_Init>:
 8005b60:	b430      	push	{r4, r5}
 8005b62:	e9d0 540a 	ldrd	r5, r4, [r0, #40]	; 0x28
 8005b66:	6181      	str	r1, [r0, #24]
 8005b68:	6b01      	ldr	r1, [r0, #48]	; 0x30
 8005b6a:	e9c0 5403 	strd	r5, r4, [r0, #12]
 8005b6e:	bc30      	pop	{r4, r5}
 8005b70:	e9c0 3207 	strd	r3, r2, [r0, #28]
 8005b74:	6141      	str	r1, [r0, #20]
 8005b76:	4770      	bx	lr

08005b78 <FF_Clear>:
 8005b78:	2300      	movs	r3, #0
 8005b7a:	6003      	str	r3, [r0, #0]
 8005b7c:	4770      	bx	lr
 8005b7e:	bf00      	nop

08005b80 <FF_VqdffComputation>:
 8005b80:	b530      	push	{r4, r5, lr}
 8005b82:	4605      	mov	r5, r0
 8005b84:	b083      	sub	sp, #12
 8005b86:	4610      	mov	r0, r2
 8005b88:	9101      	str	r1, [sp, #4]
 8005b8a:	f7ff fd37 	bl	80055fc <STC_GetSpeedSensor>
 8005b8e:	f7ff fcdf 	bl	8005550 <SPD_GetElSpeedDpp>
 8005b92:	4b26      	ldr	r3, [pc, #152]	; (8005c2c <FF_VqdffComputation+0xac>)
 8005b94:	4604      	mov	r4, r0
 8005b96:	6818      	ldr	r0, [r3, #0]
 8005b98:	f7fe fa1c 	bl	8003fd4 <VBS_GetAvBusVoltage_d>
 8005b9c:	f3c0 004f 	ubfx	r0, r0, #1, #16
 8005ba0:	2800      	cmp	r0, #0
 8005ba2:	d040      	beq.n	8005c26 <FF_VqdffComputation+0xa6>
 8005ba4:	f9bd 2006 	ldrsh.w	r2, [sp, #6]
 8005ba8:	68eb      	ldr	r3, [r5, #12]
 8005baa:	fb04 f202 	mul.w	r2, r4, r2
 8005bae:	2a00      	cmp	r2, #0
 8005bb0:	bfbc      	itt	lt
 8005bb2:	f502 42ff 	addlt.w	r2, r2, #32640	; 0x7f80
 8005bb6:	327f      	addlt	r2, #127	; 0x7f
 8005bb8:	13d2      	asrs	r2, r2, #15
 8005bba:	6969      	ldr	r1, [r5, #20]
 8005bbc:	fb03 f302 	mul.w	r3, r3, r2
 8005bc0:	fb01 f104 	mul.w	r1, r1, r4
 8005bc4:	fb93 f3f0 	sdiv	r3, r3, r0
 8005bc8:	fb91 f1f0 	sdiv	r1, r1, r0
 8005bcc:	f9b5 2008 	ldrsh.w	r2, [r5, #8]
 8005bd0:	005b      	lsls	r3, r3, #1
 8005bd2:	eb03 1301 	add.w	r3, r3, r1, lsl #4
 8005bd6:	4916      	ldr	r1, [pc, #88]	; (8005c30 <FF_VqdffComputation+0xb0>)
 8005bd8:	4413      	add	r3, r2
 8005bda:	428b      	cmp	r3, r1
 8005bdc:	bfb8      	it	lt
 8005bde:	460b      	movlt	r3, r1
 8005be0:	f647 72ff 	movw	r2, #32767	; 0x7fff
 8005be4:	4293      	cmp	r3, r2
 8005be6:	bfa8      	it	ge
 8005be8:	4613      	movge	r3, r2
 8005bea:	f9bd 1004 	ldrsh.w	r1, [sp, #4]
 8005bee:	802b      	strh	r3, [r5, #0]
 8005bf0:	fb04 f401 	mul.w	r4, r4, r1
 8005bf4:	2c00      	cmp	r4, #0
 8005bf6:	bfb8      	it	lt
 8005bf8:	18a4      	addlt	r4, r4, r2
 8005bfa:	692b      	ldr	r3, [r5, #16]
 8005bfc:	13e4      	asrs	r4, r4, #15
 8005bfe:	fb03 f404 	mul.w	r4, r3, r4
 8005c02:	fb94 f4f0 	sdiv	r4, r4, r0
 8005c06:	f9b5 000a 	ldrsh.w	r0, [r5, #10]
 8005c0a:	4b09      	ldr	r3, [pc, #36]	; (8005c30 <FF_VqdffComputation+0xb0>)
 8005c0c:	eba0 0044 	sub.w	r0, r0, r4, lsl #1
 8005c10:	4298      	cmp	r0, r3
 8005c12:	bfb8      	it	lt
 8005c14:	4618      	movlt	r0, r3
 8005c16:	f647 74ff 	movw	r4, #32767	; 0x7fff
 8005c1a:	42a0      	cmp	r0, r4
 8005c1c:	bfa8      	it	ge
 8005c1e:	4620      	movge	r0, r4
 8005c20:	8068      	strh	r0, [r5, #2]
 8005c22:	b003      	add	sp, #12
 8005c24:	bd30      	pop	{r4, r5, pc}
 8005c26:	6028      	str	r0, [r5, #0]
 8005c28:	b003      	add	sp, #12
 8005c2a:	bd30      	pop	{r4, r5, pc}
 8005c2c:	20000824 	.word	0x20000824
 8005c30:	ffff8001 	.word	0xffff8001

08005c34 <FF_VqdConditioning>:
 8005c34:	b430      	push	{r4, r5}
 8005c36:	4604      	mov	r4, r0
 8005c38:	f9b0 0000 	ldrsh.w	r0, [r0]
 8005c3c:	4d10      	ldr	r5, [pc, #64]	; (8005c80 <FF_VqdConditioning+0x4c>)
 8005c3e:	f9b4 3002 	ldrsh.w	r3, [r4, #2]
 8005c42:	b20a      	sxth	r2, r1
 8005c44:	4402      	add	r2, r0
 8005c46:	eb03 4321 	add.w	r3, r3, r1, asr #16
 8005c4a:	42aa      	cmp	r2, r5
 8005c4c:	f647 70ff 	movw	r0, #32767	; 0x7fff
 8005c50:	bfb8      	it	lt
 8005c52:	462a      	movlt	r2, r5
 8005c54:	42ab      	cmp	r3, r5
 8005c56:	bfb8      	it	lt
 8005c58:	462b      	movlt	r3, r5
 8005c5a:	4282      	cmp	r2, r0
 8005c5c:	bfa8      	it	ge
 8005c5e:	4602      	movge	r2, r0
 8005c60:	4283      	cmp	r3, r0
 8005c62:	bfa8      	it	ge
 8005c64:	4603      	movge	r3, r0
 8005c66:	2000      	movs	r0, #0
 8005c68:	b292      	uxth	r2, r2
 8005c6a:	b29b      	uxth	r3, r3
 8005c6c:	f362 000f 	bfi	r0, r2, #0, #16
 8005c70:	b084      	sub	sp, #16
 8005c72:	f363 401f 	bfi	r0, r3, #16, #16
 8005c76:	6061      	str	r1, [r4, #4]
 8005c78:	b004      	add	sp, #16
 8005c7a:	bc30      	pop	{r4, r5}
 8005c7c:	4770      	bx	lr
 8005c7e:	bf00      	nop
 8005c80:	ffff8001 	.word	0xffff8001

08005c84 <FF_DataProcess>:
 8005c84:	8c81      	ldrh	r1, [r0, #36]	; 0x24
 8005c86:	b430      	push	{r4, r5}
 8005c88:	f9b0 2008 	ldrsh.w	r2, [r0, #8]
 8005c8c:	f9b0 5004 	ldrsh.w	r5, [r0, #4]
 8005c90:	f9b0 300a 	ldrsh.w	r3, [r0, #10]
 8005c94:	f9b0 4006 	ldrsh.w	r4, [r0, #6]
 8005c98:	3901      	subs	r1, #1
 8005c9a:	fb01 5202 	mla	r2, r1, r2, r5
 8005c9e:	fb01 4303 	mla	r3, r1, r3, r4
 8005ca2:	bc30      	pop	{r4, r5}
 8005ca4:	8e81      	ldrh	r1, [r0, #52]	; 0x34
 8005ca6:	410a      	asrs	r2, r1
 8005ca8:	410b      	asrs	r3, r1
 8005caa:	8102      	strh	r2, [r0, #8]
 8005cac:	8143      	strh	r3, [r0, #10]
 8005cae:	4770      	bx	lr

08005cb0 <FF_InitFOCAdditionalMethods>:
 8005cb0:	b538      	push	{r3, r4, r5, lr}
 8005cb2:	4604      	mov	r4, r0
 8005cb4:	2500      	movs	r5, #0
 8005cb6:	69c0      	ldr	r0, [r0, #28]
 8005cb8:	4629      	mov	r1, r5
 8005cba:	60a5      	str	r5, [r4, #8]
 8005cbc:	f7fe fe8e 	bl	80049dc <PID_SetIntegralTerm>
 8005cc0:	4629      	mov	r1, r5
 8005cc2:	6a20      	ldr	r0, [r4, #32]
 8005cc4:	e8bd 4038 	ldmia.w	sp!, {r3, r4, r5, lr}
 8005cc8:	f7fe be88 	b.w	80049dc <PID_SetIntegralTerm>

08005ccc <FF_SetFFConstants>:
 8005ccc:	b084      	sub	sp, #16
 8005cce:	f10d 0c10 	add.w	ip, sp, #16
 8005cd2:	e90c 000e 	stmdb	ip, {r1, r2, r3}
 8005cd6:	9b03      	ldr	r3, [sp, #12]
 8005cd8:	e9dd 1201 	ldrd	r1, r2, [sp, #4]
 8005cdc:	6143      	str	r3, [r0, #20]
 8005cde:	e9c0 1203 	strd	r1, r2, [r0, #12]
 8005ce2:	b004      	add	sp, #16
 8005ce4:	4770      	bx	lr
 8005ce6:	bf00      	nop

08005ce8 <FF_GetFFConstants>:
 8005ce8:	b430      	push	{r4, r5}
 8005cea:	e9d1 4503 	ldrd	r4, r5, [r1, #12]
 8005cee:	694a      	ldr	r2, [r1, #20]
 8005cf0:	e9c0 4500 	strd	r4, r5, [r0]
 8005cf4:	bc30      	pop	{r4, r5}
 8005cf6:	6082      	str	r2, [r0, #8]
 8005cf8:	4770      	bx	lr
 8005cfa:	bf00      	nop

08005cfc <FF_GetVqdff>:
 8005cfc:	2200      	movs	r2, #0
 8005cfe:	6803      	ldr	r3, [r0, #0]
 8005d00:	b082      	sub	sp, #8
 8005d02:	b299      	uxth	r1, r3
 8005d04:	f361 020f 	bfi	r2, r1, #0, #16
 8005d08:	0c1b      	lsrs	r3, r3, #16
 8005d0a:	f363 421f 	bfi	r2, r3, #16, #16
 8005d0e:	4610      	mov	r0, r2
 8005d10:	b002      	add	sp, #8
 8005d12:	4770      	bx	lr

08005d14 <FF_GetVqdAvPIout>:
 8005d14:	2200      	movs	r2, #0
 8005d16:	6803      	ldr	r3, [r0, #0]
 8005d18:	b082      	sub	sp, #8
 8005d1a:	b299      	uxth	r1, r3
 8005d1c:	f361 020f 	bfi	r2, r1, #0, #16
 8005d20:	0c1b      	lsrs	r3, r3, #16
 8005d22:	f363 421f 	bfi	r2, r3, #16, #16
 8005d26:	4610      	mov	r0, r2
 8005d28:	b002      	add	sp, #8
 8005d2a:	4770      	bx	lr

08005d2c <RUC_SetPhaseDurationms>:
 8005d2c:	eb01 0141 	add.w	r1, r1, r1, lsl #1
 8005d30:	eb00 0181 	add.w	r1, r0, r1, lsl #2
 8005d34:	818a      	strh	r2, [r1, #12]
 8005d36:	4770      	bx	lr

08005d38 <RUC_SetPhaseFinalMecSpeedUnit>:
 8005d38:	eb01 0141 	add.w	r1, r1, r1, lsl #1
 8005d3c:	eb00 0181 	add.w	r1, r0, r1, lsl #2
 8005d40:	81ca      	strh	r2, [r1, #14]
 8005d42:	4770      	bx	lr

08005d44 <RUC_SetPhaseFinalTorque>:
 8005d44:	eb01 0141 	add.w	r1, r1, r1, lsl #1
 8005d48:	eb00 0181 	add.w	r1, r0, r1, lsl #2
 8005d4c:	820a      	strh	r2, [r1, #16]
 8005d4e:	4770      	bx	lr

08005d50 <RUC_GetPhaseDurationms>:
 8005d50:	eb01 0141 	add.w	r1, r1, r1, lsl #1
 8005d54:	eb00 0181 	add.w	r1, r0, r1, lsl #2
 8005d58:	8988      	ldrh	r0, [r1, #12]
 8005d5a:	4770      	bx	lr

08005d5c <RUC_GetPhaseFinalMecSpeedUnit>:
 8005d5c:	eb01 0141 	add.w	r1, r1, r1, lsl #1
 8005d60:	eb00 0181 	add.w	r1, r0, r1, lsl #2
 8005d64:	f9b1 000e 	ldrsh.w	r0, [r1, #14]
 8005d68:	4770      	bx	lr
 8005d6a:	bf00      	nop

08005d6c <RUC_GetPhaseFinalTorque>:
 8005d6c:	eb01 0141 	add.w	r1, r1, r1, lsl #1
 8005d70:	eb00 0181 	add.w	r1, r0, r1, lsl #2
 8005d74:	f9b1 0010 	ldrsh.w	r0, [r1, #16]
 8005d78:	4770      	bx	lr
 8005d7a:	bf00      	nop

08005d7c <RUC_GetNumberOfPhases>:
 8005d7c:	f890 0048 	ldrb.w	r0, [r0, #72]	; 0x48
 8005d80:	4770      	bx	lr
 8005d82:	bf00      	nop

08005d84 <__libc_init_array>:
 8005d84:	b570      	push	{r4, r5, r6, lr}
 8005d86:	2500      	movs	r5, #0
 8005d88:	4e0c      	ldr	r6, [pc, #48]	; (8005dbc <__libc_init_array+0x38>)
 8005d8a:	4c0d      	ldr	r4, [pc, #52]	; (8005dc0 <__libc_init_array+0x3c>)
 8005d8c:	1ba4      	subs	r4, r4, r6
 8005d8e:	10a4      	asrs	r4, r4, #2
 8005d90:	42a5      	cmp	r5, r4
 8005d92:	d109      	bne.n	8005da8 <__libc_init_array+0x24>
 8005d94:	f000 f822 	bl	8005ddc <_init>
 8005d98:	2500      	movs	r5, #0
 8005d9a:	4e0a      	ldr	r6, [pc, #40]	; (8005dc4 <__libc_init_array+0x40>)
 8005d9c:	4c0a      	ldr	r4, [pc, #40]	; (8005dc8 <__libc_init_array+0x44>)
 8005d9e:	1ba4      	subs	r4, r4, r6
 8005da0:	10a4      	asrs	r4, r4, #2
 8005da2:	42a5      	cmp	r5, r4
 8005da4:	d105      	bne.n	8005db2 <__libc_init_array+0x2e>
 8005da6:	bd70      	pop	{r4, r5, r6, pc}
 8005da8:	f856 3025 	ldr.w	r3, [r6, r5, lsl #2]
 8005dac:	4798      	blx	r3
 8005dae:	3501      	adds	r5, #1
 8005db0:	e7ee      	b.n	8005d90 <__libc_init_array+0xc>
 8005db2:	f856 3025 	ldr.w	r3, [r6, r5, lsl #2]
 8005db6:	4798      	blx	r3
 8005db8:	3501      	adds	r5, #1
 8005dba:	e7f2      	b.n	8005da2 <__libc_init_array+0x1e>
 8005dbc:	080060d4 	.word	0x080060d4
 8005dc0:	080060d4 	.word	0x080060d4
 8005dc4:	080060d4 	.word	0x080060d4
 8005dc8:	080060d8 	.word	0x080060d8

08005dcc <memset>:
 8005dcc:	4603      	mov	r3, r0
 8005dce:	4402      	add	r2, r0
 8005dd0:	4293      	cmp	r3, r2
 8005dd2:	d100      	bne.n	8005dd6 <memset+0xa>
 8005dd4:	4770      	bx	lr
 8005dd6:	f803 1b01 	strb.w	r1, [r3], #1
 8005dda:	e7f9      	b.n	8005dd0 <memset+0x4>

08005ddc <_init>:
 8005ddc:	b5f8      	push	{r3, r4, r5, r6, r7, lr}
 8005dde:	bf00      	nop
 8005de0:	bcf8      	pop	{r3, r4, r5, r6, r7}
 8005de2:	bc08      	pop	{r3}
 8005de4:	469e      	mov	lr, r3
 8005de6:	4770      	bx	lr

08005de8 <_fini>:
 8005de8:	b5f8      	push	{r3, r4, r5, r6, r7, lr}
 8005dea:	bf00      	nop
 8005dec:	bcf8      	pop	{r3, r4, r5, r6, r7}
 8005dee:	bc08      	pop	{r3}
 8005df0:	469e      	mov	lr, r3
 8005df2:	4770      	bx	lr
